	.text
	.syntax unified
	.eabi_attribute	67, "2.09"	@ Tag_conformance
	.cpu	cortex-m55
	.eabi_attribute	6, 21	@ Tag_CPU_arch
	.eabi_attribute	7, 77	@ Tag_CPU_arch_profile
	.eabi_attribute	8, 0	@ Tag_ARM_ISA_use
	.eabi_attribute	9, 3	@ Tag_THUMB_ISA_use
	.fpu	fpv5-d16
	.eabi_attribute	36, 1	@ Tag_FP_HP_extension
	.eabi_attribute	48, 2	@ Tag_MVE_arch
	.eabi_attribute	46, 1	@ Tag_DSP_extension
	.eabi_attribute	34, 1	@ Tag_CPU_unaligned_access
	.eabi_attribute	17, 1	@ Tag_ABI_PCS_GOT_use
	.eabi_attribute	20, 2	@ Tag_ABI_FP_denormal
	.eabi_attribute	21, 0	@ Tag_ABI_FP_exceptions
	.eabi_attribute	23, 1	@ Tag_ABI_FP_number_model
	.eabi_attribute	24, 1	@ Tag_ABI_align_needed
	.eabi_attribute	25, 1	@ Tag_ABI_align_preserved
	.eabi_attribute	28, 1	@ Tag_ABI_VFP_args
	.eabi_attribute	38, 1	@ Tag_ABI_FP_16bit_format
	.eabi_attribute	18, 2	@ Tag_ABI_PCS_wchar_t
	.eabi_attribute	26, 1	@ Tag_ABI_enum_size
	.eabi_attribute	14, 0	@ Tag_ABI_PCS_R9_use
	.file	"BoardInit.cpp"
	.file	1 "C:\\" "Keil_v5\\ARM\\ARMCLANG\\Bin\\..\\include\\stdint.h"
	.file	2 "C:\\Users\\CYCHEN38\\OpenNuvoton\\firmware\\M55M1BSP\\SampleCode\\MachineLearning\\ObjectDetection_FreeRTOS_yoloxn\\KEIL" "../../../../Library/Device/Nuvoton/M55M1/Include/spim_reg.h"
	.file	3 "C:\\Users\\CYCHEN38\\OpenNuvoton\\firmware\\M55M1BSP\\SampleCode\\MachineLearning\\ObjectDetection_FreeRTOS_yoloxn\\KEIL" "../../../../Library/Device/Nuvoton/M55M1/Include/sys_reg.h"
	.file	4 "C:\\" "Keil_v5\\ARM\\ARMCLANG\\Bin\\..\\include\\stdio.h"
	.file	5 "C:\\" "Keil_v5\\ARM\\ARMCLANG\\Bin\\..\\include\\libcxx\\cstdio"
	.file	6 "C:\\" "Keil_v5\\ARM\\ARMCLANG\\Bin\\..\\include\\stddef.h"
	.file	7 "C:\\" "Keil_v5\\ARM\\ARMCLANG\\Bin\\..\\include\\libcxx\\__nullptr"
	.file	8 "C:\\" "Keil_v5\\ARM\\ARMCLANG\\Bin\\..\\include\\libcxx\\stddef.h"
	.section	.text._Z9BoardInitv,"ax",%progbits
	.hidden	_Z9BoardInitv                   @ -- Begin function _Z9BoardInitv
	.globl	_Z9BoardInitv
	.p2align	2
	.type	_Z9BoardInitv,%function
	.code	16                              @ @_Z9BoardInitv
	.thumb_func
_Z9BoardInitv:
.Lfunc_begin0:
	.file	9 "C:\\Users\\CYCHEN38\\OpenNuvoton\\firmware\\M55M1BSP\\SampleCode\\MachineLearning\\ObjectDetection_FreeRTOS_yoloxn\\KEIL" "../BoardInit.cpp"
	.loc	9 87 0                          @ ../BoardInit.cpp:87:0
	.fnstart
	.cfi_sections .debug_frame
	.cfi_startproc
@ %bb.0:
	.save	{r4, r5, r6, lr}
	push	{r4, r5, r6, lr}
	.cfi_def_cfa_offset 16
	.cfi_offset lr, -4
	.cfi_offset r6, -8
	.cfi_offset r5, -12
	.cfi_offset r4, -16
.Ltmp0:
	.file	10 "C:\\Users\\CYCHEN38\\OpenNuvoton\\firmware\\M55M1BSP\\SampleCode\\MachineLearning\\ObjectDetection_FreeRTOS_yoloxn\\KEIL" "../../../../Library/StdDriver/inc\\sys.h"
	.loc	10 4474 32 prologue_end         @ ../../../../Library/StdDriver/inc\sys.h:4474:32
	movw	r0, :lower16:SystemCoreClock
	movw	r5, #256
	movt	r0, :upper16:SystemCoreClock
	movs	r1, #89
	ldr	r0, [r0]
.Ltmp1:
	@DEBUG_VALUE: SYS_UnlockReg:u32TimeOutCount <- $r0
	.loc	10 0 32 is_stmt 0               @ ../../../../Library/StdDriver/inc\sys.h:0:32
	movs	r2, #22
	movt	r5, #16384
	movs	r3, #136
.Ltmp2:
.LBB0_1:                                @ =>This Inner Loop Header: Depth=1
	@DEBUG_VALUE: SYS_UnlockReg:u32TimeOutCount <- $r0
	@DEBUG_VALUE: SYS_UnlockReg:u32TimeOutCount <- $r0
	.loc	10 4482 13 is_stmt 1            @ ../../../../Library/StdDriver/inc\sys.h:4482:13
	cmp	r0, #1
	.loc	10 4478 22                      @ ../../../../Library/StdDriver/inc\sys.h:4478:22
	str	r1, [r5]
	.loc	10 4479 22                      @ ../../../../Library/StdDriver/inc\sys.h:4479:22
	str	r2, [r5]
	.loc	10 4480 22                      @ ../../../../Library/StdDriver/inc\sys.h:4480:22
	str	r3, [r5]
.Ltmp3:
	@DEBUG_VALUE: SYS_UnlockReg:u32TimeOutCount <- [DW_OP_constu 1, DW_OP_minus, DW_OP_stack_value] $r0
	.loc	10 4482 13                      @ ../../../../Library/StdDriver/inc\sys.h:4482:13
	beq	.LBB0_9
.Ltmp4:
@ %bb.2:                                @   in Loop: Header=BB0_1 Depth=1
	@DEBUG_VALUE: SYS_UnlockReg:u32TimeOutCount <- [DW_OP_constu 1, DW_OP_minus, DW_OP_stack_value] $r0
	.loc	10 4483 19                      @ ../../../../Library/StdDriver/inc\sys.h:4483:19
	ldr	r6, [r5]
.Ltmp5:
	.loc	10 4483 5 is_stmt 0             @ ../../../../Library/StdDriver/inc\sys.h:4483:5
	cbnz	r6, .LBB0_9
.Ltmp6:
@ %bb.3:                                @   in Loop: Header=BB0_1 Depth=1
	@DEBUG_VALUE: SYS_UnlockReg:u32TimeOutCount <- [DW_OP_constu 1, DW_OP_minus, DW_OP_stack_value] $r0
	@DEBUG_VALUE: SYS_UnlockReg:u32TimeOutCount <- [DW_OP_constu 1, DW_OP_minus, DW_OP_stack_value] $r0
	.loc	10 4482 13 is_stmt 1            @ ../../../../Library/StdDriver/inc\sys.h:4482:13
	cmp	r0, #2
	.loc	10 4478 22                      @ ../../../../Library/StdDriver/inc\sys.h:4478:22
	str	r1, [r5]
	.loc	10 4479 22                      @ ../../../../Library/StdDriver/inc\sys.h:4479:22
	str	r2, [r5]
	.loc	10 4480 22                      @ ../../../../Library/StdDriver/inc\sys.h:4480:22
	str	r3, [r5]
.Ltmp7:
	@DEBUG_VALUE: SYS_UnlockReg:u32TimeOutCount <- [DW_OP_constu 2, DW_OP_minus, DW_OP_stack_value] $r0
	.loc	10 4482 13                      @ ../../../../Library/StdDriver/inc\sys.h:4482:13
	beq	.LBB0_9
.Ltmp8:
@ %bb.4:                                @   in Loop: Header=BB0_1 Depth=1
	@DEBUG_VALUE: SYS_UnlockReg:u32TimeOutCount <- [DW_OP_constu 2, DW_OP_minus, DW_OP_stack_value] $r0
	.loc	10 4483 19                      @ ../../../../Library/StdDriver/inc\sys.h:4483:19
	ldr	r6, [r5]
.Ltmp9:
	.loc	10 4483 5 is_stmt 0             @ ../../../../Library/StdDriver/inc\sys.h:4483:5
	cbnz	r6, .LBB0_9
.Ltmp10:
@ %bb.5:                                @   in Loop: Header=BB0_1 Depth=1
	@DEBUG_VALUE: SYS_UnlockReg:u32TimeOutCount <- [DW_OP_constu 2, DW_OP_minus, DW_OP_stack_value] $r0
	@DEBUG_VALUE: SYS_UnlockReg:u32TimeOutCount <- [DW_OP_constu 2, DW_OP_minus, DW_OP_stack_value] $r0
	.loc	10 4482 13 is_stmt 1            @ ../../../../Library/StdDriver/inc\sys.h:4482:13
	cmp	r0, #3
	.loc	10 4478 22                      @ ../../../../Library/StdDriver/inc\sys.h:4478:22
	str	r1, [r5]
	.loc	10 4479 22                      @ ../../../../Library/StdDriver/inc\sys.h:4479:22
	str	r2, [r5]
	.loc	10 4480 22                      @ ../../../../Library/StdDriver/inc\sys.h:4480:22
	str	r3, [r5]
.Ltmp11:
	@DEBUG_VALUE: SYS_UnlockReg:u32TimeOutCount <- [DW_OP_constu 3, DW_OP_minus, DW_OP_stack_value] $r0
	.loc	10 4482 13                      @ ../../../../Library/StdDriver/inc\sys.h:4482:13
	beq	.LBB0_9
.Ltmp12:
@ %bb.6:                                @   in Loop: Header=BB0_1 Depth=1
	@DEBUG_VALUE: SYS_UnlockReg:u32TimeOutCount <- [DW_OP_constu 3, DW_OP_minus, DW_OP_stack_value] $r0
	.loc	10 4483 19                      @ ../../../../Library/StdDriver/inc\sys.h:4483:19
	ldr	r6, [r5]
.Ltmp13:
	.loc	10 4483 5 is_stmt 0             @ ../../../../Library/StdDriver/inc\sys.h:4483:5
	cbnz	r6, .LBB0_9
.Ltmp14:
@ %bb.7:                                @   in Loop: Header=BB0_1 Depth=1
	@DEBUG_VALUE: SYS_UnlockReg:u32TimeOutCount <- [DW_OP_constu 3, DW_OP_minus, DW_OP_stack_value] $r0
	@DEBUG_VALUE: SYS_UnlockReg:u32TimeOutCount <- [DW_OP_constu 3, DW_OP_minus, DW_OP_stack_value] $r0
	.loc	10 4482 13 is_stmt 1            @ ../../../../Library/StdDriver/inc\sys.h:4482:13
	subs	r0, #4
.Ltmp15:
	@DEBUG_VALUE: SYS_UnlockReg:u32TimeOutCount <- $r0
	.loc	10 4478 22                      @ ../../../../Library/StdDriver/inc\sys.h:4478:22
	str	r1, [r5]
	.loc	10 4479 22                      @ ../../../../Library/StdDriver/inc\sys.h:4479:22
	str	r2, [r5]
	.loc	10 4480 22                      @ ../../../../Library/StdDriver/inc\sys.h:4480:22
	str	r3, [r5]
	.loc	10 4482 13                      @ ../../../../Library/StdDriver/inc\sys.h:4482:13
	beq	.LBB0_9
.Ltmp16:
@ %bb.8:                                @   in Loop: Header=BB0_1 Depth=1
	@DEBUG_VALUE: SYS_UnlockReg:u32TimeOutCount <- $r0
	.loc	10 4483 19                      @ ../../../../Library/StdDriver/inc\sys.h:4483:19
	ldr	r6, [r5]
.Ltmp17:
	.loc	10 4483 5 is_stmt 0             @ ../../../../Library/StdDriver/inc\sys.h:4483:5
	cbnz	r6, .LBB0_9
	le	.LBB0_1
.Ltmp18:
.LBB0_9:
	.loc	9 28 5 is_stmt 1                @ ../BoardInit.cpp:28:5
	movs	r0, #8
	bl	CLK_EnableXtalRC
.Ltmp19:
	.loc	9 31 5                          @ ../BoardInit.cpp:31:5
	movs	r0, #8
	bl	CLK_WaitClockReady
.Ltmp20:
	.loc	9 34 5                          @ ../BoardInit.cpp:34:5
	movs	r0, #16
	bl	CLK_EnableXtalRC
.Ltmp21:
	.loc	9 37 5                          @ ../BoardInit.cpp:37:5
	movs	r0, #16
	bl	CLK_WaitClockReady
.Ltmp22:
	.loc	9 0 5 is_stmt 0                 @ ../BoardInit.cpp:0:5
	movw	r2, #38144
	.loc	9 40 5 is_stmt 1                @ ../BoardInit.cpp:40:5
	movs	r0, #4
	movt	r2, #2746
	movs	r1, #1
	bl	CLK_SetBusClock
.Ltmp23:
	.loc	9 44 5                          @ ../BoardInit.cpp:44:5
	bl	SystemCoreClockUpdate
.Ltmp24:
	.loc	9 47 5                          @ ../BoardInit.cpp:47:5
	movs	r0, #0
	mov.w	r1, #557056
	movs	r6, #0
	bl	CLK_EnableModuleClock
.Ltmp25:
	.loc	9 48 5                          @ ../BoardInit.cpp:48:5
	mov.w	r0, #1024
	mov.w	r1, #557056
	bl	CLK_EnableModuleClock
.Ltmp26:
	.loc	9 49 5                          @ ../BoardInit.cpp:49:5
	mov.w	r0, #2048
	mov.w	r1, #557056
	bl	CLK_EnableModuleClock
.Ltmp27:
	.loc	9 50 5                          @ ../BoardInit.cpp:50:5
	mov.w	r0, #3072
	mov.w	r1, #557056
	bl	CLK_EnableModuleClock
.Ltmp28:
	.loc	9 51 5                          @ ../BoardInit.cpp:51:5
	mov.w	r0, #4096
	mov.w	r1, #557056
	bl	CLK_EnableModuleClock
.Ltmp29:
	.loc	9 52 5                          @ ../BoardInit.cpp:52:5
	mov.w	r0, #5120
	mov.w	r1, #557056
	bl	CLK_EnableModuleClock
.Ltmp30:
	.loc	9 53 5                          @ ../BoardInit.cpp:53:5
	mov.w	r0, #6144
	mov.w	r1, #557056
	bl	CLK_EnableModuleClock
.Ltmp31:
	.loc	9 54 5                          @ ../BoardInit.cpp:54:5
	mov.w	r0, #7168
	mov.w	r1, #557056
	bl	CLK_EnableModuleClock
.Ltmp32:
	.loc	9 55 5                          @ ../BoardInit.cpp:55:5
	mov.w	r0, #8192
	mov.w	r1, #557056
	bl	CLK_EnableModuleClock
.Ltmp33:
	.loc	9 56 5                          @ ../BoardInit.cpp:56:5
	mov.w	r0, #9216
	mov.w	r1, #557056
	bl	CLK_EnableModuleClock
.Ltmp34:
	.loc	9 0 5 is_stmt 0                 @ ../BoardInit.cpp:0:5
	movw	r1, #33792
	.loc	9 59 5 is_stmt 1                @ ../BoardInit.cpp:59:5
	mov.w	r0, #8388608
	movt	r1, #7
	bl	CLK_EnableModuleClock
.Ltmp35:
	.loc	9 62 5                          @ ../BoardInit.cpp:62:5
	movs	r0, #0
	mov.w	r1, #1146880
	bl	CLK_EnableModuleClock
.Ltmp36:
	.loc	9 0 5 is_stmt 0                 @ ../BoardInit.cpp:0:5
	movw	r1, #384
	.loc	9 65 5 is_stmt 1                @ ../BoardInit.cpp:65:5
	mov.w	r0, #58720256
	movt	r1, #2
	bl	CLK_EnableModuleClock
.Ltmp37:
	.loc	9 68 5                          @ ../BoardInit.cpp:68:5
	bl	SetDebugUartCLK
.Ltmp38:
	.loc	9 75 5                          @ ../BoardInit.cpp:75:5
	bl	SetDebugUartMFP
.Ltmp39:
	.loc	9 0 5 is_stmt 0                 @ ../BoardInit.cpp:0:5
	movw	r4, #12288
	movt	r4, #16388
	.loc	9 77 5 is_stmt 1                @ ../BoardInit.cpp:77:5
	mov	r0, r4
	bl	HyperRAM_PinConfig
.Ltmp40:
	.loc	9 95 5                          @ ../BoardInit.cpp:95:5
	bl	InitDebugUart
.Ltmp41:
	.loc	9 99 5                          @ ../BoardInit.cpp:99:5
	mov	r0, r4
.Ltmp42:
	.loc	10 4495 18                      @ ../../../../Library/StdDriver/inc\sys.h:4495:18
	str	r6, [r5]
.Ltmp43:
	.loc	9 99 5                          @ ../BoardInit.cpp:99:5
	bl	HyperRAM_Init
.Ltmp44:
	.loc	9 101 5                         @ ../BoardInit.cpp:101:5
	mov	r0, r4
	bl	SPIM_HYPER_EnterDirectMapMode
.Ltmp45:
	.loc	9 103 5                         @ ../BoardInit.cpp:103:5
	movw	r0, :lower16:.L.str
	movt	r0, :upper16:.L.str
	bl	__2printf
.Ltmp46:
	adr	r0, .LCPI0_0
	adr	r1, .LCPI0_1
	bl	__2printf
.Ltmp47:
	.loc	9 110 23                        @ ../BoardInit.cpp:110:23
	bl	arm_ethosu_npu_init
.Ltmp48:
	mov	r4, r0
.Ltmp49:
	@DEBUG_VALUE: BoardInit:state <- $r4
	.loc	9 110 9 is_stmt 0               @ ../BoardInit.cpp:110:9
	cbz	r0, .LBB0_11
.Ltmp50:
@ %bb.10:
	@DEBUG_VALUE: BoardInit:state <- $r4
	.loc	9 121 1 is_stmt 1               @ ../BoardInit.cpp:121:1
	mov	r0, r4
	pop	{r4, r5, r6, pc}
.Ltmp51:
.LBB0_11:
	@DEBUG_VALUE: BoardInit:state <- $r4
	.loc	9 118 5                         @ ../BoardInit.cpp:118:5
	movw	r0, :lower16:.L.str
	movt	r0, :upper16:.L.str
	bl	__2printf
.Ltmp52:
	adr	r0, .LCPI0_2
	adr	r1, .LCPI0_3
	bl	__2printf
.Ltmp53:
	.loc	9 121 1                         @ ../BoardInit.cpp:121:1
	mov	r0, r4
	pop	{r4, r5, r6, pc}
.Ltmp54:
	.p2align	2
@ %bb.12:
	.loc	9 0 1 is_stmt 0                 @ ../BoardInit.cpp:0:1
.LCPI0_0:
.L.str.1:
	.asciz	"%s: complete\n\000\000"
.LCPI0_1:
.L__FUNCTION__._Z9BoardInitv:
	.asciz	"BoardInit\000\000"
.LCPI0_2:
.L.str.2:
	.asciz	"Target system: %s\n\000"
.LCPI0_3:
.L.str.3:
	.asciz	"M55M1\000\000"
.Lfunc_end0:
	.size	_Z9BoardInitv, .Lfunc_end0-_Z9BoardInitv
	.cfi_endproc
	.cantunwind
	.fnend
                                        @ -- End function
	.type	.L.str,%object                  @ @.str
	.section	.rodata.str1.1,"aMS",%progbits,1
.L.str:
	.asciz	"INFO - "
	.size	.L.str, 8

	.globl	_printf_percent
	.globl	_printf_s
	.globl	_printf_str
	.hidden	_printf_percent
	.hidden	_printf_s
	.hidden	_printf_str
	.section	".note.GNU-stack","",%progbits
	.eabi_attribute	30, 1	@ Tag_ABI_optimization_goals
	.ARM_attribute	16, 1	@ Tag_AV_eba