	.text
	.syntax unified
	.eabi_attribute	67, "2.09"	@ Tag_conformance
	.cpu	cortex-m55
	.eabi_attribute	6, 21	@ Tag_CPU_arch
	.eabi_attribute	7, 77	@ Tag_CPU_arch_profile
	.eabi_attribute	8, 0	@ Tag_ARM_ISA_use
	.eabi_attribute	9, 3	@ Tag_THUMB_ISA_use
	.fpu	fpv5-d16
	.eabi_attribute	36, 1	@ Tag_FP_HP_extension
	.eabi_attribute	48, 2	@ Tag_MVE_arch
	.eabi_attribute	46, 1	@ Tag_DSP_extension
	.eabi_attribute	34, 1	@ Tag_CPU_unaligned_access
	.eabi_attribute	17, 1	@ Tag_ABI_PCS_GOT_use
	.eabi_attribute	20, 2	@ Tag_ABI_FP_denormal
	.eabi_attribute	21, 0	@ Tag_ABI_FP_exceptions
	.eabi_attribute	23, 1	@ Tag_ABI_FP_number_model
	.eabi_attribute	24, 1	@ Tag_ABI_align_needed
	.eabi_attribute	25, 1	@ Tag_ABI_align_preserved
	.eabi_attribute	28, 1	@ Tag_ABI_VFP_args
	.eabi_attribute	38, 1	@ Tag_ABI_FP_16bit_format
	.eabi_attribute	18, 2	@ Tag_ABI_PCS_wchar_t
	.eabi_attribute	26, 1	@ Tag_ABI_enum_size
	.eabi_attribute	14, 0	@ Tag_ABI_PCS_R9_use
	.file	"clk.c"
	.file	1 "C:\\" "Keil_v5\\ARM\\ARMCLANG\\Bin\\..\\include\\stdint.h"
	.file	2 "C:\\Users\\CYCHEN38\\OpenNuvoton\\firmware\\M55M1BSP\\SampleCode\\MachineLearning\\ObjectDetection_FreeRTOS_yoloxn\\KEIL" "../../../../Library/Device/Nuvoton/M55M1/Include/clk_reg.h"
	.file	3 "C:\\Users\\CYCHEN38\\OpenNuvoton\\firmware\\M55M1BSP\\SampleCode\\MachineLearning\\ObjectDetection_FreeRTOS_yoloxn\\KEIL" "../../../../Library/Device/Nuvoton/M55M1/Include/pmc_reg.h"
	.file	4 "C:\\Users\\CYCHEN38\\OpenNuvoton\\firmware\\M55M1BSP\\SampleCode\\MachineLearning\\ObjectDetection_FreeRTOS_yoloxn\\KEIL" "../../../../Library/Device/Nuvoton/M55M1/Include/fmc_reg.h"
	.file	5 "C:\\Users\\CYCHEN38\\OpenNuvoton\\firmware\\M55M1BSP\\SampleCode\\MachineLearning\\ObjectDetection_FreeRTOS_yoloxn\\KEIL" "../../../../Library/Device/Nuvoton/M55M1/Include/rtc_reg.h"
	.file	6 "C:\\Users\\CYCHEN38\\OpenNuvoton\\firmware\\M55M1BSP\\SampleCode\\MachineLearning\\ObjectDetection_FreeRTOS_yoloxn\\KEIL" "../../../../Library/Device/Nuvoton/M55M1/Include/M55M1.h"
	.file	7 "C:\\Users\\CYCHEN38\\OpenNuvoton\\firmware\\M55M1BSP\\SampleCode\\MachineLearning\\ObjectDetection_FreeRTOS_yoloxn\\KEIL" "../../../../Library/CMSIS/Core/Include\\core_cm55.h"
	.file	8 "C:\\Users\\CYCHEN38\\OpenNuvoton\\firmware\\M55M1BSP\\SampleCode\\MachineLearning\\ObjectDetection_FreeRTOS_yoloxn\\KEIL" "../../../../Library/Device/Nuvoton/M55M1/Include/ccap_reg.h"
	.section	.text.CLK_DisableCKO,"ax",%progbits
	.hidden	CLK_DisableCKO                  @ -- Begin function CLK_DisableCKO
	.globl	CLK_DisableCKO
	.p2align	2
	.type	CLK_DisableCKO,%function
	.code	16                              @ @CLK_DisableCKO
	.thumb_func
CLK_DisableCKO:
.Lfunc_begin0:
	.file	9 "C:\\Users\\CYCHEN38\\OpenNuvoton\\firmware\\M55M1BSP\\SampleCode\\MachineLearning\\ObjectDetection_FreeRTOS_yoloxn\\KEIL" "../../../../Library/StdDriver/src/clk.c"
	.loc	9 31 0                          @ ../../../../Library/StdDriver/src/clk.c:31:0
	.fnstart
	.cfi_sections .debug_frame
	.cfi_startproc
@ %bb.0:
	movw	r0, #4136
	movt	r0, #16384
.Ltmp0:
	.loc	9 33 18 prologue_end            @ ../../../../Library/StdDriver/src/clk.c:33:18
	ldr	r1, [r0]
	bic	r1, r1, #16
	str	r1, [r0]
	.loc	9 34 1                          @ ../../../../Library/StdDriver/src/clk.c:34:1
	bx	lr
.Ltmp1:
.Lfunc_end0:
	.size	CLK_DisableCKO, .Lfunc_end0-CLK_DisableCKO
	.cfi_endproc
	.cantunwind
	.fnend
                                        @ -- End function
	.section	.text.CLK_EnableCKO,"ax",%progbits
	.hidden	CLK_EnableCKO                   @ -- Begin function CLK_EnableCKO
	.globl	CLK_EnableCKO
	.p2align	2
	.type	CLK_EnableCKO,%function
	.code	16                              @ @CLK_EnableCKO
	.thumb_func
CLK_EnableCKO:
.Lfunc_begin1:
	.loc	9 65 0                          @ ../../../../Library/StdDriver/src/clk.c:65:0
	.fnstart
	.cfi_startproc
@ %bb.0:
	@DEBUG_VALUE: CLK_EnableCKO:u32ClkSrc <- $r0
	@DEBUG_VALUE: CLK_EnableCKO:u32ClkDiv <- $r1
	@DEBUG_VALUE: CLK_EnableCKO:u32ClkDiv <- $r1
	@DEBUG_VALUE: CLK_EnableCKO:u32ClkDivBy1En <- $r2
	@DEBUG_VALUE: CLK_EnableCKO:u32ClkDivBy1En <- $r2
	.loc	9 67 57 prologue_end            @ ../../../../Library/StdDriver/src/clk.c:67:57
	orr.w	r1, r1, r2, lsl #5
.Ltmp2:
	@DEBUG_VALUE: CLK_EnableCKO:u32ClkDiv <- [DW_OP_LLVM_entry_value 1] $r1
	.loc	9 0 57 is_stmt 0                @ ../../../../Library/StdDriver/src/clk.c:0:57
	movw	r2, #64536
.Ltmp3:
	@DEBUG_VALUE: CLK_EnableCKO:u32ClkDivBy1En <- [DW_OP_LLVM_entry_value 1] $r2
	movw	r3, #5136
	.loc	9 67 57                         @ ../../../../Library/StdDriver/src/clk.c:67:57
	orr	r1, r1, #16
	movt	r2, #65535
	movt	r3, #16384
	.loc	9 67 18                         @ ../../../../Library/StdDriver/src/clk.c:67:18
	str	r1, [r3, r2]
	.loc	9 70 26 is_stmt 1               @ ../../../../Library/StdDriver/src/clk.c:70:26
	ldr	r1, [r3]
	@DEBUG_VALUE: CLK_EnableCKO:u32ClkSrc <- $r0
	.loc	9 70 34 is_stmt 0               @ ../../../../Library/StdDriver/src/clk.c:70:34
	bic	r1, r1, #15
	.loc	9 70 64                         @ ../../../../Library/StdDriver/src/clk.c:70:64
	orrs	r0, r1
.Ltmp4:
	@DEBUG_VALUE: CLK_EnableCKO:u32ClkSrc <- [DW_OP_LLVM_entry_value 1] $r0
	.loc	9 70 18                         @ ../../../../Library/StdDriver/src/clk.c:70:18
	str	r0, [r3]
	.loc	9 71 1 is_stmt 1                @ ../../../../Library/StdDriver/src/clk.c:71:1
	bx	lr
.Ltmp5:
.Lfunc_end1:
	.size	CLK_EnableCKO, .Lfunc_end1-CLK_EnableCKO
	.cfi_endproc
	.cantunwind
	.fnend
                                        @ -- End function
	.section	.text.CLK_GetHXTFreq,"ax",%progbits
	.hidden	CLK_GetHXTFreq                  @ -- Begin function CLK_GetHXTFreq
	.globl	CLK_GetHXTFreq
	.p2align	2
	.type	CLK_GetHXTFreq,%function
	.code	16                              @ @CLK_GetHXTFreq
	.thumb_func
CLK_GetHXTFreq:
.Lfunc_begin2:
	.loc	9 80 0                          @ ../../../../Library/StdDriver/src/clk.c:80:0
	.fnstart
	.cfi_startproc
@ %bb.0:
	movw	r0, #4096
	movw	r1, #13824
	movt	r0, #16384
.Ltmp6:
	.loc	9 83 14 prologue_end            @ ../../../../Library/StdDriver/src/clk.c:83:14
	ldr	r0, [r0]
	movt	r1, #366
	.loc	9 83 21 is_stmt 0               @ ../../../../Library/StdDriver/src/clk.c:83:21
	lsls	r0, r0, #27
.Ltmp7:
	.loc	9 83 9                          @ ../../../../Library/StdDriver/src/clk.c:83:9
	and.w	r0, r1, r0, asr #31
.Ltmp8:
	@DEBUG_VALUE: CLK_GetHXTFreq:u32Freq <- $r0
	.loc	9 92 5 is_stmt 1                @ ../../../../Library/StdDriver/src/clk.c:92:5
	bx	lr
.Ltmp9:
.Lfunc_end2:
	.size	CLK_GetHXTFreq, .Lfunc_end2-CLK_GetHXTFreq
	.cfi_endproc
	.cantunwind
	.fnend
                                        @ -- End function
	.section	.text.CLK_GetLXTFreq,"ax",%progbits
	.hidden	CLK_GetLXTFreq                  @ -- Begin function CLK_GetLXTFreq
	.globl	CLK_GetLXTFreq
	.p2align	2
	.type	CLK_GetLXTFreq,%function
	.code	16                              @ @CLK_GetLXTFreq
	.thumb_func
CLK_GetLXTFreq:
.Lfunc_begin3:
	.loc	9 102 0                         @ ../../../../Library/StdDriver/src/clk.c:102:0
	.fnstart
	.cfi_startproc
@ %bb.0:
	movw	r0, #4096
	mov.w	r1, #32768
	movt	r0, #16384
.Ltmp10:
	.loc	9 105 14 prologue_end           @ ../../../../Library/StdDriver/src/clk.c:105:14
	ldr	r0, [r0]
.Ltmp11:
	.loc	9 105 9 is_stmt 0               @ ../../../../Library/StdDriver/src/clk.c:105:9
	and.w	r0, r1, r0, lsl #14
.Ltmp12:
	@DEBUG_VALUE: CLK_GetLXTFreq:u32Freq <- $r0
	.loc	9 114 5 is_stmt 1               @ ../../../../Library/StdDriver/src/clk.c:114:5
	bx	lr
.Ltmp13:
.Lfunc_end3:
	.size	CLK_GetLXTFreq, .Lfunc_end3-CLK_GetLXTFreq
	.cfi_endproc
	.cantunwind
	.fnend
                                        @ -- End function
	.section	.text.CLK_GetMIRCFreq,"ax",%progbits
	.hidden	CLK_GetMIRCFreq                 @ -- Begin function CLK_GetMIRCFreq
	.globl	CLK_GetMIRCFreq
	.p2align	2
	.type	CLK_GetMIRCFreq,%function
	.code	16                              @ @CLK_GetMIRCFreq
	.thumb_func
CLK_GetMIRCFreq:
.Lfunc_begin4:
	.loc	9 124 0                         @ ../../../../Library/StdDriver/src/clk.c:124:0
	.fnstart
	.cfi_startproc
@ %bb.0:
	movw	r0, #16960
	movt	r0, #15
.Ltmp14:
	@DEBUG_VALUE: CLK_GetMIRCFreq:u32Freq <- 1000000
	.loc	9 161 5 prologue_end            @ ../../../../Library/StdDriver/src/clk.c:161:5
	bx	lr
.Ltmp15:
.Lfunc_end4:
	.size	CLK_GetMIRCFreq, .Lfunc_end4-CLK_GetMIRCFreq
	.cfi_endproc
	.cantunwind
	.fnend
                                        @ -- End function
	.section	.text.CLK_GetPCLK0Freq,"ax",%progbits
	.hidden	CLK_GetPCLK0Freq                @ -- Begin function CLK_GetPCLK0Freq
	.globl	CLK_GetPCLK0Freq
	.p2align	2
	.type	CLK_GetPCLK0Freq,%function
	.code	16                              @ @CLK_GetPCLK0Freq
	.thumb_func
CLK_GetPCLK0Freq:
.Lfunc_begin5:
	.loc	9 215 0                         @ ../../../../Library/StdDriver/src/clk.c:215:0
	.fnstart
	.cfi_startproc
@ %bb.0:
	.save	{r7, lr}
	push	{r7, lr}
	.cfi_def_cfa_offset 8
	.cfi_offset lr, -4
	.cfi_offset r7, -8
	movw	r1, #4096
	movt	r1, #16384
.Ltmp16:
	@DEBUG_VALUE: CLK_GetAPLL0ClockFreq:u32PllFreq <- 0
	.loc	9 1713 22 prologue_end          @ ../../../../Library/StdDriver/src/clk.c:1713:22
	ldr	r2, [r1, #24]
.Ltmp17:
	@DEBUG_VALUE: CLK_GetAPLL0ClockFreq:u32PllReg <- $r2
	.loc	9 1714 23                       @ ../../../../Library/StdDriver/src/clk.c:1714:23
	ldr	r0, [r1, #28]
.Ltmp18:
	@DEBUG_VALUE: CLK_GetAPLL0ClockFreq:u32PllReg1 <- $r0
	.loc	9 1716 16                       @ ../../../../Library/StdDriver/src/clk.c:1716:16
	ldr	r3, [r1]
.Ltmp19:
	.loc	9 1716 9 is_stmt 0              @ ../../../../Library/StdDriver/src/clk.c:1716:9
	lsls	r3, r3, #25
	bmi	.LBB5_2
.Ltmp20:
@ %bb.1:
	@DEBUG_VALUE: CLK_GetAPLL0ClockFreq:u32PllReg <- $r2
	@DEBUG_VALUE: CLK_GetAPLL0ClockFreq:u32PllReg1 <- $r0
	@DEBUG_VALUE: CLK_GetAPLL0ClockFreq:u32PllFreq <- 0
	.loc	9 0 9                           @ ../../../../Library/StdDriver/src/clk.c:0:9
	movs	r0, #0
.Ltmp21:
	b	.LBB5_4
.Ltmp22:
.LBB5_2:
	@DEBUG_VALUE: CLK_GetAPLL0ClockFreq:u32PllReg <- $r2
	@DEBUG_VALUE: CLK_GetAPLL0ClockFreq:u32PllReg1 <- $r0
	@DEBUG_VALUE: CLK_GetAPLL0ClockFreq:u32PllFreq <- 0
	.loc	9 1723 13 is_stmt 1             @ ../../../../Library/StdDriver/src/clk.c:1723:13
	lsls	r0, r0, #30
.Ltmp23:
	.loc	9 0 13 is_stmt 0                @ ../../../../Library/StdDriver/src/clk.c:0:13
	movw	r0, #6912
	movt	r0, #183
	.loc	9 1723 13                       @ ../../../../Library/StdDriver/src/clk.c:1723:13
	itt	eq
	movweq	r0, #13824
	movteq	r0, #366
.Ltmp24:
	@DEBUG_VALUE: CLK_GetAPLL0ClockFreq:u32FIN <- $r0
	.loc	9 1737 13 is_stmt 1             @ ../../../../Library/StdDriver/src/clk.c:1737:13
	lsls	r3, r2, #1
	bmi	.LBB5_4
.Ltmp25:
@ %bb.3:
	@DEBUG_VALUE: CLK_GetAPLL0ClockFreq:u32PllReg <- $r2
	@DEBUG_VALUE: CLK_GetAPLL0ClockFreq:u32FIN <- $r0
	@DEBUG_VALUE: CLK_GetAPLL0ClockFreq:u32PllFreq <- 0
	.loc	9 0 13 is_stmt 0                @ ../../../../Library/StdDriver/src/clk.c:0:13
	movw	r3, #1022
.Ltmp26:
	.loc	9 1749 36 is_stmt 1             @ ../../../../Library/StdDriver/src/clk.c:1749:36
	lsrs	r0, r0, #2
.Ltmp27:
	.loc	9 1744 69                       @ ../../../../Library/StdDriver/src/clk.c:1744:69
	ubfx	r12, r2, #14, #2
	.loc	9 1746 59                       @ ../../../../Library/StdDriver/src/clk.c:1746:59
	ubfx	lr, r2, #9, #5
	.loc	9 1749 51                       @ ../../../../Library/StdDriver/src/clk.c:1749:51
	and.w	r2, r3, r2, lsl #1
.Ltmp28:
	.loc	9 1744 21                       @ ../../../../Library/StdDriver/src/clk.c:1744:21
	movw	r3, :lower16:.L__const.CLK_GetAPLL1ClockFreq.au8NoTbl
	movt	r3, :upper16:.L__const.CLK_GetAPLL1ClockFreq.au8NoTbl
	.loc	9 1749 51                       @ ../../../../Library/StdDriver/src/clk.c:1749:51
	adds	r2, #4
	.loc	9 1744 21                       @ ../../../../Library/StdDriver/src/clk.c:1744:21
	ldrb.w	r12, [r3, r12]
.Ltmp29:
	@DEBUG_VALUE: CLK_GetAPLL0ClockFreq:u32NO <- $r12
	@DEBUG_VALUE: CLK_GetAPLL0ClockFreq:u32NF <- [DW_OP_constu 511, DW_OP_and, DW_OP_plus_uconst 2, DW_OP_stack_value] undef
	.loc	9 1746 86                       @ ../../../../Library/StdDriver/src/clk.c:1746:86
	add.w	r3, lr, #1
.Ltmp30:
	@DEBUG_VALUE: CLK_GetAPLL0ClockFreq:u32NR <- $r3
	.loc	9 1749 42                       @ ../../../../Library/StdDriver/src/clk.c:1749:42
	muls	r0, r2, r0
	.loc	9 1749 67 is_stmt 0             @ ../../../../Library/StdDriver/src/clk.c:1749:67
	mul	r2, r3, r12
	.loc	9 1749 58                       @ ../../../../Library/StdDriver/src/clk.c:1749:58
	udiv	r0, r0, r2
	.loc	9 1749 76                       @ ../../../../Library/StdDriver/src/clk.c:1749:76
	lsls	r0, r0, #2
.Ltmp31:
	@DEBUG_VALUE: CLK_GetAPLL0ClockFreq:u32PllFreq <- $r0
.LBB5_4:
	.loc	9 1823 14 is_stmt 1             @ ../../../../Library/StdDriver/src/clk.c:1823:14
	movw	r2, :lower16:PllClock
	movt	r2, :upper16:PllClock
	str	r0, [r2]
	.loc	9 1825 22                       @ ../../../../Library/StdDriver/src/clk.c:1825:22
	ldr.w	r1, [r1, #1024]
	.loc	9 1825 30 is_stmt 0             @ ../../../../Library/StdDriver/src/clk.c:1825:30
	and	r1, r1, #7
.Ltmp32:
	@DEBUG_VALUE: CLK_SystemClockUpdate:u32ClkSrc <- $r1
	.loc	9 1827 9 is_stmt 1              @ ../../../../Library/StdDriver/src/clk.c:1827:9
	cmp	r1, #4
	beq	.LBB5_8
.Ltmp33:
@ %bb.5:
	@DEBUG_VALUE: CLK_SystemClockUpdate:u32ClkSrc <- $r1
	cmp	r1, #1
	bne	.LBB5_7
.Ltmp34:
@ %bb.6:
	@DEBUG_VALUE: CLK_SystemClockUpdate:u32ClkSrc <- $r1
	.loc	9 0 9 is_stmt 0                 @ ../../../../Library/StdDriver/src/clk.c:0:9
	movw	r0, #16960
	movt	r0, #15
.Ltmp35:
	@DEBUG_VALUE: CLK_SystemClockUpdate:SystemClock <- 1000000
	.loc	9 1836 5 is_stmt 1              @ ../../../../Library/StdDriver/src/clk.c:1836:5
	b	.LBB5_8
.Ltmp36:
.LBB5_7:
	@DEBUG_VALUE: CLK_SystemClockUpdate:u32ClkSrc <- $r1
	.loc	9 1840 23                       @ ../../../../Library/StdDriver/src/clk.c:1840:23
	movw	r0, :lower16:.L__const.CLK_SystemClockUpdate.gau32ClkSrcTbl
	movt	r0, :upper16:.L__const.CLK_SystemClockUpdate.gau32ClkSrcTbl
	ldr.w	r0, [r0, r1, lsl #2]
.Ltmp37:
	@DEBUG_VALUE: CLK_SystemClockUpdate:SystemClock <- $r0
.LBB5_8:
	@DEBUG_VALUE: CLK_GetHCLK0Freq:u32Hclk0 <- $r0
	@DEBUG_VALUE: CLK_GetPCLK0Freq:u32Hclk0Freq <- $r0
	.loc	9 0 23 is_stmt 0                @ ../../../../Library/StdDriver/src/clk.c:0:23
	movw	r1, #5388
	movt	r1, #16384
	.loc	9 220 38 is_stmt 1              @ ../../../../Library/StdDriver/src/clk.c:220:38
	ldr	r1, [r1]
	.loc	9 220 46 is_stmt 0              @ ../../../../Library/StdDriver/src/clk.c:220:46
	and	r1, r1, #15
	.loc	9 220 103                       @ ../../../../Library/StdDriver/src/clk.c:220:103
	adds	r1, #1
	.loc	9 220 28                        @ ../../../../Library/StdDriver/src/clk.c:220:28
	udiv	r0, r0, r1
.Ltmp38:
	@DEBUG_VALUE: CLK_GetPCLK0Freq:u32Freq <- $r0
	.loc	9 222 5 is_stmt 1               @ ../../../../Library/StdDriver/src/clk.c:222:5
	pop	{r7, pc}
.Ltmp39:
.Lfunc_end5:
	.size	CLK_GetPCLK0Freq, .Lfunc_end5-CLK_GetPCLK0Freq
	.cfi_endproc
	.cantunwind
	.fnend
                                        @ -- End function
	.section	.text.CLK_GetHCLK0Freq,"ax",%progbits
	.hidden	CLK_GetHCLK0Freq                @ -- Begin function CLK_GetHCLK0Freq
	.globl	CLK_GetHCLK0Freq
	.p2align	2
	.type	CLK_GetHCLK0Freq,%function
	.code	16                              @ @CLK_GetHCLK0Freq
	.thumb_func
CLK_GetHCLK0Freq:
.Lfunc_begin6:
	.loc	9 341 0                         @ ../../../../Library/StdDriver/src/clk.c:341:0
	.fnstart
	.cfi_startproc
@ %bb.0:
	.save	{r7, lr}
	push	{r7, lr}
	.cfi_def_cfa_offset 8
	.cfi_offset lr, -4
	.cfi_offset r7, -8
	movw	r1, #4096
	movt	r1, #16384
.Ltmp40:
	@DEBUG_VALUE: CLK_GetAPLL0ClockFreq:u32PllFreq <- 0
	.loc	9 1713 22 prologue_end          @ ../../../../Library/StdDriver/src/clk.c:1713:22
	ldr	r2, [r1, #24]
.Ltmp41:
	@DEBUG_VALUE: CLK_GetAPLL0ClockFreq:u32PllReg <- $r2
	.loc	9 1714 23                       @ ../../../../Library/StdDriver/src/clk.c:1714:23
	ldr	r0, [r1, #28]
.Ltmp42:
	@DEBUG_VALUE: CLK_GetAPLL0ClockFreq:u32PllReg1 <- $r0
	.loc	9 1716 16                       @ ../../../../Library/StdDriver/src/clk.c:1716:16
	ldr	r3, [r1]
.Ltmp43:
	.loc	9 1716 9 is_stmt 0              @ ../../../../Library/StdDriver/src/clk.c:1716:9
	lsls	r3, r3, #25
	bmi	.LBB6_2
.Ltmp44:
@ %bb.1:
	@DEBUG_VALUE: CLK_GetAPLL0ClockFreq:u32PllReg <- $r2
	@DEBUG_VALUE: CLK_GetAPLL0ClockFreq:u32PllReg1 <- $r0
	@DEBUG_VALUE: CLK_GetAPLL0ClockFreq:u32PllFreq <- 0
	.loc	9 0 9                           @ ../../../../Library/StdDriver/src/clk.c:0:9
	movs	r0, #0
.Ltmp45:
	b	.LBB6_4
.Ltmp46:
.LBB6_2:
	@DEBUG_VALUE: CLK_GetAPLL0ClockFreq:u32PllReg <- $r2
	@DEBUG_VALUE: CLK_GetAPLL0ClockFreq:u32PllReg1 <- $r0
	@DEBUG_VALUE: CLK_GetAPLL0ClockFreq:u32PllFreq <- 0
	.loc	9 1723 13 is_stmt 1             @ ../../../../Library/StdDriver/src/clk.c:1723:13
	lsls	r0, r0, #30
.Ltmp47:
	.loc	9 0 13 is_stmt 0                @ ../../../../Library/StdDriver/src/clk.c:0:13
	movw	r0, #6912
	movt	r0, #183
	.loc	9 1723 13                       @ ../../../../Library/StdDriver/src/clk.c:1723:13
	itt	eq
	movweq	r0, #13824
	movteq	r0, #366
.Ltmp48:
	@DEBUG_VALUE: CLK_GetAPLL0ClockFreq:u32FIN <- $r0
	.loc	9 1737 13 is_stmt 1             @ ../../../../Library/StdDriver/src/clk.c:1737:13
	lsls	r3, r2, #1
	bmi	.LBB6_4
.Ltmp49:
@ %bb.3:
	@DEBUG_VALUE: CLK_GetAPLL0ClockFreq:u32PllReg <- $r2
	@DEBUG_VALUE: CLK_GetAPLL0ClockFreq:u32FIN <- $r0
	@DEBUG_VALUE: CLK_GetAPLL0ClockFreq:u32PllFreq <- 0
	.loc	9 0 13 is_stmt 0                @ ../../../../Library/StdDriver/src/clk.c:0:13
	movw	r3, #1022
.Ltmp50:
	.loc	9 1749 36 is_stmt 1             @ ../../../../Library/StdDriver/src/clk.c:1749:36
	lsrs	r0, r0, #2
.Ltmp51:
	.loc	9 1744 69                       @ ../../../../Library/StdDriver/src/clk.c:1744:69
	ubfx	r12, r2, #14, #2
	.loc	9 1746 59                       @ ../../../../Library/StdDriver/src/clk.c:1746:59
	ubfx	lr, r2, #9, #5
	.loc	9 1749 51                       @ ../../../../Library/StdDriver/src/clk.c:1749:51
	and.w	r2, r3, r2, lsl #1
.Ltmp52:
	.loc	9 1744 21                       @ ../../../../Library/StdDriver/src/clk.c:1744:21
	movw	r3, :lower16:.L__const.CLK_GetAPLL1ClockFreq.au8NoTbl
	movt	r3, :upper16:.L__const.CLK_GetAPLL1ClockFreq.au8NoTbl
	.loc	9 1749 51                       @ ../../../../Library/StdDriver/src/clk.c:1749:51
	adds	r2, #4
	.loc	9 1744 21                       @ ../../../../Library/StdDriver/src/clk.c:1744:21
	ldrb.w	r12, [r3, r12]
.Ltmp53:
	@DEBUG_VALUE: CLK_GetAPLL0ClockFreq:u32NO <- $r12
	@DEBUG_VALUE: CLK_GetAPLL0ClockFreq:u32NF <- [DW_OP_constu 511, DW_OP_and, DW_OP_plus_uconst 2, DW_OP_stack_value] undef
	.loc	9 1746 86                       @ ../../../../Library/StdDriver/src/clk.c:1746:86
	add.w	r3, lr, #1
.Ltmp54:
	@DEBUG_VALUE: CLK_GetAPLL0ClockFreq:u32NR <- $r3
	.loc	9 1749 42                       @ ../../../../Library/StdDriver/src/clk.c:1749:42
	muls	r0, r2, r0
	.loc	9 1749 67 is_stmt 0             @ ../../../../Library/StdDriver/src/clk.c:1749:67
	mul	r2, r3, r12
	.loc	9 1749 58                       @ ../../../../Library/StdDriver/src/clk.c:1749:58
	udiv	r0, r0, r2
	.loc	9 1749 76                       @ ../../../../Library/StdDriver/src/clk.c:1749:76
	lsls	r0, r0, #2
.Ltmp55:
	@DEBUG_VALUE: CLK_GetAPLL0ClockFreq:u32PllFreq <- $r0
.LBB6_4:
	.loc	9 1823 14 is_stmt 1             @ ../../../../Library/StdDriver/src/clk.c:1823:14
	movw	r2, :lower16:PllClock
	movt	r2, :upper16:PllClock
	str	r0, [r2]
	.loc	9 1825 22                       @ ../../../../Library/StdDriver/src/clk.c:1825:22
	ldr.w	r1, [r1, #1024]
	.loc	9 1825 30 is_stmt 0             @ ../../../../Library/StdDriver/src/clk.c:1825:30
	and	r1, r1, #7
.Ltmp56:
	@DEBUG_VALUE: CLK_SystemClockUpdate:u32ClkSrc <- $r1
	.loc	9 1827 9 is_stmt 1              @ ../../../../Library/StdDriver/src/clk.c:1827:9
	cmp	r1, #4
.Ltmp57:
	@DEBUG_VALUE: CLK_GetHCLK0Freq:u32Hclk0 <- $r0
	.loc	9 346 5                         @ ../../../../Library/StdDriver/src/clk.c:346:5
	it	eq
	popeq	{r7, pc}
.Ltmp58:
.LBB6_5:
	@DEBUG_VALUE: CLK_SystemClockUpdate:u32ClkSrc <- $r1
	@DEBUG_VALUE: CLK_GetHCLK0Freq:u32Hclk0 <- $r0
	.loc	9 1827 9                        @ ../../../../Library/StdDriver/src/clk.c:1827:9
	cmp	r1, #1
	bne	.LBB6_7
.Ltmp59:
@ %bb.6:
	@DEBUG_VALUE: CLK_GetHCLK0Freq:u32Hclk0 <- $r0
	.loc	9 0 9 is_stmt 0                 @ ../../../../Library/StdDriver/src/clk.c:0:9
	movw	r0, #16960
.Ltmp60:
	movt	r0, #15
	@DEBUG_VALUE: CLK_SystemClockUpdate:SystemClock <- 1000000
.Ltmp61:
	@DEBUG_VALUE: CLK_GetHCLK0Freq:u32Hclk0 <- $r0
	.loc	9 346 5 is_stmt 1               @ ../../../../Library/StdDriver/src/clk.c:346:5
	pop	{r7, pc}
.Ltmp62:
.LBB6_7:
	@DEBUG_VALUE: CLK_SystemClockUpdate:u32ClkSrc <- $r1
	@DEBUG_VALUE: CLK_GetHCLK0Freq:u32Hclk0 <- $r0
	.loc	9 1840 23                       @ ../../../../Library/StdDriver/src/clk.c:1840:23
	movw	r0, :lower16:.L__const.CLK_SystemClockUpdate.gau32ClkSrcTbl
.Ltmp63:
	movt	r0, :upper16:.L__const.CLK_SystemClockUpdate.gau32ClkSrcTbl
	ldr.w	r0, [r0, r1, lsl #2]
.Ltmp64:
	@DEBUG_VALUE: CLK_SystemClockUpdate:SystemClock <- $r0
	@DEBUG_VALUE: CLK_GetHCLK0Freq:u32Hclk0 <- $r0
	.loc	9 346 5                         @ ../../../../Library/StdDriver/src/clk.c:346:5
	pop	{r7, pc}
.Ltmp65:
.Lfunc_end6:
	.size	CLK_GetHCLK0Freq, .Lfunc_end6-CLK_GetHCLK0Freq
	.cfi_endproc
	.cantunwind
	.fnend
                                        @ -- End function
	.section	.text.CLK_GetPCLK1Freq,"ax",%progbits
	.hidden	CLK_GetPCLK1Freq                @ -- Begin function CLK_GetPCLK1Freq
	.globl	CLK_GetPCLK1Freq
	.p2align	2
	.type	CLK_GetPCLK1Freq,%function
	.code	16                              @ @CLK_GetPCLK1Freq
	.thumb_func
CLK_GetPCLK1Freq:
.Lfunc_begin7:
	.loc	9 232 0                         @ ../../../../Library/StdDriver/src/clk.c:232:0
	.fnstart
	.cfi_startproc
@ %bb.0:
	.save	{r7, lr}
	push	{r7, lr}
	.cfi_def_cfa_offset 8
	.cfi_offset lr, -4
	.cfi_offset r7, -8
	movw	r1, #4096
	movt	r1, #16384
.Ltmp66:
	@DEBUG_VALUE: CLK_GetAPLL0ClockFreq:u32PllFreq <- 0
	.loc	9 1713 22 prologue_end          @ ../../../../Library/StdDriver/src/clk.c:1713:22
	ldr	r2, [r1, #24]
.Ltmp67:
	@DEBUG_VALUE: CLK_GetAPLL0ClockFreq:u32PllReg <- $r2
	.loc	9 1714 23                       @ ../../../../Library/StdDriver/src/clk.c:1714:23
	ldr	r0, [r1, #28]
.Ltmp68:
	@DEBUG_VALUE: CLK_GetAPLL0ClockFreq:u32PllReg1 <- $r0
	.loc	9 1716 16                       @ ../../../../Library/StdDriver/src/clk.c:1716:16
	ldr	r3, [r1]
.Ltmp69:
	.loc	9 1716 9 is_stmt 0              @ ../../../../Library/StdDriver/src/clk.c:1716:9
	lsls	r3, r3, #25
	bmi	.LBB7_2
.Ltmp70:
@ %bb.1:
	@DEBUG_VALUE: CLK_GetAPLL0ClockFreq:u32PllReg <- $r2
	@DEBUG_VALUE: CLK_GetAPLL0ClockFreq:u32PllReg1 <- $r0
	@DEBUG_VALUE: CLK_GetAPLL0ClockFreq:u32PllFreq <- 0
	.loc	9 0 9                           @ ../../../../Library/StdDriver/src/clk.c:0:9
	movs	r0, #0
.Ltmp71:
	b	.LBB7_4
.Ltmp72:
.LBB7_2:
	@DEBUG_VALUE: CLK_GetAPLL0ClockFreq:u32PllReg <- $r2
	@DEBUG_VALUE: CLK_GetAPLL0ClockFreq:u32PllReg1 <- $r0
	@DEBUG_VALUE: CLK_GetAPLL0ClockFreq:u32PllFreq <- 0
	.loc	9 1723 13 is_stmt 1             @ ../../../../Library/StdDriver/src/clk.c:1723:13
	lsls	r0, r0, #30
.Ltmp73:
	.loc	9 0 13 is_stmt 0                @ ../../../../Library/StdDriver/src/clk.c:0:13
	movw	r0, #6912
	movt	r0, #183
	.loc	9 1723 13                       @ ../../../../Library/StdDriver/src/clk.c:1723:13
	itt	eq
	movweq	r0, #13824
	movteq	r0, #366
.Ltmp74:
	@DEBUG_VALUE: CLK_GetAPLL0ClockFreq:u32FIN <- $r0
	.loc	9 1737 13 is_stmt 1             @ ../../../../Library/StdDriver/src/clk.c:1737:13
	lsls	r3, r2, #1
	bmi	.LBB7_4
.Ltmp75:
@ %bb.3:
	@DEBUG_VALUE: CLK_GetAPLL0ClockFreq:u32PllReg <- $r2
	@DEBUG_VALUE: CLK_GetAPLL0ClockFreq:u32FIN <- $r0
	@DEBUG_VALUE: CLK_GetAPLL0ClockFreq:u32PllFreq <- 0
	.loc	9 0 13 is_stmt 0                @ ../../../../Library/StdDriver/src/clk.c:0:13
	movw	r3, #1022
.Ltmp76:
	.loc	9 1749 36 is_stmt 1             @ ../../../../Library/StdDriver/src/clk.c:1749:36
	lsrs	r0, r0, #2
.Ltmp77:
	.loc	9 1744 69                       @ ../../../../Library/StdDriver/src/clk.c:1744:69
	ubfx	r12, r2, #14, #2
	.loc	9 1746 59                       @ ../../../../Library/StdDriver/src/clk.c:1746:59
	ubfx	lr, r2, #9, #5
	.loc	9 1749 51                       @ ../../../../Library/StdDriver/src/clk.c:1749:51
	and.w	r2, r3, r2, lsl #1
.Ltmp78:
	.loc	9 1744 21                       @ ../../../../Library/StdDriver/src/clk.c:1744:21
	movw	r3, :lower16:.L__const.CLK_GetAPLL1ClockFreq.au8NoTbl
	movt	r3, :upper16:.L__const.CLK_GetAPLL1ClockFreq.au8NoTbl
	.loc	9 1749 51                       @ ../../../../Library/StdDriver/src/clk.c:1749:51
	adds	r2, #4
	.loc	9 1744 21                       @ ../../../../Library/StdDriver/src/clk.c:1744:21
	ldrb.w	r12, [r3, r12]
.Ltmp79:
	@DEBUG_VALUE: CLK_GetAPLL0ClockFreq:u32NO <- $r12
	@DEBUG_VALUE: CLK_GetAPLL0ClockFreq:u32NF <- [DW_OP_constu 511, DW_OP_and, DW_OP_plus_uconst 2, DW_OP_stack_value] undef
	.loc	9 1746 86                       @ ../../../../Library/StdDriver/src/clk.c:1746:86
	add.w	r3, lr, #1
.Ltmp80:
	@DEBUG_VALUE: CLK_GetAPLL0ClockFreq:u32NR <- $r3
	.loc	9 1749 42                       @ ../../../../Library/StdDriver/src/clk.c:1749:42
	muls	r0, r2, r0
	.loc	9 1749 67 is_stmt 0             @ ../../../../Library/StdDriver/src/clk.c:1749:67
	mul	r2, r3, r12
	.loc	9 1749 58                       @ ../../../../Library/StdDriver/src/clk.c:1749:58
	udiv	r0, r0, r2
	.loc	9 1749 76                       @ ../../../../Library/StdDriver/src/clk.c:1749:76
	lsls	r0, r0, #2
.Ltmp81:
	@DEBUG_VALUE: CLK_GetAPLL0ClockFreq:u32PllFreq <- $r0
.LBB7_4:
	.loc	9 1823 14 is_stmt 1             @ ../../../../Library/StdDriver/src/clk.c:1823:14
	movw	r2, :lower16:PllClock
	movt	r2, :upper16:PllClock
	str	r0, [r2]
	.loc	9 1825 22                       @ ../../../../Library/StdDriver/src/clk.c:1825:22
	ldr.w	r1, [r1, #1024]
	.loc	9 1825 30 is_stmt 0             @ ../../../../Library/StdDriver/src/clk.c:1825:30
	and	r1, r1, #7
.Ltmp82:
	@DEBUG_VALUE: CLK_SystemClockUpdate:u32ClkSrc <- $r1
	.loc	9 1827 9 is_stmt 1              @ ../../../../Library/StdDriver/src/clk.c:1827:9
	cmp	r1, #4
	beq	.LBB7_8
.Ltmp83:
@ %bb.5:
	@DEBUG_VALUE: CLK_SystemClockUpdate:u32ClkSrc <- $r1
	cmp	r1, #1
	bne	.LBB7_7
.Ltmp84:
@ %bb.6:
	@DEBUG_VALUE: CLK_SystemClockUpdate:u32ClkSrc <- $r1
	.loc	9 0 9 is_stmt 0                 @ ../../../../Library/StdDriver/src/clk.c:0:9
	movw	r0, #16960
	movt	r0, #15
.Ltmp85:
	@DEBUG_VALUE: CLK_SystemClockUpdate:SystemClock <- 1000000
	.loc	9 1836 5 is_stmt 1              @ ../../../../Library/StdDriver/src/clk.c:1836:5
	b	.LBB7_8
.Ltmp86:
.LBB7_7:
	@DEBUG_VALUE: CLK_SystemClockUpdate:u32ClkSrc <- $r1
	.loc	9 1840 23                       @ ../../../../Library/StdDriver/src/clk.c:1840:23
	movw	r0, :lower16:.L__const.CLK_SystemClockUpdate.gau32ClkSrcTbl
	movt	r0, :upper16:.L__const.CLK_SystemClockUpdate.gau32ClkSrcTbl
	ldr.w	r0, [r0, r1, lsl #2]
.Ltmp87:
	@DEBUG_VALUE: CLK_SystemClockUpdate:SystemClock <- $r0
.LBB7_8:
	@DEBUG_VALUE: CLK_GetHCLK0Freq:u32Hclk0 <- $r0
	@DEBUG_VALUE: CLK_GetPCLK1Freq:u32Hclk1Freq <- $r0
	.loc	9 0 23 is_stmt 0                @ ../../../../Library/StdDriver/src/clk.c:0:23
	movw	r1, #5388
	movt	r1, #16384
	.loc	9 237 38 is_stmt 1              @ ../../../../Library/StdDriver/src/clk.c:237:38
	ldr	r1, [r1]
	.loc	9 237 74 is_stmt 0              @ ../../../../Library/StdDriver/src/clk.c:237:74
	ubfx	r1, r1, #4, #4
	.loc	9 237 103                       @ ../../../../Library/StdDriver/src/clk.c:237:103
	adds	r1, #1
	.loc	9 237 28                        @ ../../../../Library/StdDriver/src/clk.c:237:28
	udiv	r0, r0, r1
.Ltmp88:
	@DEBUG_VALUE: CLK_GetPCLK1Freq:u32Freq <- $r0
	.loc	9 239 5 is_stmt 1               @ ../../../../Library/StdDriver/src/clk.c:239:5
	pop	{r7, pc}
.Ltmp89:
.Lfunc_end7:
	.size	CLK_GetPCLK1Freq, .Lfunc_end7-CLK_GetPCLK1Freq
	.cfi_endproc
	.cantunwind
	.fnend
                                        @ -- End function
	.section	.text.CLK_GetPCLK2Freq,"ax",%progbits
	.hidden	CLK_GetPCLK2Freq                @ -- Begin function CLK_GetPCLK2Freq
	.globl	CLK_GetPCLK2Freq
	.p2align	2
	.type	CLK_GetPCLK2Freq,%function
	.code	16                              @ @CLK_GetPCLK2Freq
	.thumb_func
CLK_GetPCLK2Freq:
.Lfunc_begin8:
	.loc	9 249 0                         @ ../../../../Library/StdDriver/src/clk.c:249:0
	.fnstart
	.cfi_startproc
@ %bb.0:
	.save	{r7, lr}
	push	{r7, lr}
	.cfi_def_cfa_offset 8
	.cfi_offset lr, -4
	.cfi_offset r7, -8
	movw	r1, #4096
	movt	r1, #16384
.Ltmp90:
	@DEBUG_VALUE: CLK_GetAPLL0ClockFreq:u32PllFreq <- 0
	.loc	9 1713 22 prologue_end          @ ../../../../Library/StdDriver/src/clk.c:1713:22
	ldr	r2, [r1, #24]
.Ltmp91:
	@DEBUG_VALUE: CLK_GetAPLL0ClockFreq:u32PllReg <- $r2
	.loc	9 1714 23                       @ ../../../../Library/StdDriver/src/clk.c:1714:23
	ldr	r0, [r1, #28]
.Ltmp92:
	@DEBUG_VALUE: CLK_GetAPLL0ClockFreq:u32PllReg1 <- $r0
	.loc	9 1716 16                       @ ../../../../Library/StdDriver/src/clk.c:1716:16
	ldr	r3, [r1]
.Ltmp93:
	.loc	9 1716 9 is_stmt 0              @ ../../../../Library/StdDriver/src/clk.c:1716:9
	lsls	r3, r3, #25
	bmi	.LBB8_2
.Ltmp94:
@ %bb.1:
	@DEBUG_VALUE: CLK_GetAPLL0ClockFreq:u32PllReg <- $r2
	@DEBUG_VALUE: CLK_GetAPLL0ClockFreq:u32PllReg1 <- $r0
	@DEBUG_VALUE: CLK_GetAPLL0ClockFreq:u32PllFreq <- 0
	.loc	9 0 9                           @ ../../../../Library/StdDriver/src/clk.c:0:9
	movs	r0, #0
.Ltmp95:
	b	.LBB8_4
.Ltmp96:
.LBB8_2:
	@DEBUG_VALUE: CLK_GetAPLL0ClockFreq:u32PllReg <- $r2
	@DEBUG_VALUE: CLK_GetAPLL0ClockFreq:u32PllReg1 <- $r0
	@DEBUG_VALUE: CLK_GetAPLL0ClockFreq:u32PllFreq <- 0
	.loc	9 1723 13 is_stmt 1             @ ../../../../Library/StdDriver/src/clk.c:1723:13
	lsls	r0, r0, #30
.Ltmp97:
	.loc	9 0 13 is_stmt 0                @ ../../../../Library/StdDriver/src/clk.c:0:13
	movw	r0, #6912
	movt	r0, #183
	.loc	9 1723 13                       @ ../../../../Library/StdDriver/src/clk.c:1723:13
	itt	eq
	movweq	r0, #13824
	movteq	r0, #366
.Ltmp98:
	@DEBUG_VALUE: CLK_GetAPLL0ClockFreq:u32FIN <- $r0
	.loc	9 1737 13 is_stmt 1             @ ../../../../Library/StdDriver/src/clk.c:1737:13
	lsls	r3, r2, #1
	bmi	.LBB8_4
.Ltmp99:
@ %bb.3:
	@DEBUG_VALUE: CLK_GetAPLL0ClockFreq:u32PllReg <- $r2
	@DEBUG_VALUE: CLK_GetAPLL0ClockFreq:u32FIN <- $r0
	@DEBUG_VALUE: CLK_GetAPLL0ClockFreq:u32PllFreq <- 0
	.loc	9 0 13 is_stmt 0                @ ../../../../Library/StdDriver/src/clk.c:0:13
	movw	r3, #1022
.Ltmp100:
	.loc	9 1749 36 is_stmt 1             @ ../../../../Library/StdDriver/src/clk.c:1749:36
	lsrs	r0, r0, #2
.Ltmp101:
	.loc	9 1744 69                       @ ../../../../Library/StdDriver/src/clk.c:1744:69
	ubfx	r12, r2, #14, #2
	.loc	9 1746 59                       @ ../../../../Library/StdDriver/src/clk.c:1746:59
	ubfx	lr, r2, #9, #5
	.loc	9 1749 51                       @ ../../../../Library/StdDriver/src/clk.c:1749:51
	and.w	r2, r3, r2, lsl #1
.Ltmp102:
	.loc	9 1744 21                       @ ../../../../Library/StdDriver/src/clk.c:1744:21
	movw	r3, :lower16:.L__const.CLK_GetAPLL1ClockFreq.au8NoTbl
	movt	r3, :upper16:.L__const.CLK_GetAPLL1ClockFreq.au8NoTbl
	.loc	9 1749 51                       @ ../../../../Library/StdDriver/src/clk.c:1749:51
	adds	r2, #4
	.loc	9 1744 21                       @ ../../../../Library/StdDriver/src/clk.c:1744:21
	ldrb.w	r12, [r3, r12]
.Ltmp103:
	@DEBUG_VALUE: CLK_GetAPLL0ClockFreq:u32NO <- $r12
	@DEBUG_VALUE: CLK_GetAPLL0ClockFreq:u32NF <- [DW_OP_constu 511, DW_OP_and, DW_OP_plus_uconst 2, DW_OP_stack_value] undef
	.loc	9 1746 86                       @ ../../../../Library/StdDriver/src/clk.c:1746:86
	add.w	r3, lr, #1
.Ltmp104:
	@DEBUG_VALUE: CLK_GetAPLL0ClockFreq:u32NR <- $r3
	.loc	9 1749 42                       @ ../../../../Library/StdDriver/src/clk.c:1749:42
	muls	r0, r2, r0
	.loc	9 1749 67 is_stmt 0             @ ../../../../Library/StdDriver/src/clk.c:1749:67
	mul	r2, r3, r12
	.loc	9 1749 58                       @ ../../../../Library/StdDriver/src/clk.c:1749:58
	udiv	r0, r0, r2
	.loc	9 1749 76                       @ ../../../../Library/StdDriver/src/clk.c:1749:76
	lsls	r0, r0, #2
.Ltmp105:
	@DEBUG_VALUE: CLK_GetAPLL0ClockFreq:u32PllFreq <- $r0
.LBB8_4:
	.loc	9 1823 14 is_stmt 1             @ ../../../../Library/StdDriver/src/clk.c:1823:14
	movw	r2, :lower16:PllClock
	movt	r2, :upper16:PllClock
	str	r0, [r2]
	.loc	9 1825 22                       @ ../../../../Library/StdDriver/src/clk.c:1825:22
	ldr.w	r1, [r1, #1024]
	.loc	9 1825 30 is_stmt 0             @ ../../../../Library/StdDriver/src/clk.c:1825:30
	and	r1, r1, #7
.Ltmp106:
	@DEBUG_VALUE: CLK_SystemClockUpdate:u32ClkSrc <- $r1
	.loc	9 1827 9 is_stmt 1              @ ../../../../Library/StdDriver/src/clk.c:1827:9
	cmp	r1, #4
	beq	.LBB8_8
.Ltmp107:
@ %bb.5:
	@DEBUG_VALUE: CLK_SystemClockUpdate:u32ClkSrc <- $r1
	cmp	r1, #1
	bne	.LBB8_7
.Ltmp108:
@ %bb.6:
	@DEBUG_VALUE: CLK_SystemClockUpdate:u32ClkSrc <- $r1
	.loc	9 0 9 is_stmt 0                 @ ../../../../Library/StdDriver/src/clk.c:0:9
	movw	r0, #16960
	movt	r0, #15
.Ltmp109:
	@DEBUG_VALUE: CLK_SystemClockUpdate:SystemClock <- 1000000
	.loc	9 1836 5 is_stmt 1              @ ../../../../Library/StdDriver/src/clk.c:1836:5
	b	.LBB8_8
.Ltmp110:
.LBB8_7:
	@DEBUG_VALUE: CLK_SystemClockUpdate:u32ClkSrc <- $r1
	.loc	9 1840 23                       @ ../../../../Library/StdDriver/src/clk.c:1840:23
	movw	r0, :lower16:.L__const.CLK_SystemClockUpdate.gau32ClkSrcTbl
	movt	r0, :upper16:.L__const.CLK_SystemClockUpdate.gau32ClkSrcTbl
	ldr.w	r0, [r0, r1, lsl #2]
.Ltmp111:
	@DEBUG_VALUE: CLK_SystemClockUpdate:SystemClock <- $r0
.LBB8_8:
	@DEBUG_VALUE: CLK_GetHCLK0Freq:u32Hclk0 <- $r0
	@DEBUG_VALUE: CLK_GetPCLK2Freq:u32Hclk2Freq <- $r0
	.loc	9 0 23 is_stmt 0                @ ../../../../Library/StdDriver/src/clk.c:0:23
	movw	r1, #5388
	movt	r1, #16384
	.loc	9 254 38 is_stmt 1              @ ../../../../Library/StdDriver/src/clk.c:254:38
	ldr	r1, [r1]
	.loc	9 254 74 is_stmt 0              @ ../../../../Library/StdDriver/src/clk.c:254:74
	ubfx	r1, r1, #8, #4
	.loc	9 254 103                       @ ../../../../Library/StdDriver/src/clk.c:254:103
	adds	r1, #1
	.loc	9 254 28                        @ ../../../../Library/StdDriver/src/clk.c:254:28
	udiv	r0, r0, r1
.Ltmp112:
	@DEBUG_VALUE: CLK_GetPCLK2Freq:u32Freq <- $r0
	.loc	9 256 5 is_stmt 1               @ ../../../../Library/StdDriver/src/clk.c:256:5
	pop	{r7, pc}
.Ltmp113:
.Lfunc_end8:
	.size	CLK_GetPCLK2Freq, .Lfunc_end8-CLK_GetPCLK2Freq
	.cfi_endproc
	.cantunwind
	.fnend
                                        @ -- End function
	.section	.text.CLK_GetPCLK3Freq,"ax",%progbits
	.hidden	CLK_GetPCLK3Freq                @ -- Begin function CLK_GetPCLK3Freq
	.globl	CLK_GetPCLK3Freq
	.p2align	2
	.type	CLK_GetPCLK3Freq,%function
	.code	16                              @ @CLK_GetPCLK3Freq
	.thumb_func
CLK_GetPCLK3Freq:
.Lfunc_begin9:
	.loc	9 266 0                         @ ../../../../Library/StdDriver/src/clk.c:266:0
	.fnstart
	.cfi_startproc
@ %bb.0:
	.save	{r7, lr}
	push	{r7, lr}
	.cfi_def_cfa_offset 8
	.cfi_offset lr, -4
	.cfi_offset r7, -8
	movw	r1, #4096
	movt	r1, #16384
.Ltmp114:
	@DEBUG_VALUE: CLK_GetAPLL0ClockFreq:u32PllFreq <- 0
	.loc	9 1713 22 prologue_end          @ ../../../../Library/StdDriver/src/clk.c:1713:22
	ldr	r2, [r1, #24]
.Ltmp115:
	@DEBUG_VALUE: CLK_GetAPLL0ClockFreq:u32PllReg <- $r2
	.loc	9 1714 23                       @ ../../../../Library/StdDriver/src/clk.c:1714:23
	ldr	r0, [r1, #28]
.Ltmp116:
	@DEBUG_VALUE: CLK_GetAPLL0ClockFreq:u32PllReg1 <- $r0
	.loc	9 1716 16                       @ ../../../../Library/StdDriver/src/clk.c:1716:16
	ldr	r3, [r1]
.Ltmp117:
	.loc	9 1716 9 is_stmt 0              @ ../../../../Library/StdDriver/src/clk.c:1716:9
	lsls	r3, r3, #25
	bmi	.LBB9_2
.Ltmp118:
@ %bb.1:
	@DEBUG_VALUE: CLK_GetAPLL0ClockFreq:u32PllReg <- $r2
	@DEBUG_VALUE: CLK_GetAPLL0ClockFreq:u32PllReg1 <- $r0
	@DEBUG_VALUE: CLK_GetAPLL0ClockFreq:u32PllFreq <- 0
	.loc	9 0 9                           @ ../../../../Library/StdDriver/src/clk.c:0:9
	movs	r0, #0
.Ltmp119:
	b	.LBB9_4
.Ltmp120:
.LBB9_2:
	@DEBUG_VALUE: CLK_GetAPLL0ClockFreq:u32PllReg <- $r2
	@DEBUG_VALUE: CLK_GetAPLL0ClockFreq:u32PllReg1 <- $r0
	@DEBUG_VALUE: CLK_GetAPLL0ClockFreq:u32PllFreq <- 0
	.loc	9 1723 13 is_stmt 1             @ ../../../../Library/StdDriver/src/clk.c:1723:13
	lsls	r0, r0, #30
.Ltmp121:
	.loc	9 0 13 is_stmt 0                @ ../../../../Library/StdDriver/src/clk.c:0:13
	movw	r0, #6912
	movt	r0, #183
	.loc	9 1723 13                       @ ../../../../Library/StdDriver/src/clk.c:1723:13
	itt	eq
	movweq	r0, #13824
	movteq	r0, #366
.Ltmp122:
	@DEBUG_VALUE: CLK_GetAPLL0ClockFreq:u32FIN <- $r0
	.loc	9 1737 13 is_stmt 1             @ ../../../../Library/StdDriver/src/clk.c:1737:13
	lsls	r3, r2, #1
	bmi	.LBB9_4
.Ltmp123:
@ %bb.3:
	@DEBUG_VALUE: CLK_GetAPLL0ClockFreq:u32PllReg <- $r2
	@DEBUG_VALUE: CLK_GetAPLL0ClockFreq:u32FIN <- $r0
	@DEBUG_VALUE: CLK_GetAPLL0ClockFreq:u32PllFreq <- 0
	.loc	9 0 13 is_stmt 0                @ ../../../../Library/StdDriver/src/clk.c:0:13
	movw	r3, #1022
.Ltmp124:
	.loc	9 1749 36 is_stmt 1             @ ../../../../Library/StdDriver/src/clk.c:1749:36
	lsrs	r0, r0, #2
.Ltmp125:
	.loc	9 1744 69                       @ ../../../../Library/StdDriver/src/clk.c:1744:69
	ubfx	r12, r2, #14, #2
	.loc	9 1746 59                       @ ../../../../Library/StdDriver/src/clk.c:1746:59
	ubfx	lr, r2, #9, #5
	.loc	9 1749 51                       @ ../../../../Library/StdDriver/src/clk.c:1749:51
	and.w	r2, r3, r2, lsl #1
.Ltmp126:
	.loc	9 1744 21                       @ ../../../../Library/StdDriver/src/clk.c:1744:21
	movw	r3, :lower16:.L__const.CLK_GetAPLL1ClockFreq.au8NoTbl
	movt	r3, :upper16:.L__const.CLK_GetAPLL1ClockFreq.au8NoTbl
	.loc	9 1749 51                       @ ../../../../Library/StdDriver/src/clk.c:1749:51
	adds	r2, #4
	.loc	9 1744 21                       @ ../../../../Library/StdDriver/src/clk.c:1744:21
	ldrb.w	r12, [r3, r12]
.Ltmp127:
	@DEBUG_VALUE: CLK_GetAPLL0ClockFreq:u32NO <- $r12
	@DEBUG_VALUE: CLK_GetAPLL0ClockFreq:u32NF <- [DW_OP_constu 511, DW_OP_and, DW_OP_plus_uconst 2, DW_OP_stack_value] undef
	.loc	9 1746 86                       @ ../../../../Library/StdDriver/src/clk.c:1746:86
	add.w	r3, lr, #1
.Ltmp128:
	@DEBUG_VALUE: CLK_GetAPLL0ClockFreq:u32NR <- $r3
	.loc	9 1749 42                       @ ../../../../Library/StdDriver/src/clk.c:1749:42
	muls	r0, r2, r0
	.loc	9 1749 67 is_stmt 0             @ ../../../../Library/StdDriver/src/clk.c:1749:67
	mul	r2, r3, r12
	.loc	9 1749 58                       @ ../../../../Library/StdDriver/src/clk.c:1749:58
	udiv	r0, r0, r2
	.loc	9 1749 76                       @ ../../../../Library/StdDriver/src/clk.c:1749:76
	lsls	r0, r0, #2
.Ltmp129:
	@DEBUG_VALUE: CLK_GetAPLL0ClockFreq:u32PllFreq <- $r0
.LBB9_4:
	.loc	9 1823 14 is_stmt 1             @ ../../../../Library/StdDriver/src/clk.c:1823:14
	movw	r2, :lower16:PllClock
	movt	r2, :upper16:PllClock
	str	r0, [r2]
	.loc	9 1825 22                       @ ../../../../Library/StdDriver/src/clk.c:1825:22
	ldr.w	r1, [r1, #1024]
	.loc	9 1825 30 is_stmt 0             @ ../../../../Library/StdDriver/src/clk.c:1825:30
	and	r1, r1, #7
.Ltmp130:
	@DEBUG_VALUE: CLK_SystemClockUpdate:u32ClkSrc <- $r1
	.loc	9 1827 9 is_stmt 1              @ ../../../../Library/StdDriver/src/clk.c:1827:9
	cmp	r1, #4
	beq	.LBB9_8
.Ltmp131:
@ %bb.5:
	@DEBUG_VALUE: CLK_SystemClockUpdate:u32ClkSrc <- $r1
	cmp	r1, #1
	bne	.LBB9_7
.Ltmp132:
@ %bb.6:
	@DEBUG_VALUE: CLK_SystemClockUpdate:u32ClkSrc <- $r1
	.loc	9 0 9 is_stmt 0                 @ ../../../../Library/StdDriver/src/clk.c:0:9
	movw	r0, #16960
	movt	r0, #15
.Ltmp133:
	@DEBUG_VALUE: CLK_SystemClockUpdate:SystemClock <- 1000000
	.loc	9 1836 5 is_stmt 1              @ ../../../../Library/StdDriver/src/clk.c:1836:5
	b	.LBB9_8
.Ltmp134:
.LBB9_7:
	@DEBUG_VALUE: CLK_SystemClockUpdate:u32ClkSrc <- $r1
	.loc	9 1840 23                       @ ../../../../Library/StdDriver/src/clk.c:1840:23
	movw	r0, :lower16:.L__const.CLK_SystemClockUpdate.gau32ClkSrcTbl
	movt	r0, :upper16:.L__const.CLK_SystemClockUpdate.gau32ClkSrcTbl
	ldr.w	r0, [r0, r1, lsl #2]
.Ltmp135:
	@DEBUG_VALUE: CLK_SystemClockUpdate:SystemClock <- $r0
.LBB9_8:
	@DEBUG_VALUE: CLK_GetHCLK0Freq:u32Hclk0 <- $r0
	@DEBUG_VALUE: CLK_GetPCLK3Freq:u32Hclk3Freq <- $r0
	.loc	9 0 23 is_stmt 0                @ ../../../../Library/StdDriver/src/clk.c:0:23
	movw	r1, #5388
	movt	r1, #16384
	.loc	9 271 38 is_stmt 1              @ ../../../../Library/StdDriver/src/clk.c:271:38
	ldr	r1, [r1]
	.loc	9 271 74 is_stmt 0              @ ../../../../Library/StdDriver/src/clk.c:271:74
	ubfx	r1, r1, #12, #4
	.loc	9 271 103                       @ ../../../../Library/StdDriver/src/clk.c:271:103
	adds	r1, #1
	.loc	9 271 28                        @ ../../../../Library/StdDriver/src/clk.c:271:28
	udiv	r0, r0, r1
.Ltmp136:
	@DEBUG_VALUE: CLK_GetPCLK3Freq:u32Freq <- $r0
	.loc	9 273 5 is_stmt 1               @ ../../../../Library/StdDriver/src/clk.c:273:5
	pop	{r7, pc}
.Ltmp137:
.Lfunc_end9:
	.size	CLK_GetPCLK3Freq, .Lfunc_end9-CLK_GetPCLK3Freq
	.cfi_endproc
	.cantunwind
	.fnend
                                        @ -- End function
	.section	.text.CLK_GetPCLK4Freq,"ax",%progbits
	.hidden	CLK_GetPCLK4Freq                @ -- Begin function CLK_GetPCLK4Freq
	.globl	CLK_GetPCLK4Freq
	.p2align	2
	.type	CLK_GetPCLK4Freq,%function
	.code	16                              @ @CLK_GetPCLK4Freq
	.thumb_func
CLK_GetPCLK4Freq:
.Lfunc_begin10:
	.loc	9 283 0                         @ ../../../../Library/StdDriver/src/clk.c:283:0
	.fnstart
	.cfi_startproc
@ %bb.0:
	.save	{r7, lr}
	push	{r7, lr}
	.cfi_def_cfa_offset 8
	.cfi_offset lr, -4
	.cfi_offset r7, -8
	movw	r0, #4096
	movt	r0, #16384
.Ltmp138:
	@DEBUG_VALUE: CLK_GetAPLL0ClockFreq:u32PllFreq <- 0
	.loc	9 1713 22 prologue_end          @ ../../../../Library/StdDriver/src/clk.c:1713:22
	ldr	r2, [r0, #24]
.Ltmp139:
	@DEBUG_VALUE: CLK_GetAPLL0ClockFreq:u32PllReg <- $r2
	.loc	9 1714 23                       @ ../../../../Library/StdDriver/src/clk.c:1714:23
	ldr	r1, [r0, #28]
.Ltmp140:
	@DEBUG_VALUE: CLK_GetAPLL0ClockFreq:u32PllReg1 <- $r1
	.loc	9 1716 16                       @ ../../../../Library/StdDriver/src/clk.c:1716:16
	ldr	r3, [r0]
.Ltmp141:
	.loc	9 1716 9 is_stmt 0              @ ../../../../Library/StdDriver/src/clk.c:1716:9
	lsls	r3, r3, #25
	bmi	.LBB10_2
.Ltmp142:
@ %bb.1:
	@DEBUG_VALUE: CLK_GetAPLL0ClockFreq:u32PllReg <- $r2
	@DEBUG_VALUE: CLK_GetAPLL0ClockFreq:u32PllReg1 <- $r1
	@DEBUG_VALUE: CLK_GetAPLL0ClockFreq:u32PllFreq <- 0
	.loc	9 0 9                           @ ../../../../Library/StdDriver/src/clk.c:0:9
	movs	r1, #0
.Ltmp143:
	b	.LBB10_4
.Ltmp144:
.LBB10_2:
	@DEBUG_VALUE: CLK_GetAPLL0ClockFreq:u32PllReg <- $r2
	@DEBUG_VALUE: CLK_GetAPLL0ClockFreq:u32PllReg1 <- $r1
	@DEBUG_VALUE: CLK_GetAPLL0ClockFreq:u32PllFreq <- 0
	.loc	9 1723 13 is_stmt 1             @ ../../../../Library/StdDriver/src/clk.c:1723:13
	lsls	r1, r1, #30
.Ltmp145:
	.loc	9 0 13 is_stmt 0                @ ../../../../Library/StdDriver/src/clk.c:0:13
	movw	r1, #6912
	movt	r1, #183
	.loc	9 1723 13                       @ ../../../../Library/StdDriver/src/clk.c:1723:13
	itt	eq
	movweq	r1, #13824
	movteq	r1, #366
.Ltmp146:
	@DEBUG_VALUE: CLK_GetAPLL0ClockFreq:u32FIN <- $r1
	.loc	9 1737 13 is_stmt 1             @ ../../../../Library/StdDriver/src/clk.c:1737:13
	lsls	r3, r2, #1
	bmi	.LBB10_4
.Ltmp147:
@ %bb.3:
	@DEBUG_VALUE: CLK_GetAPLL0ClockFreq:u32PllReg <- $r2
	@DEBUG_VALUE: CLK_GetAPLL0ClockFreq:u32FIN <- $r1
	@DEBUG_VALUE: CLK_GetAPLL0ClockFreq:u32PllFreq <- 0
	.loc	9 0 13 is_stmt 0                @ ../../../../Library/StdDriver/src/clk.c:0:13
	movw	r3, #1022
.Ltmp148:
	.loc	9 1749 36 is_stmt 1             @ ../../../../Library/StdDriver/src/clk.c:1749:36
	lsrs	r1, r1, #2
.Ltmp149:
	.loc	9 1744 69                       @ ../../../../Library/StdDriver/src/clk.c:1744:69
	ubfx	r12, r2, #14, #2
	.loc	9 1746 59                       @ ../../../../Library/StdDriver/src/clk.c:1746:59
	ubfx	lr, r2, #9, #5
	.loc	9 1749 51                       @ ../../../../Library/StdDriver/src/clk.c:1749:51
	and.w	r2, r3, r2, lsl #1
.Ltmp150:
	.loc	9 1744 21                       @ ../../../../Library/StdDriver/src/clk.c:1744:21
	movw	r3, :lower16:.L__const.CLK_GetAPLL1ClockFreq.au8NoTbl
	movt	r3, :upper16:.L__const.CLK_GetAPLL1ClockFreq.au8NoTbl
	.loc	9 1749 51                       @ ../../../../Library/StdDriver/src/clk.c:1749:51
	adds	r2, #4
	.loc	9 1744 21                       @ ../../../../Library/StdDriver/src/clk.c:1744:21
	ldrb.w	r12, [r3, r12]
.Ltmp151:
	@DEBUG_VALUE: CLK_GetAPLL0ClockFreq:u32NO <- $r12
	@DEBUG_VALUE: CLK_GetAPLL0ClockFreq:u32NF <- [DW_OP_constu 511, DW_OP_and, DW_OP_plus_uconst 2, DW_OP_stack_value] undef
	.loc	9 1746 86                       @ ../../../../Library/StdDriver/src/clk.c:1746:86
	add.w	r3, lr, #1
.Ltmp152:
	@DEBUG_VALUE: CLK_GetAPLL0ClockFreq:u32NR <- $r3
	.loc	9 1749 42                       @ ../../../../Library/StdDriver/src/clk.c:1749:42
	muls	r1, r2, r1
	.loc	9 1749 67 is_stmt 0             @ ../../../../Library/StdDriver/src/clk.c:1749:67
	mul	r2, r3, r12
	.loc	9 1749 58                       @ ../../../../Library/StdDriver/src/clk.c:1749:58
	udiv	r1, r1, r2
	.loc	9 1749 76                       @ ../../../../Library/StdDriver/src/clk.c:1749:76
	lsls	r1, r1, #2
.Ltmp153:
	@DEBUG_VALUE: CLK_GetAPLL0ClockFreq:u32PllFreq <- $r1
.LBB10_4:
	.loc	9 1823 14 is_stmt 1             @ ../../../../Library/StdDriver/src/clk.c:1823:14
	movw	r2, :lower16:PllClock
	movt	r2, :upper16:PllClock
	str	r1, [r2]
	.loc	9 1825 22                       @ ../../../../Library/StdDriver/src/clk.c:1825:22
	ldr.w	r2, [r0, #1024]
	.loc	9 1825 30 is_stmt 0             @ ../../../../Library/StdDriver/src/clk.c:1825:30
	and	r2, r2, #7
.Ltmp154:
	@DEBUG_VALUE: CLK_SystemClockUpdate:u32ClkSrc <- $r2
	.loc	9 1827 9 is_stmt 1              @ ../../../../Library/StdDriver/src/clk.c:1827:9
	cmp	r2, #4
	beq	.LBB10_8
.Ltmp155:
@ %bb.5:
	@DEBUG_VALUE: CLK_SystemClockUpdate:u32ClkSrc <- $r2
	cmp	r2, #1
	bne	.LBB10_7
.Ltmp156:
@ %bb.6:
	@DEBUG_VALUE: CLK_SystemClockUpdate:u32ClkSrc <- $r2
	.loc	9 0 9 is_stmt 0                 @ ../../../../Library/StdDriver/src/clk.c:0:9
	movw	r1, #16960
	movt	r1, #15
.Ltmp157:
	@DEBUG_VALUE: CLK_SystemClockUpdate:SystemClock <- 1000000
	.loc	9 1836 5 is_stmt 1              @ ../../../../Library/StdDriver/src/clk.c:1836:5
	b	.LBB10_8
.Ltmp158:
.LBB10_7:
	@DEBUG_VALUE: CLK_SystemClockUpdate:u32ClkSrc <- $r2
	.loc	9 1840 23                       @ ../../../../Library/StdDriver/src/clk.c:1840:23
	movw	r1, :lower16:.L__const.CLK_SystemClockUpdate.gau32ClkSrcTbl
	movt	r1, :upper16:.L__const.CLK_SystemClockUpdate.gau32ClkSrcTbl
	ldr.w	r1, [r1, r2, lsl #2]
.Ltmp159:
	@DEBUG_VALUE: CLK_SystemClockUpdate:SystemClock <- $r1
.LBB10_8:
	@DEBUG_VALUE: CLK_GetHCLK2Freq:u32SclkFreq <- $r1
	.loc	9 377 26                        @ ../../../../Library/StdDriver/src/clk.c:377:26
	ldr.w	r0, [r0, #1288]
	movw	r2, #5388
	movt	r2, #16384
	.loc	9 377 62 is_stmt 0              @ ../../../../Library/StdDriver/src/clk.c:377:62
	ubfx	r0, r0, #8, #4
.Ltmp160:
	.loc	9 288 38 is_stmt 1              @ ../../../../Library/StdDriver/src/clk.c:288:38
	ldr	r2, [r2]
.Ltmp161:
	.loc	9 377 91                        @ ../../../../Library/StdDriver/src/clk.c:377:91
	adds	r0, #1
.Ltmp162:
	@DEBUG_VALUE: CLK_GetHCLK2Freq:u32Hclk2Div <- $r0
	@DEBUG_VALUE: CLK_GetHCLK2Freq:u32SclkFreq <- $r1
	.loc	9 288 74                        @ ../../../../Library/StdDriver/src/clk.c:288:74
	ubfx	r2, r2, #16, #4
.Ltmp163:
	.loc	9 380 28                        @ ../../../../Library/StdDriver/src/clk.c:380:28
	udiv	r0, r1, r0
.Ltmp164:
	@DEBUG_VALUE: CLK_GetPCLK4Freq:u32Hclk4Freq <- $r0
	@DEBUG_VALUE: CLK_GetHCLK2Freq:u32Hclk2 <- $r0
	@DEBUG_VALUE: CLK_GetHCLK2Freq:u32Hclk2Div <- $r0
	@DEBUG_VALUE: CLK_GetHCLK2Freq:u32SclkFreq <- $r1
	.loc	9 288 103                       @ ../../../../Library/StdDriver/src/clk.c:288:103
	adds	r1, r2, #1
.Ltmp165:
	.loc	9 288 28 is_stmt 0              @ ../../../../Library/StdDriver/src/clk.c:288:28
	udiv	r0, r0, r1
.Ltmp166:
	@DEBUG_VALUE: CLK_GetPCLK4Freq:u32Freq <- $r0
	.loc	9 290 5 is_stmt 1               @ ../../../../Library/StdDriver/src/clk.c:290:5
	pop	{r7, pc}
.Ltmp167:
.Lfunc_end10:
	.size	CLK_GetPCLK4Freq, .Lfunc_end10-CLK_GetPCLK4Freq
	.cfi_endproc
	.cantunwind
	.fnend
                                        @ -- End function
	.section	.text.CLK_GetHCLK2Freq,"ax",%progbits
	.hidden	CLK_GetHCLK2Freq                @ -- Begin function CLK_GetHCLK2Freq
	.globl	CLK_GetHCLK2Freq
	.p2align	2
	.type	CLK_GetHCLK2Freq,%function
	.code	16                              @ @CLK_GetHCLK2Freq
	.thumb_func
CLK_GetHCLK2Freq:
.Lfunc_begin11:
	.loc	9 371 0                         @ ../../../../Library/StdDriver/src/clk.c:371:0
	.fnstart
	.cfi_startproc
@ %bb.0:
	.save	{r7, lr}
	push	{r7, lr}
	.cfi_def_cfa_offset 8
	.cfi_offset lr, -4
	.cfi_offset r7, -8
	movw	r0, #4096
	movt	r0, #16384
.Ltmp168:
	@DEBUG_VALUE: CLK_GetAPLL0ClockFreq:u32PllFreq <- 0
	.loc	9 1713 22 prologue_end          @ ../../../../Library/StdDriver/src/clk.c:1713:22
	ldr	r2, [r0, #24]
.Ltmp169:
	@DEBUG_VALUE: CLK_GetAPLL0ClockFreq:u32PllReg <- $r2
	.loc	9 1714 23                       @ ../../../../Library/StdDriver/src/clk.c:1714:23
	ldr	r1, [r0, #28]
.Ltmp170:
	@DEBUG_VALUE: CLK_GetAPLL0ClockFreq:u32PllReg1 <- $r1
	.loc	9 1716 16                       @ ../../../../Library/StdDriver/src/clk.c:1716:16
	ldr	r3, [r0]
.Ltmp171:
	.loc	9 1716 9 is_stmt 0              @ ../../../../Library/StdDriver/src/clk.c:1716:9
	lsls	r3, r3, #25
	bmi	.LBB11_2
.Ltmp172:
@ %bb.1:
	@DEBUG_VALUE: CLK_GetAPLL0ClockFreq:u32PllReg <- $r2
	@DEBUG_VALUE: CLK_GetAPLL0ClockFreq:u32PllReg1 <- $r1
	@DEBUG_VALUE: CLK_GetAPLL0ClockFreq:u32PllFreq <- 0
	.loc	9 0 9                           @ ../../../../Library/StdDriver/src/clk.c:0:9
	movs	r1, #0
.Ltmp173:
	b	.LBB11_4
.Ltmp174:
.LBB11_2:
	@DEBUG_VALUE: CLK_GetAPLL0ClockFreq:u32PllReg <- $r2
	@DEBUG_VALUE: CLK_GetAPLL0ClockFreq:u32PllReg1 <- $r1
	@DEBUG_VALUE: CLK_GetAPLL0ClockFreq:u32PllFreq <- 0
	.loc	9 1723 13 is_stmt 1             @ ../../../../Library/StdDriver/src/clk.c:1723:13
	lsls	r1, r1, #30
.Ltmp175:
	.loc	9 0 13 is_stmt 0                @ ../../../../Library/StdDriver/src/clk.c:0:13
	movw	r1, #6912
	movt	r1, #183
	.loc	9 1723 13                       @ ../../../../Library/StdDriver/src/clk.c:1723:13
	itt	eq
	movweq	r1, #13824
	movteq	r1, #366
.Ltmp176:
	@DEBUG_VALUE: CLK_GetAPLL0ClockFreq:u32FIN <- $r1
	.loc	9 1737 13 is_stmt 1             @ ../../../../Library/StdDriver/src/clk.c:1737:13
	lsls	r3, r2, #1
	bmi	.LBB11_4
.Ltmp177:
@ %bb.3:
	@DEBUG_VALUE: CLK_GetAPLL0ClockFreq:u32PllReg <- $r2
	@DEBUG_VALUE: CLK_GetAPLL0ClockFreq:u32FIN <- $r1
	@DEBUG_VALUE: CLK_GetAPLL0ClockFreq:u32PllFreq <- 0
	.loc	9 0 13 is_stmt 0                @ ../../../../Library/StdDriver/src/clk.c:0:13
	movw	r3, #1022
.Ltmp178:
	.loc	9 1749 36 is_stmt 1             @ ../../../../Library/StdDriver/src/clk.c:1749:36
	lsrs	r1, r1, #2
.Ltmp179:
	.loc	9 1744 69                       @ ../../../../Library/StdDriver/src/clk.c:1744:69
	ubfx	r12, r2, #14, #2
	.loc	9 1746 59                       @ ../../../../Library/StdDriver/src/clk.c:1746:59
	ubfx	lr, r2, #9, #5
	.loc	9 1749 51                       @ ../../../../Library/StdDriver/src/clk.c:1749:51
	and.w	r2, r3, r2, lsl #1
.Ltmp180:
	.loc	9 1744 21                       @ ../../../../Library/StdDriver/src/clk.c:1744:21
	movw	r3, :lower16:.L__const.CLK_GetAPLL1ClockFreq.au8NoTbl
	movt	r3, :upper16:.L__const.CLK_GetAPLL1ClockFreq.au8NoTbl
	.loc	9 1749 51                       @ ../../../../Library/StdDriver/src/clk.c:1749:51
	adds	r2, #4
	.loc	9 1744 21                       @ ../../../../Library/StdDriver/src/clk.c:1744:21
	ldrb.w	r12, [r3, r12]
.Ltmp181:
	@DEBUG_VALUE: CLK_GetAPLL0ClockFreq:u32NO <- $r12
	@DEBUG_VALUE: CLK_GetAPLL0ClockFreq:u32NF <- [DW_OP_constu 511, DW_OP_and, DW_OP_plus_uconst 2, DW_OP_stack_value] undef
	.loc	9 1746 86                       @ ../../../../Library/StdDriver/src/clk.c:1746:86
	add.w	r3, lr, #1
.Ltmp182:
	@DEBUG_VALUE: CLK_GetAPLL0ClockFreq:u32NR <- $r3
	.loc	9 1749 42                       @ ../../../../Library/StdDriver/src/clk.c:1749:42
	muls	r1, r2, r1
	.loc	9 1749 67 is_stmt 0             @ ../../../../Library/StdDriver/src/clk.c:1749:67
	mul	r2, r3, r12
	.loc	9 1749 58                       @ ../../../../Library/StdDriver/src/clk.c:1749:58
	udiv	r1, r1, r2
	.loc	9 1749 76                       @ ../../../../Library/StdDriver/src/clk.c:1749:76
	lsls	r1, r1, #2
.Ltmp183:
	@DEBUG_VALUE: CLK_GetAPLL0ClockFreq:u32PllFreq <- $r1
.LBB11_4:
	.loc	9 1823 14 is_stmt 1             @ ../../../../Library/StdDriver/src/clk.c:1823:14
	movw	r2, :lower16:PllClock
	movt	r2, :upper16:PllClock
	str	r1, [r2]
	.loc	9 1825 22                       @ ../../../../Library/StdDriver/src/clk.c:1825:22
	ldr.w	r2, [r0, #1024]
	.loc	9 1825 30 is_stmt 0             @ ../../../../Library/StdDriver/src/clk.c:1825:30
	and	r2, r2, #7
.Ltmp184:
	@DEBUG_VALUE: CLK_SystemClockUpdate:u32ClkSrc <- $r2
	.loc	9 1827 9 is_stmt 1              @ ../../../../Library/StdDriver/src/clk.c:1827:9
	cmp	r2, #4
	beq	.LBB11_8
.Ltmp185:
@ %bb.5:
	@DEBUG_VALUE: CLK_SystemClockUpdate:u32ClkSrc <- $r2
	cmp	r2, #1
	bne	.LBB11_7
.Ltmp186:
@ %bb.6:
	@DEBUG_VALUE: CLK_SystemClockUpdate:u32ClkSrc <- $r2
	.loc	9 0 9 is_stmt 0                 @ ../../../../Library/StdDriver/src/clk.c:0:9
	movw	r1, #16960
	movt	r1, #15
.Ltmp187:
	@DEBUG_VALUE: CLK_SystemClockUpdate:SystemClock <- 1000000
	.loc	9 1836 5 is_stmt 1              @ ../../../../Library/StdDriver/src/clk.c:1836:5
	b	.LBB11_8
.Ltmp188:
.LBB11_7:
	@DEBUG_VALUE: CLK_SystemClockUpdate:u32ClkSrc <- $r2
	.loc	9 1840 23                       @ ../../../../Library/StdDriver/src/clk.c:1840:23
	movw	r1, :lower16:.L__const.CLK_SystemClockUpdate.gau32ClkSrcTbl
	movt	r1, :upper16:.L__const.CLK_SystemClockUpdate.gau32ClkSrcTbl
	ldr.w	r1, [r1, r2, lsl #2]
.Ltmp189:
	@DEBUG_VALUE: CLK_SystemClockUpdate:SystemClock <- $r1
.LBB11_8:
	@DEBUG_VALUE: CLK_GetHCLK2Freq:u32SclkFreq <- $r1
	.loc	9 377 26                        @ ../../../../Library/StdDriver/src/clk.c:377:26
	ldr.w	r0, [r0, #1288]
	.loc	9 377 62 is_stmt 0              @ ../../../../Library/StdDriver/src/clk.c:377:62
	ubfx	r0, r0, #8, #4
	.loc	9 377 91                        @ ../../../../Library/StdDriver/src/clk.c:377:91
	adds	r0, #1
.Ltmp190:
	@DEBUG_VALUE: CLK_GetHCLK2Freq:u32Hclk2Div <- $r0
	.loc	9 380 28 is_stmt 1              @ ../../../../Library/StdDriver/src/clk.c:380:28
	udiv	r0, r1, r0
.Ltmp191:
	@DEBUG_VALUE: CLK_GetHCLK2Freq:u32Hclk2 <- $r0
	.loc	9 382 5                         @ ../../../../Library/StdDriver/src/clk.c:382:5
	pop	{r7, pc}
.Ltmp192:
.Lfunc_end11:
	.size	CLK_GetHCLK2Freq, .Lfunc_end11-CLK_GetHCLK2Freq
	.cfi_endproc
	.cantunwind
	.fnend
                                        @ -- End function
	.section	.text.CLK_GetPCLK5Freq,"ax",%progbits
	.hidden	CLK_GetPCLK5Freq                @ -- Begin function CLK_GetPCLK5Freq
	.globl	CLK_GetPCLK5Freq
	.p2align	2
	.type	CLK_GetPCLK5Freq,%function
	.code	16                              @ @CLK_GetPCLK5Freq
	.thumb_func
CLK_GetPCLK5Freq:
.Lfunc_begin12:
	.loc	9 300 0                         @ ../../../../Library/StdDriver/src/clk.c:300:0
	.fnstart
	.cfi_startproc
@ %bb.0:
	.save	{r7, lr}
	push	{r7, lr}
	.cfi_def_cfa_offset 8
	.cfi_offset lr, -4
	.cfi_offset r7, -8
.Ltmp193:
	.loc	9 329 5 prologue_end            @ ../../../../Library/StdDriver/src/clk.c:329:5
	bl	SystemCoreClockUpdate
.Ltmp194:
	.loc	9 331 12                        @ ../../../../Library/StdDriver/src/clk.c:331:12
	movw	r0, :lower16:SystemCoreClock
	movt	r0, :upper16:SystemCoreClock
	ldr	r0, [r0]
.Ltmp195:
	@DEBUG_VALUE: CLK_GetPCLK5Freq:u32Freq <- $r0
	.loc	9 305 5                         @ ../../../../Library/StdDriver/src/clk.c:305:5
	pop	{r7, pc}
.Ltmp196:
.Lfunc_end12:
	.size	CLK_GetPCLK5Freq, .Lfunc_end12-CLK_GetPCLK5Freq
	.cfi_endproc
	.cantunwind
	.fnend
                                        @ -- End function
	.section	.text.CLK_GetACLKFreq,"ax",%progbits
	.hidden	CLK_GetACLKFreq                 @ -- Begin function CLK_GetACLKFreq
	.globl	CLK_GetACLKFreq
	.p2align	2
	.type	CLK_GetACLKFreq,%function
	.code	16                              @ @CLK_GetACLKFreq
	.thumb_func
CLK_GetACLKFreq:
.Lfunc_begin13:
	.loc	9 328 0                         @ ../../../../Library/StdDriver/src/clk.c:328:0
	.fnstart
	.cfi_startproc
@ %bb.0:
	.save	{r7, lr}
	push	{r7, lr}
	.cfi_def_cfa_offset 8
	.cfi_offset lr, -4
	.cfi_offset r7, -8
.Ltmp197:
	.loc	9 329 5 prologue_end            @ ../../../../Library/StdDriver/src/clk.c:329:5
	bl	SystemCoreClockUpdate
.Ltmp198:
	.loc	9 331 12                        @ ../../../../Library/StdDriver/src/clk.c:331:12
	movw	r0, :lower16:SystemCoreClock
	movt	r0, :upper16:SystemCoreClock
	ldr	r0, [r0]
	.loc	9 331 5 is_stmt 0               @ ../../../../Library/StdDriver/src/clk.c:331:5
	pop	{r7, pc}
.Ltmp199:
.Lfunc_end13:
	.size	CLK_GetACLKFreq, .Lfunc_end13-CLK_GetACLKFreq
	.cfi_endproc
	.cantunwind
	.fnend
                                        @ -- End function
	.section	.text.CLK_GetSCLKFreq,"ax",%progbits
	.hidden	CLK_GetSCLKFreq                 @ -- Begin function CLK_GetSCLKFreq
	.globl	CLK_GetSCLKFreq
	.p2align	2
	.type	CLK_GetSCLKFreq,%function
	.code	16                              @ @CLK_GetSCLKFreq
	.thumb_func
CLK_GetSCLKFreq:
.Lfunc_begin14:
	.loc	9 315 0 is_stmt 1               @ ../../../../Library/StdDriver/src/clk.c:315:0
	.fnstart
	.cfi_startproc
@ %bb.0:
	.save	{r7, lr}
	push	{r7, lr}
	.cfi_def_cfa_offset 8
	.cfi_offset lr, -4
	.cfi_offset r7, -8
	movw	r0, #4096
	movt	r0, #16384
.Ltmp200:
	@DEBUG_VALUE: CLK_GetAPLL0ClockFreq:u32PllFreq <- 0
	.loc	9 1713 22 prologue_end          @ ../../../../Library/StdDriver/src/clk.c:1713:22
	ldr	r2, [r0, #24]
.Ltmp201:
	@DEBUG_VALUE: CLK_GetAPLL0ClockFreq:u32PllReg <- $r2
	.loc	9 1714 23                       @ ../../../../Library/StdDriver/src/clk.c:1714:23
	ldr	r1, [r0, #28]
.Ltmp202:
	@DEBUG_VALUE: CLK_GetAPLL0ClockFreq:u32PllReg1 <- $r1
	.loc	9 1716 16                       @ ../../../../Library/StdDriver/src/clk.c:1716:16
	ldr	r3, [r0]
.Ltmp203:
	.loc	9 1716 9 is_stmt 0              @ ../../../../Library/StdDriver/src/clk.c:1716:9
	lsls	r3, r3, #25
	bmi	.LBB14_2
.Ltmp204:
@ %bb.1:
	@DEBUG_VALUE: CLK_GetAPLL0ClockFreq:u32PllReg <- $r2
	@DEBUG_VALUE: CLK_GetAPLL0ClockFreq:u32PllReg1 <- $r1
	@DEBUG_VALUE: CLK_GetAPLL0ClockFreq:u32PllFreq <- 0
	.loc	9 0 9                           @ ../../../../Library/StdDriver/src/clk.c:0:9
	movs	r1, #0
.Ltmp205:
	b	.LBB14_4
.Ltmp206:
.LBB14_2:
	@DEBUG_VALUE: CLK_GetAPLL0ClockFreq:u32PllReg <- $r2
	@DEBUG_VALUE: CLK_GetAPLL0ClockFreq:u32PllReg1 <- $r1
	@DEBUG_VALUE: CLK_GetAPLL0ClockFreq:u32PllFreq <- 0
	.loc	9 1723 13 is_stmt 1             @ ../../../../Library/StdDriver/src/clk.c:1723:13
	lsls	r1, r1, #30
.Ltmp207:
	.loc	9 0 13 is_stmt 0                @ ../../../../Library/StdDriver/src/clk.c:0:13
	movw	r1, #6912
	movt	r1, #183
	.loc	9 1723 13                       @ ../../../../Library/StdDriver/src/clk.c:1723:13
	itt	eq
	movweq	r1, #13824
	movteq	r1, #366
.Ltmp208:
	@DEBUG_VALUE: CLK_GetAPLL0ClockFreq:u32FIN <- $r1
	.loc	9 1737 13 is_stmt 1             @ ../../../../Library/StdDriver/src/clk.c:1737:13
	lsls	r3, r2, #1
	bmi	.LBB14_4
.Ltmp209:
@ %bb.3:
	@DEBUG_VALUE: CLK_GetAPLL0ClockFreq:u32PllReg <- $r2
	@DEBUG_VALUE: CLK_GetAPLL0ClockFreq:u32FIN <- $r1
	@DEBUG_VALUE: CLK_GetAPLL0ClockFreq:u32PllFreq <- 0
	.loc	9 0 13 is_stmt 0                @ ../../../../Library/StdDriver/src/clk.c:0:13
	movw	r3, #1022
.Ltmp210:
	.loc	9 1749 36 is_stmt 1             @ ../../../../Library/StdDriver/src/clk.c:1749:36
	lsrs	r1, r1, #2
.Ltmp211:
	.loc	9 1744 69                       @ ../../../../Library/StdDriver/src/clk.c:1744:69
	ubfx	r12, r2, #14, #2
	.loc	9 1746 59                       @ ../../../../Library/StdDriver/src/clk.c:1746:59
	ubfx	lr, r2, #9, #5
	.loc	9 1749 51                       @ ../../../../Library/StdDriver/src/clk.c:1749:51
	and.w	r2, r3, r2, lsl #1
.Ltmp212:
	.loc	9 1744 21                       @ ../../../../Library/StdDriver/src/clk.c:1744:21
	movw	r3, :lower16:.L__const.CLK_GetAPLL1ClockFreq.au8NoTbl
	movt	r3, :upper16:.L__const.CLK_GetAPLL1ClockFreq.au8NoTbl
	.loc	9 1749 51                       @ ../../../../Library/StdDriver/src/clk.c:1749:51
	adds	r2, #4
	.loc	9 1744 21                       @ ../../../../Library/StdDriver/src/clk.c:1744:21
	ldrb.w	r12, [r3, r12]
.Ltmp213:
	@DEBUG_VALUE: CLK_GetAPLL0ClockFreq:u32NO <- $r12
	@DEBUG_VALUE: CLK_GetAPLL0ClockFreq:u32NF <- [DW_OP_constu 511, DW_OP_and, DW_OP_plus_uconst 2, DW_OP_stack_value] undef
	.loc	9 1746 86                       @ ../../../../Library/StdDriver/src/clk.c:1746:86
	add.w	r3, lr, #1
.Ltmp214:
	@DEBUG_VALUE: CLK_GetAPLL0ClockFreq:u32NR <- $r3
	.loc	9 1749 42                       @ ../../../../Library/StdDriver/src/clk.c:1749:42
	muls	r1, r2, r1
	.loc	9 1749 67 is_stmt 0             @ ../../../../Library/StdDriver/src/clk.c:1749:67
	mul	r2, r3, r12
	.loc	9 1749 58                       @ ../../../../Library/StdDriver/src/clk.c:1749:58
	udiv	r1, r1, r2
	.loc	9 1749 76                       @ ../../../../Library/StdDriver/src/clk.c:1749:76
	lsls	r1, r1, #2
.Ltmp215:
	@DEBUG_VALUE: CLK_GetAPLL0ClockFreq:u32PllFreq <- $r1
.LBB14_4:
	.loc	9 1823 14 is_stmt 1             @ ../../../../Library/StdDriver/src/clk.c:1823:14
	movw	r2, :lower16:PllClock
	movt	r2, :upper16:PllClock
	str	r1, [r2]
	.loc	9 1825 22                       @ ../../../../Library/StdDriver/src/clk.c:1825:22
	ldr.w	r0, [r0, #1024]
.Ltmp216:
	@DEBUG_VALUE: CLK_SystemClockUpdate:SystemClock <- undef
	@DEBUG_VALUE: CLK_SystemClockUpdate:u32ClkSrc <- [DW_OP_constu 7, DW_OP_and, DW_OP_stack_value] $r0
	.loc	9 318 12                        @ ../../../../Library/StdDriver/src/clk.c:318:12
	movw	r0, :lower16:SystemCoreClock
	movt	r0, :upper16:SystemCoreClock
	ldr	r0, [r0]
	.loc	9 318 5 is_stmt 0               @ ../../../../Library/StdDriver/src/clk.c:318:5
	pop	{r7, pc}
.Ltmp217:
.Lfunc_end14:
	.size	CLK_GetSCLKFreq, .Lfunc_end14-CLK_GetSCLKFreq
	.cfi_endproc
	.cantunwind
	.fnend
                                        @ -- End function
	.section	.text.CLK_SystemClockUpdate,"ax",%progbits
	.hidden	CLK_SystemClockUpdate           @ -- Begin function CLK_SystemClockUpdate
	.globl	CLK_SystemClockUpdate
	.p2align	2
	.type	CLK_SystemClockUpdate,%function
	.code	16                              @ @CLK_SystemClockUpdate
	.thumb_func
CLK_SystemClockUpdate:
.Lfunc_begin15:
	.loc	9 1818 0 is_stmt 1              @ ../../../../Library/StdDriver/src/clk.c:1818:0
	.fnstart
	.cfi_startproc
@ %bb.0:
	.save	{r7, lr}
	push	{r7, lr}
	.cfi_def_cfa_offset 8
	.cfi_offset lr, -4
	.cfi_offset r7, -8
	movw	r1, #4096
	movt	r1, #16384
.Ltmp218:
	@DEBUG_VALUE: CLK_GetAPLL0ClockFreq:u32PllFreq <- 0
	.loc	9 1713 22 prologue_end          @ ../../../../Library/StdDriver/src/clk.c:1713:22
	ldr	r2, [r1, #24]
.Ltmp219:
	@DEBUG_VALUE: CLK_GetAPLL0ClockFreq:u32PllReg <- $r2
	.loc	9 1714 23                       @ ../../../../Library/StdDriver/src/clk.c:1714:23
	ldr	r0, [r1, #28]
.Ltmp220:
	@DEBUG_VALUE: CLK_GetAPLL0ClockFreq:u32PllReg1 <- $r0
	.loc	9 1716 16                       @ ../../../../Library/StdDriver/src/clk.c:1716:16
	ldr	r3, [r1]
.Ltmp221:
	.loc	9 1716 9 is_stmt 0              @ ../../../../Library/StdDriver/src/clk.c:1716:9
	lsls	r3, r3, #25
	bmi	.LBB15_2
.Ltmp222:
@ %bb.1:
	@DEBUG_VALUE: CLK_GetAPLL0ClockFreq:u32PllReg <- $r2
	@DEBUG_VALUE: CLK_GetAPLL0ClockFreq:u32PllReg1 <- $r0
	@DEBUG_VALUE: CLK_GetAPLL0ClockFreq:u32PllFreq <- 0
	.loc	9 0 9                           @ ../../../../Library/StdDriver/src/clk.c:0:9
	movs	r0, #0
.Ltmp223:
	b	.LBB15_4
.Ltmp224:
.LBB15_2:
	@DEBUG_VALUE: CLK_GetAPLL0ClockFreq:u32PllReg <- $r2
	@DEBUG_VALUE: CLK_GetAPLL0ClockFreq:u32PllReg1 <- $r0
	@DEBUG_VALUE: CLK_GetAPLL0ClockFreq:u32PllFreq <- 0
	.loc	9 1723 13 is_stmt 1             @ ../../../../Library/StdDriver/src/clk.c:1723:13
	lsls	r0, r0, #30
.Ltmp225:
	.loc	9 0 13 is_stmt 0                @ ../../../../Library/StdDriver/src/clk.c:0:13
	movw	r0, #6912
	movt	r0, #183
	.loc	9 1723 13                       @ ../../../../Library/StdDriver/src/clk.c:1723:13
	itt	eq
	movweq	r0, #13824
	movteq	r0, #366
.Ltmp226:
	@DEBUG_VALUE: CLK_GetAPLL0ClockFreq:u32FIN <- $r0
	.loc	9 1737 13 is_stmt 1             @ ../../../../Library/StdDriver/src/clk.c:1737:13
	lsls	r3, r2, #1
	bmi	.LBB15_4
.Ltmp227:
@ %bb.3:
	@DEBUG_VALUE: CLK_GetAPLL0ClockFreq:u32PllReg <- $r2
	@DEBUG_VALUE: CLK_GetAPLL0ClockFreq:u32FIN <- $r0
	@DEBUG_VALUE: CLK_GetAPLL0ClockFreq:u32PllFreq <- 0
	.loc	9 0 13 is_stmt 0                @ ../../../../Library/StdDriver/src/clk.c:0:13
	movw	r3, #1022
.Ltmp228:
	.loc	9 1749 36 is_stmt 1             @ ../../../../Library/StdDriver/src/clk.c:1749:36
	lsrs	r0, r0, #2
.Ltmp229:
	.loc	9 1744 69                       @ ../../../../Library/StdDriver/src/clk.c:1744:69
	ubfx	r12, r2, #14, #2
	.loc	9 1746 59                       @ ../../../../Library/StdDriver/src/clk.c:1746:59
	ubfx	lr, r2, #9, #5
	.loc	9 1749 51                       @ ../../../../Library/StdDriver/src/clk.c:1749:51
	and.w	r2, r3, r2, lsl #1
.Ltmp230:
	.loc	9 1744 21                       @ ../../../../Library/StdDriver/src/clk.c:1744:21
	movw	r3, :lower16:.L__const.CLK_GetAPLL1ClockFreq.au8NoTbl
	movt	r3, :upper16:.L__const.CLK_GetAPLL1ClockFreq.au8NoTbl
	.loc	9 1749 51                       @ ../../../../Library/StdDriver/src/clk.c:1749:51
	adds	r2, #4
	.loc	9 1744 21                       @ ../../../../Library/StdDriver/src/clk.c:1744:21
	ldrb.w	r12, [r3, r12]
.Ltmp231:
	@DEBUG_VALUE: CLK_GetAPLL0ClockFreq:u32NO <- $r12
	@DEBUG_VALUE: CLK_GetAPLL0ClockFreq:u32NF <- [DW_OP_constu 511, DW_OP_and, DW_OP_plus_uconst 2, DW_OP_stack_value] undef
	.loc	9 1746 86                       @ ../../../../Library/StdDriver/src/clk.c:1746:86
	add.w	r3, lr, #1
.Ltmp232:
	@DEBUG_VALUE: CLK_GetAPLL0ClockFreq:u32NR <- $r3
	.loc	9 1749 42                       @ ../../../../Library/StdDriver/src/clk.c:1749:42
	muls	r0, r2, r0
	.loc	9 1749 67 is_stmt 0             @ ../../../../Library/StdDriver/src/clk.c:1749:67
	mul	r2, r3, r12
	.loc	9 1749 58                       @ ../../../../Library/StdDriver/src/clk.c:1749:58
	udiv	r0, r0, r2
	.loc	9 1749 76                       @ ../../../../Library/StdDriver/src/clk.c:1749:76
	lsls	r0, r0, #2
.Ltmp233:
	@DEBUG_VALUE: CLK_GetAPLL0ClockFreq:u32PllFreq <- $r0
.LBB15_4:
	.loc	9 1823 14 is_stmt 1             @ ../../../../Library/StdDriver/src/clk.c:1823:14
	movw	r2, :lower16:PllClock
	movt	r2, :upper16:PllClock
	str	r0, [r2]
	.loc	9 1825 22                       @ ../../../../Library/StdDriver/src/clk.c:1825:22
	ldr.w	r1, [r1, #1024]
	.loc	9 1825 30 is_stmt 0             @ ../../../../Library/StdDriver/src/clk.c:1825:30
	and	r1, r1, #7
.Ltmp234:
	@DEBUG_VALUE: CLK_SystemClockUpdate:u32ClkSrc <- $r1
	.loc	9 1827 9 is_stmt 1              @ ../../../../Library/StdDriver/src/clk.c:1827:9
	cmp	r1, #4
.Ltmp235:
	@DEBUG_VALUE: CLK_SystemClockUpdate:SystemClock <- $r0
	.loc	9 1843 5                        @ ../../../../Library/StdDriver/src/clk.c:1843:5
	it	eq
	popeq	{r7, pc}
.Ltmp236:
.LBB15_5:
	@DEBUG_VALUE: CLK_SystemClockUpdate:u32ClkSrc <- $r1
	@DEBUG_VALUE: CLK_SystemClockUpdate:SystemClock <- $r0
	.loc	9 1827 9                        @ ../../../../Library/StdDriver/src/clk.c:1827:9
	cmp	r1, #1
	bne	.LBB15_7
.Ltmp237:
@ %bb.6:
	@DEBUG_VALUE: CLK_SystemClockUpdate:u32ClkSrc <- $r1
	@DEBUG_VALUE: CLK_SystemClockUpdate:SystemClock <- $r0
	.loc	9 0 9 is_stmt 0                 @ ../../../../Library/StdDriver/src/clk.c:0:9
	movw	r0, #16960
.Ltmp238:
	movt	r0, #15
.Ltmp239:
	@DEBUG_VALUE: CLK_SystemClockUpdate:SystemClock <- 1000000
	@DEBUG_VALUE: CLK_SystemClockUpdate:SystemClock <- $r0
	.loc	9 1843 5 is_stmt 1              @ ../../../../Library/StdDriver/src/clk.c:1843:5
	pop	{r7, pc}
.Ltmp240:
.LBB15_7:
	@DEBUG_VALUE: CLK_SystemClockUpdate:u32ClkSrc <- $r1
	@DEBUG_VALUE: CLK_SystemClockUpdate:SystemClock <- $r0
	.loc	9 1840 23                       @ ../../../../Library/StdDriver/src/clk.c:1840:23
	movw	r0, :lower16:.L__const.CLK_SystemClockUpdate.gau32ClkSrcTbl
.Ltmp241:
	movt	r0, :upper16:.L__const.CLK_SystemClockUpdate.gau32ClkSrcTbl
	ldr.w	r0, [r0, r1, lsl #2]
.Ltmp242:
	@DEBUG_VALUE: CLK_SystemClockUpdate:SystemClock <- $r0
	.loc	9 1843 5                        @ ../../../../Library/StdDriver/src/clk.c:1843:5
	pop	{r7, pc}
.Ltmp243:
.Lfunc_end15:
	.size	CLK_SystemClockUpdate, .Lfunc_end15-CLK_SystemClockUpdate
	.cfi_endproc
	.cantunwind
	.fnend
                                        @ -- End function
	.section	.text.CLK_GetHCLK1Freq,"ax",%progbits
	.hidden	CLK_GetHCLK1Freq                @ -- Begin function CLK_GetHCLK1Freq
	.globl	CLK_GetHCLK1Freq
	.p2align	2
	.type	CLK_GetHCLK1Freq,%function
	.code	16                              @ @CLK_GetHCLK1Freq
	.thumb_func
CLK_GetHCLK1Freq:
.Lfunc_begin16:
	.loc	9 356 0                         @ ../../../../Library/StdDriver/src/clk.c:356:0
	.fnstart
	.cfi_startproc
@ %bb.0:
	.save	{r7, lr}
	push	{r7, lr}
	.cfi_def_cfa_offset 8
	.cfi_offset lr, -4
	.cfi_offset r7, -8
	movw	r1, #4096
	movt	r1, #16384
.Ltmp244:
	@DEBUG_VALUE: CLK_GetAPLL0ClockFreq:u32PllFreq <- 0
	.loc	9 1713 22 prologue_end          @ ../../../../Library/StdDriver/src/clk.c:1713:22
	ldr	r2, [r1, #24]
.Ltmp245:
	@DEBUG_VALUE: CLK_GetAPLL0ClockFreq:u32PllReg <- $r2
	.loc	9 1714 23                       @ ../../../../Library/StdDriver/src/clk.c:1714:23
	ldr	r0, [r1, #28]
.Ltmp246:
	@DEBUG_VALUE: CLK_GetAPLL0ClockFreq:u32PllReg1 <- $r0
	.loc	9 1716 16                       @ ../../../../Library/StdDriver/src/clk.c:1716:16
	ldr	r3, [r1]
.Ltmp247:
	.loc	9 1716 9 is_stmt 0              @ ../../../../Library/StdDriver/src/clk.c:1716:9
	lsls	r3, r3, #25
	bmi	.LBB16_2
.Ltmp248:
@ %bb.1:
	@DEBUG_VALUE: CLK_GetAPLL0ClockFreq:u32PllReg <- $r2
	@DEBUG_VALUE: CLK_GetAPLL0ClockFreq:u32PllReg1 <- $r0
	@DEBUG_VALUE: CLK_GetAPLL0ClockFreq:u32PllFreq <- 0
	.loc	9 0 9                           @ ../../../../Library/StdDriver/src/clk.c:0:9
	movs	r0, #0
.Ltmp249:
	b	.LBB16_4
.Ltmp250:
.LBB16_2:
	@DEBUG_VALUE: CLK_GetAPLL0ClockFreq:u32PllReg <- $r2
	@DEBUG_VALUE: CLK_GetAPLL0ClockFreq:u32PllReg1 <- $r0
	@DEBUG_VALUE: CLK_GetAPLL0ClockFreq:u32PllFreq <- 0
	.loc	9 1723 13 is_stmt 1             @ ../../../../Library/StdDriver/src/clk.c:1723:13
	lsls	r0, r0, #30
.Ltmp251:
	.loc	9 0 13 is_stmt 0                @ ../../../../Library/StdDriver/src/clk.c:0:13
	movw	r0, #6912
	movt	r0, #183
	.loc	9 1723 13                       @ ../../../../Library/StdDriver/src/clk.c:1723:13
	itt	eq
	movweq	r0, #13824
	movteq	r0, #366
.Ltmp252:
	@DEBUG_VALUE: CLK_GetAPLL0ClockFreq:u32FIN <- $r0
	.loc	9 1737 13 is_stmt 1             @ ../../../../Library/StdDriver/src/clk.c:1737:13
	lsls	r3, r2, #1
	bmi	.LBB16_4
.Ltmp253:
@ %bb.3:
	@DEBUG_VALUE: CLK_GetAPLL0ClockFreq:u32PllReg <- $r2
	@DEBUG_VALUE: CLK_GetAPLL0ClockFreq:u32FIN <- $r0
	@DEBUG_VALUE: CLK_GetAPLL0ClockFreq:u32PllFreq <- 0
	.loc	9 0 13 is_stmt 0                @ ../../../../Library/StdDriver/src/clk.c:0:13
	movw	r3, #1022
.Ltmp254:
	.loc	9 1749 36 is_stmt 1             @ ../../../../Library/StdDriver/src/clk.c:1749:36
	lsrs	r0, r0, #2
.Ltmp255:
	.loc	9 1744 69                       @ ../../../../Library/StdDriver/src/clk.c:1744:69
	ubfx	r12, r2, #14, #2
	.loc	9 1746 59                       @ ../../../../Library/StdDriver/src/clk.c:1746:59
	ubfx	lr, r2, #9, #5
	.loc	9 1749 51                       @ ../../../../Library/StdDriver/src/clk.c:1749:51
	and.w	r2, r3, r2, lsl #1
.Ltmp256:
	.loc	9 1744 21                       @ ../../../../Library/StdDriver/src/clk.c:1744:21
	movw	r3, :lower16:.L__const.CLK_GetAPLL1ClockFreq.au8NoTbl
	movt	r3, :upper16:.L__const.CLK_GetAPLL1ClockFreq.au8NoTbl
	.loc	9 1749 51                       @ ../../../../Library/StdDriver/src/clk.c:1749:51
	adds	r2, #4
	.loc	9 1744 21                       @ ../../../../Library/StdDriver/src/clk.c:1744:21
	ldrb.w	r12, [r3, r12]
.Ltmp257:
	@DEBUG_VALUE: CLK_GetAPLL0ClockFreq:u32NO <- $r12
	@DEBUG_VALUE: CLK_GetAPLL0ClockFreq:u32NF <- [DW_OP_constu 511, DW_OP_and, DW_OP_plus_uconst 2, DW_OP_stack_value] undef
	.loc	9 1746 86                       @ ../../../../Library/StdDriver/src/clk.c:1746:86
	add.w	r3, lr, #1
.Ltmp258:
	@DEBUG_VALUE: CLK_GetAPLL0ClockFreq:u32NR <- $r3
	.loc	9 1749 42                       @ ../../../../Library/StdDriver/src/clk.c:1749:42
	muls	r0, r2, r0
	.loc	9 1749 67 is_stmt 0             @ ../../../../Library/StdDriver/src/clk.c:1749:67
	mul	r2, r3, r12
	.loc	9 1749 58                       @ ../../../../Library/StdDriver/src/clk.c:1749:58
	udiv	r0, r0, r2
	.loc	9 1749 76                       @ ../../../../Library/StdDriver/src/clk.c:1749:76
	lsls	r0, r0, #2
.Ltmp259:
	@DEBUG_VALUE: CLK_GetAPLL0ClockFreq:u32PllFreq <- $r0
.LBB16_4:
	.loc	9 1823 14 is_stmt 1             @ ../../../../Library/StdDriver/src/clk.c:1823:14
	movw	r2, :lower16:PllClock
	movt	r2, :upper16:PllClock
	str	r0, [r2]
	.loc	9 1825 22                       @ ../../../../Library/StdDriver/src/clk.c:1825:22
	ldr.w	r1, [r1, #1024]
	.loc	9 1825 30 is_stmt 0             @ ../../../../Library/StdDriver/src/clk.c:1825:30
	and	r1, r1, #7
.Ltmp260:
	@DEBUG_VALUE: CLK_SystemClockUpdate:u32ClkSrc <- $r1
	.loc	9 1827 9 is_stmt 1              @ ../../../../Library/StdDriver/src/clk.c:1827:9
	cmp	r1, #4
.Ltmp261:
	@DEBUG_VALUE: CLK_GetHCLK1Freq:u32Hclk1 <- $r0
	.loc	9 361 5                         @ ../../../../Library/StdDriver/src/clk.c:361:5
	it	eq
	popeq	{r7, pc}
.Ltmp262:
.LBB16_5:
	@DEBUG_VALUE: CLK_SystemClockUpdate:u32ClkSrc <- $r1
	@DEBUG_VALUE: CLK_GetHCLK1Freq:u32Hclk1 <- $r0
	.loc	9 1827 9                        @ ../../../../Library/StdDriver/src/clk.c:1827:9
	cmp	r1, #1
	bne	.LBB16_7
.Ltmp263:
@ %bb.6:
	@DEBUG_VALUE: CLK_GetHCLK1Freq:u32Hclk1 <- $r0
	.loc	9 0 9 is_stmt 0                 @ ../../../../Library/StdDriver/src/clk.c:0:9
	movw	r0, #16960
.Ltmp264:
	movt	r0, #15
	@DEBUG_VALUE: CLK_SystemClockUpdate:SystemClock <- 1000000
.Ltmp265:
	@DEBUG_VALUE: CLK_GetHCLK1Freq:u32Hclk1 <- $r0
	.loc	9 361 5 is_stmt 1               @ ../../../../Library/StdDriver/src/clk.c:361:5
	pop	{r7, pc}
.Ltmp266:
.LBB16_7:
	@DEBUG_VALUE: CLK_SystemClockUpdate:u32ClkSrc <- $r1
	@DEBUG_VALUE: CLK_GetHCLK1Freq:u32Hclk1 <- $r0
	.loc	9 1840 23                       @ ../../../../Library/StdDriver/src/clk.c:1840:23
	movw	r0, :lower16:.L__const.CLK_SystemClockUpdate.gau32ClkSrcTbl
.Ltmp267:
	movt	r0, :upper16:.L__const.CLK_SystemClockUpdate.gau32ClkSrcTbl
	ldr.w	r0, [r0, r1, lsl #2]
.Ltmp268:
	@DEBUG_VALUE: CLK_SystemClockUpdate:SystemClock <- $r0
	@DEBUG_VALUE: CLK_GetHCLK1Freq:u32Hclk1 <- $r0
	.loc	9 361 5                         @ ../../../../Library/StdDriver/src/clk.c:361:5
	pop	{r7, pc}
.Ltmp269:
.Lfunc_end16:
	.size	CLK_GetHCLK1Freq, .Lfunc_end16-CLK_GetHCLK1Freq
	.cfi_endproc
	.cantunwind
	.fnend
                                        @ -- End function
	.section	.text.CLK_SetCoreClock,"ax",%progbits
	.hidden	CLK_SetCoreClock                @ -- Begin function CLK_SetCoreClock
	.globl	CLK_SetCoreClock
	.p2align	2
	.type	CLK_SetCoreClock,%function
	.code	16                              @ @CLK_SetCoreClock
	.thumb_func
CLK_SetCoreClock:
.Lfunc_begin17:
	.loc	9 394 0                         @ ../../../../Library/StdDriver/src/clk.c:394:0
	.fnstart
	.cfi_startproc
@ %bb.0:
	@DEBUG_VALUE: CLK_SetCoreClock:u32Aclk <- $r0
	.save	{r4, r5, r6, lr}
	push	{r4, r5, r6, lr}
	.cfi_def_cfa_offset 16
	.cfi_offset lr, -4
	.cfi_offset r6, -8
	.cfi_offset r5, -12
	.cfi_offset r4, -16
	movw	r5, #4100
	movw	r3, #61568
	movt	r5, #16384
	movs	r2, #2
.Ltmp270:
	@DEBUG_VALUE: CLK_WaitClockReady:u32Ret <- 1
	@DEBUG_VALUE: CLK_WaitClockReady:u32TimeOutCnt <- undef
	.loc	9 398 23 prologue_end           @ ../../../../Library/StdDriver/src/clk.c:398:23
	ldr	r6, [r5]
.Ltmp271:
	@DEBUG_VALUE: CLK_SetCoreClock:u32HIRCSTB <- [DW_OP_constu 8, DW_OP_and, DW_OP_stack_value] $r6
	.loc	9 411 17                        @ ../../../../Library/StdDriver/src/clk.c:411:17
	ldr	r1, [r5, #-4]
	@DEBUG_VALUE: CLK_SetCoreClock:u32Aclk <- $r0
	movt	r3, #762
	orr	r1, r1, #8
	str	r1, [r5, #-4]
.Ltmp272:
	@DEBUG_VALUE: CLK_WaitClockReady:u32ClkMask <- 8
	.loc	9 1591 30                       @ ../../../../Library/StdDriver/src/clk.c:1591:30
	movw	r1, :lower16:SystemCoreClock
	movt	r1, :upper16:SystemCoreClock
	ldr	r1, [r1]
.Ltmp273:
	.loc	9 401 9                         @ ../../../../Library/StdDriver/src/clk.c:401:9
	cmp	r0, r3
.Ltmp274:
	.loc	9 1594 5                        @ ../../../../Library/StdDriver/src/clk.c:1594:5
	sub.w	r2, r2, r1, lsr #1
	movw	r1, #7168
	movt	r1, #3662
.Ltmp275:
	.loc	9 401 9                         @ ../../../../Library/StdDriver/src/clk.c:401:9
	csel	r0, r0, r3, hi
.Ltmp276:
	@DEBUG_VALUE: CLK_SetCoreClock:u32Aclk <- [DW_OP_LLVM_entry_value 1] $r0
	.p2align	2
.LBB17_1:                               @ =>This Inner Loop Header: Depth=1
	@DEBUG_VALUE: CLK_SetCoreClock:u32HIRCSTB <- [DW_OP_constu 8, DW_OP_and, DW_OP_stack_value] $r6
	@DEBUG_VALUE: CLK_SetCoreClock:u32Aclk <- [DW_OP_LLVM_entry_value 1] $r0
	@DEBUG_VALUE: CLK_WaitClockReady:u32ClkMask <- 8
	@DEBUG_VALUE: CLK_WaitClockReady:u32Ret <- 1
	@DEBUG_VALUE: CLK_WaitClockReady:u32TimeOutCnt <- undef
	.loc	9 1594 18                       @ ../../../../Library/StdDriver/src/clk.c:1594:18
	ldr	r3, [r5]
.Ltmp277:
	@DEBUG_VALUE: CLK_WaitClockReady:u32TimeOutCnt <- [DW_OP_constu 1, DW_OP_minus, DW_OP_stack_value] undef
	.loc	9 1594 5 is_stmt 0              @ ../../../../Library/StdDriver/src/clk.c:1594:5
	cmp	r2, #1
	beq	.LBB17_9
.Ltmp278:
@ %bb.2:                                @   in Loop: Header=BB17_1 Depth=1
	@DEBUG_VALUE: CLK_SetCoreClock:u32HIRCSTB <- [DW_OP_constu 8, DW_OP_and, DW_OP_stack_value] $r6
	@DEBUG_VALUE: CLK_SetCoreClock:u32Aclk <- [DW_OP_LLVM_entry_value 1] $r0
	@DEBUG_VALUE: CLK_WaitClockReady:u32ClkMask <- 8
	@DEBUG_VALUE: CLK_WaitClockReady:u32Ret <- 1
	.loc	9 0 0                           @ ../../../../Library/StdDriver/src/clk.c:0:0
	ands	r3, r3, #8
	.loc	9 1594 5                        @ ../../../../Library/StdDriver/src/clk.c:1594:5
	bne	.LBB17_9
.Ltmp279:
@ %bb.3:                                @   in Loop: Header=BB17_1 Depth=1
	@DEBUG_VALUE: CLK_SetCoreClock:u32HIRCSTB <- [DW_OP_constu 8, DW_OP_and, DW_OP_stack_value] $r6
	@DEBUG_VALUE: CLK_SetCoreClock:u32Aclk <- [DW_OP_LLVM_entry_value 1] $r0
	@DEBUG_VALUE: CLK_WaitClockReady:u32ClkMask <- 8
	@DEBUG_VALUE: CLK_WaitClockReady:u32Ret <- 1
	@DEBUG_VALUE: CLK_WaitClockReady:u32TimeOutCnt <- [DW_OP_constu 1, DW_OP_minus, DW_OP_stack_value] undef
	.loc	9 1594 18                       @ ../../../../Library/StdDriver/src/clk.c:1594:18
	ldr	r3, [r5]
.Ltmp280:
	@DEBUG_VALUE: CLK_WaitClockReady:u32TimeOutCnt <- [DW_OP_constu 2, DW_OP_minus, DW_OP_stack_value] undef
	.loc	9 1594 5                        @ ../../../../Library/StdDriver/src/clk.c:1594:5
	cbz	r2, .LBB17_9
.Ltmp281:
@ %bb.4:                                @   in Loop: Header=BB17_1 Depth=1
	@DEBUG_VALUE: CLK_SetCoreClock:u32HIRCSTB <- [DW_OP_constu 8, DW_OP_and, DW_OP_stack_value] $r6
	@DEBUG_VALUE: CLK_SetCoreClock:u32Aclk <- [DW_OP_LLVM_entry_value 1] $r0
	@DEBUG_VALUE: CLK_WaitClockReady:u32ClkMask <- 8
	@DEBUG_VALUE: CLK_WaitClockReady:u32Ret <- 1
	.loc	9 0 0                           @ ../../../../Library/StdDriver/src/clk.c:0:0
	ands	r3, r3, #8
	.loc	9 1594 5                        @ ../../../../Library/StdDriver/src/clk.c:1594:5
	bne	.LBB17_9
.Ltmp282:
@ %bb.5:                                @   in Loop: Header=BB17_1 Depth=1
	@DEBUG_VALUE: CLK_SetCoreClock:u32HIRCSTB <- [DW_OP_constu 8, DW_OP_and, DW_OP_stack_value] $r6
	@DEBUG_VALUE: CLK_SetCoreClock:u32Aclk <- [DW_OP_LLVM_entry_value 1] $r0
	@DEBUG_VALUE: CLK_WaitClockReady:u32ClkMask <- 8
	@DEBUG_VALUE: CLK_WaitClockReady:u32Ret <- 1
	@DEBUG_VALUE: CLK_WaitClockReady:u32TimeOutCnt <- [DW_OP_constu 2, DW_OP_minus, DW_OP_stack_value] undef
	.loc	9 1594 18                       @ ../../../../Library/StdDriver/src/clk.c:1594:18
	ldr	r3, [r5]
.Ltmp283:
	@DEBUG_VALUE: CLK_WaitClockReady:u32TimeOutCnt <- [DW_OP_constu 3, DW_OP_minus, DW_OP_stack_value] undef
	.loc	9 1594 5                        @ ../../../../Library/StdDriver/src/clk.c:1594:5
	adds	r4, r2, #1
	beq	.LBB17_9
.Ltmp284:
@ %bb.6:                                @   in Loop: Header=BB17_1 Depth=1
	@DEBUG_VALUE: CLK_SetCoreClock:u32HIRCSTB <- [DW_OP_constu 8, DW_OP_and, DW_OP_stack_value] $r6
	@DEBUG_VALUE: CLK_SetCoreClock:u32Aclk <- [DW_OP_LLVM_entry_value 1] $r0
	@DEBUG_VALUE: CLK_WaitClockReady:u32ClkMask <- 8
	@DEBUG_VALUE: CLK_WaitClockReady:u32Ret <- 1
	.loc	9 0 0                           @ ../../../../Library/StdDriver/src/clk.c:0:0
	ands	r3, r3, #8
	.loc	9 1594 5                        @ ../../../../Library/StdDriver/src/clk.c:1594:5
	bne	.LBB17_9
.Ltmp285:
@ %bb.7:                                @   in Loop: Header=BB17_1 Depth=1
	@DEBUG_VALUE: CLK_SetCoreClock:u32HIRCSTB <- [DW_OP_constu 8, DW_OP_and, DW_OP_stack_value] $r6
	@DEBUG_VALUE: CLK_SetCoreClock:u32Aclk <- [DW_OP_LLVM_entry_value 1] $r0
	@DEBUG_VALUE: CLK_WaitClockReady:u32ClkMask <- 8
	@DEBUG_VALUE: CLK_WaitClockReady:u32Ret <- 1
	@DEBUG_VALUE: CLK_WaitClockReady:u32TimeOutCnt <- [DW_OP_constu 3, DW_OP_minus, DW_OP_stack_value] undef
	.loc	9 1594 18                       @ ../../../../Library/StdDriver/src/clk.c:1594:18
	ldr	r3, [r5]
.Ltmp286:
	@DEBUG_VALUE: CLK_WaitClockReady:u32TimeOutCnt <- [DW_OP_constu 4, DW_OP_minus, DW_OP_stack_value] undef
	.loc	9 1594 5                        @ ../../../../Library/StdDriver/src/clk.c:1594:5
	adds	r4, r2, #2
	beq	.LBB17_9
.Ltmp287:
@ %bb.8:                                @   in Loop: Header=BB17_1 Depth=1
	@DEBUG_VALUE: CLK_SetCoreClock:u32HIRCSTB <- [DW_OP_constu 8, DW_OP_and, DW_OP_stack_value] $r6
	@DEBUG_VALUE: CLK_SetCoreClock:u32Aclk <- [DW_OP_LLVM_entry_value 1] $r0
	@DEBUG_VALUE: CLK_WaitClockReady:u32ClkMask <- 8
	@DEBUG_VALUE: CLK_WaitClockReady:u32Ret <- 1
	.loc	9 0 0                           @ ../../../../Library/StdDriver/src/clk.c:0:0
	ands	r3, r3, #8
	.loc	9 1594 5                        @ ../../../../Library/StdDriver/src/clk.c:1594:5
	add.w	r2, r2, #4
	beq	.LBB17_1
.Ltmp288:
.LBB17_9:
	@DEBUG_VALUE: CLK_SetCoreClock:u32HIRCSTB <- [DW_OP_constu 8, DW_OP_and, DW_OP_stack_value] $r6
	@DEBUG_VALUE: CLK_SetCoreClock:u32Aclk <- [DW_OP_LLVM_entry_value 1] $r0
	.loc	9 413 26 is_stmt 1              @ ../../../../Library/StdDriver/src/clk.c:413:26
	ldr.w	r2, [r5, #1020]
	.loc	9 401 9                         @ ../../../../Library/StdDriver/src/clk.c:401:9
	cmp	r0, r1
	.loc	9 413 34                        @ ../../../../Library/StdDriver/src/clk.c:413:34
	bic	r2, r2, #7
	.loc	9 413 18 is_stmt 0              @ ../../../../Library/StdDriver/src/clk.c:413:18
	str.w	r2, [r5, #1020]
.Ltmp289:
	.loc	9 416 14 is_stmt 1              @ ../../../../Library/StdDriver/src/clk.c:416:14
	ldr	r2, [r5]
.Ltmp290:
	.loc	9 401 9                         @ ../../../../Library/StdDriver/src/clk.c:401:9
	csel	r1, r0, r1, lo
	@DEBUG_VALUE: CLK_WaitClockReady:u32Ret <- undef
.Ltmp291:
	@DEBUG_VALUE: CLK_SetCoreClock:u32Aclk <- $r1
	.loc	9 416 9                         @ ../../../../Library/StdDriver/src/clk.c:416:9
	lsls	r0, r2, #27
	bmi	.LBB17_11
.Ltmp292:
@ %bb.10:
	@DEBUG_VALUE: CLK_SetCoreClock:u32HIRCSTB <- [DW_OP_constu 8, DW_OP_and, DW_OP_stack_value] $r6
	@DEBUG_VALUE: CLK_SetCoreClock:u32Aclk <- $r1
	.loc	9 423 19                        @ ../../../../Library/StdDriver/src/clk.c:423:19
	movs	r0, #1
	movs	r2, #0
	bl	CLK_EnableAPLL
.Ltmp293:
	.loc	9 426 27                        @ ../../../../Library/StdDriver/src/clk.c:426:27
	ldr	r6, [r5]
.Ltmp294:
	@DEBUG_VALUE: CLK_SetCoreClock:u32HIRCSTB <- [DW_OP_constu 8, DW_OP_and, DW_OP_stack_value] $r6
	.loc	9 0 27 is_stmt 0                @ ../../../../Library/StdDriver/src/clk.c:0:27
	b	.LBB17_12
.Ltmp295:
.LBB17_11:
	@DEBUG_VALUE: CLK_SetCoreClock:u32HIRCSTB <- [DW_OP_constu 8, DW_OP_and, DW_OP_stack_value] $r6
	@DEBUG_VALUE: CLK_SetCoreClock:u32Aclk <- $r1
	.loc	9 418 19 is_stmt 1              @ ../../../../Library/StdDriver/src/clk.c:418:19
	movs	r0, #0
	movs	r2, #0
	bl	CLK_EnableAPLL
.Ltmp296:
.LBB17_12:
	@DEBUG_VALUE: CLK_SetCoreClock:u32HIRCSTB <- [DW_OP_constu 8, DW_OP_and, DW_OP_stack_value] $r6
	.loc	9 0 0 is_stmt 0                 @ ../../../../Library/StdDriver/src/clk.c:0:0
	mov	r4, r0
.Ltmp297:
	@DEBUG_VALUE: CLK_SetCoreClock:u32Aclk <- $r4
	.loc	9 433 5 is_stmt 1               @ ../../../../Library/StdDriver/src/clk.c:433:5
	movs	r0, #4
	bl	CLK_SetSCLK
.Ltmp298:
	.loc	9 436 9                         @ ../../../../Library/StdDriver/src/clk.c:436:9
	lsls	r0, r6, #28
.Ltmp299:
	@DEBUG_VALUE: CLK_SetCoreClock:u32HIRCSTB <- $r0
	.loc	9 438 21                        @ ../../../../Library/StdDriver/src/clk.c:438:21
	ittt	pl
	ldrpl	r0, [r5, #-4]
.Ltmp300:
	bicpl	r0, r0, #8
	strpl	r0, [r5, #-4]
.Ltmp301:
	.loc	9 442 5                         @ ../../../../Library/StdDriver/src/clk.c:442:5
	mov	r0, r4
	pop	{r4, r5, r6, pc}
.Ltmp302:
.Lfunc_end17:
	.size	CLK_SetCoreClock, .Lfunc_end17-CLK_SetCoreClock
	.cfi_endproc
	.cantunwind
	.fnend
                                        @ -- End function
	.section	.text.CLK_WaitClockReady,"ax",%progbits
	.hidden	CLK_WaitClockReady              @ -- Begin function CLK_WaitClockReady
	.globl	CLK_WaitClockReady
	.p2align	2
	.type	CLK_WaitClockReady,%function
	.code	16                              @ @CLK_WaitClockReady
	.thumb_func
CLK_WaitClockReady:
.Lfunc_begin18:
	.loc	9 1590 0                        @ ../../../../Library/StdDriver/src/clk.c:1590:0
	.fnstart
	.cfi_startproc
@ %bb.0:
	@DEBUG_VALUE: CLK_WaitClockReady:u32ClkMask <- $r0
	.loc	9 1591 30 prologue_end          @ ../../../../Library/StdDriver/src/clk.c:1591:30
	movw	r1, :lower16:SystemCoreClock
	movt	r1, :upper16:SystemCoreClock
	ldr	r2, [r1]
	@DEBUG_VALUE: CLK_WaitClockReady:u32ClkMask <- $r0
	movw	r1, #4100
	movt	r1, #16384
	.loc	9 1591 46 is_stmt 0             @ ../../../../Library/StdDriver/src/clk.c:1591:46
	lsrs	r2, r2, #1
.Ltmp303:
	@DEBUG_VALUE: CLK_WaitClockReady:u32Ret <- 1
	@DEBUG_VALUE: CLK_WaitClockReady:u32TimeOutCnt <- $r2
	.p2align	2
.LBB18_1:                               @ =>This Inner Loop Header: Depth=1
	@DEBUG_VALUE: CLK_WaitClockReady:u32TimeOutCnt <- $r2
	@DEBUG_VALUE: CLK_WaitClockReady:u32TimeOutCnt <- $r2
	.loc	9 1594 18 is_stmt 1             @ ../../../../Library/StdDriver/src/clk.c:1594:18
	ldr	r3, [r1]
	.loc	9 1594 25 is_stmt 0             @ ../../../../Library/StdDriver/src/clk.c:1594:25
	ands	r3, r0
	.loc	9 1594 5                        @ ../../../../Library/StdDriver/src/clk.c:1594:5
	cmp	r3, r0
	itt	eq
	moveq	r0, #1
.Ltmp304:
	@DEBUG_VALUE: CLK_WaitClockReady:u32ClkMask <- [DW_OP_LLVM_entry_value 1] $r0
	@DEBUG_VALUE: CLK_WaitClockReady:u32Ret <- $r0
	.loc	9 1603 5 is_stmt 1              @ ../../../../Library/StdDriver/src/clk.c:1603:5
	bxeq	lr
.Ltmp305:
.LBB18_2:                               @   in Loop: Header=BB18_1 Depth=1
	@DEBUG_VALUE: CLK_WaitClockReady:u32TimeOutCnt <- $r2
	@DEBUG_VALUE: CLK_WaitClockReady:u32Ret <- $r0
	@DEBUG_VALUE: CLK_WaitClockReady:u32TimeOutCnt <- [DW_OP_constu 1, DW_OP_minus, DW_OP_stack_value] $r2
	.loc	9 1596 13                       @ ../../../../Library/StdDriver/src/clk.c:1596:13
	cmp	r2, #1
	itt	eq
	moveq	r0, #0
.Ltmp306:
	@DEBUG_VALUE: CLK_WaitClockReady:u32Ret <- $r0
	.loc	9 1603 5                        @ ../../../../Library/StdDriver/src/clk.c:1603:5
	bxeq	lr
.Ltmp307:
.LBB18_3:                               @   in Loop: Header=BB18_1 Depth=1
	@DEBUG_VALUE: CLK_WaitClockReady:u32TimeOutCnt <- [DW_OP_constu 1, DW_OP_minus, DW_OP_stack_value] $r2
	@DEBUG_VALUE: CLK_WaitClockReady:u32Ret <- $r0
	@DEBUG_VALUE: CLK_WaitClockReady:u32TimeOutCnt <- [DW_OP_constu 1, DW_OP_minus, DW_OP_stack_value] $r2
	.loc	9 1594 18                       @ ../../../../Library/StdDriver/src/clk.c:1594:18
	ldr	r3, [r1]
	.loc	9 1594 25 is_stmt 0             @ ../../../../Library/StdDriver/src/clk.c:1594:25
	ands	r3, r0
	.loc	9 1594 5                        @ ../../../../Library/StdDriver/src/clk.c:1594:5
	cmp	r3, r0
	itt	eq
	moveq	r0, #1
.Ltmp308:
	@DEBUG_VALUE: CLK_WaitClockReady:u32Ret <- $r0
	.loc	9 1603 5 is_stmt 1              @ ../../../../Library/StdDriver/src/clk.c:1603:5
	bxeq	lr
.Ltmp309:
.LBB18_4:                               @   in Loop: Header=BB18_1 Depth=1
	@DEBUG_VALUE: CLK_WaitClockReady:u32TimeOutCnt <- [DW_OP_constu 1, DW_OP_minus, DW_OP_stack_value] $r2
	@DEBUG_VALUE: CLK_WaitClockReady:u32Ret <- $r0
	@DEBUG_VALUE: CLK_WaitClockReady:u32TimeOutCnt <- [DW_OP_constu 2, DW_OP_minus, DW_OP_stack_value] $r2
	.loc	9 1596 13                       @ ../../../../Library/StdDriver/src/clk.c:1596:13
	cmp	r2, #2
	itt	eq
	moveq	r0, #0
.Ltmp310:
	@DEBUG_VALUE: CLK_WaitClockReady:u32Ret <- $r0
	.loc	9 1603 5                        @ ../../../../Library/StdDriver/src/clk.c:1603:5
	bxeq	lr
.Ltmp311:
.LBB18_5:                               @   in Loop: Header=BB18_1 Depth=1
	@DEBUG_VALUE: CLK_WaitClockReady:u32TimeOutCnt <- [DW_OP_constu 2, DW_OP_minus, DW_OP_stack_value] $r2
	@DEBUG_VALUE: CLK_WaitClockReady:u32Ret <- $r0
	@DEBUG_VALUE: CLK_WaitClockReady:u32TimeOutCnt <- [DW_OP_constu 2, DW_OP_minus, DW_OP_stack_value] $r2
	.loc	9 1594 18                       @ ../../../../Library/StdDriver/src/clk.c:1594:18
	ldr	r3, [r1]
	.loc	9 1594 25 is_stmt 0             @ ../../../../Library/StdDriver/src/clk.c:1594:25
	ands	r3, r0
	.loc	9 1594 5                        @ ../../../../Library/StdDriver/src/clk.c:1594:5
	cmp	r3, r0
	itt	eq
	moveq	r0, #1
.Ltmp312:
	@DEBUG_VALUE: CLK_WaitClockReady:u32Ret <- $r0
	.loc	9 1603 5 is_stmt 1              @ ../../../../Library/StdDriver/src/clk.c:1603:5
	bxeq	lr
.Ltmp313:
.LBB18_6:                               @   in Loop: Header=BB18_1 Depth=1
	@DEBUG_VALUE: CLK_WaitClockReady:u32TimeOutCnt <- [DW_OP_constu 2, DW_OP_minus, DW_OP_stack_value] $r2
	@DEBUG_VALUE: CLK_WaitClockReady:u32Ret <- $r0
	@DEBUG_VALUE: CLK_WaitClockReady:u32TimeOutCnt <- [DW_OP_constu 3, DW_OP_minus, DW_OP_stack_value] $r2
	.loc	9 1596 13                       @ ../../../../Library/StdDriver/src/clk.c:1596:13
	cmp	r2, #3
	itt	eq
	moveq	r0, #0
.Ltmp314:
	@DEBUG_VALUE: CLK_WaitClockReady:u32Ret <- $r0
	.loc	9 1603 5                        @ ../../../../Library/StdDriver/src/clk.c:1603:5
	bxeq	lr
.Ltmp315:
.LBB18_7:                               @   in Loop: Header=BB18_1 Depth=1
	@DEBUG_VALUE: CLK_WaitClockReady:u32TimeOutCnt <- [DW_OP_constu 3, DW_OP_minus, DW_OP_stack_value] $r2
	@DEBUG_VALUE: CLK_WaitClockReady:u32Ret <- $r0
	@DEBUG_VALUE: CLK_WaitClockReady:u32TimeOutCnt <- [DW_OP_constu 3, DW_OP_minus, DW_OP_stack_value] $r2
	.loc	9 1594 18                       @ ../../../../Library/StdDriver/src/clk.c:1594:18
	ldr	r3, [r1]
	.loc	9 1594 25 is_stmt 0             @ ../../../../Library/StdDriver/src/clk.c:1594:25
	ands	r3, r0
	.loc	9 1594 5                        @ ../../../../Library/StdDriver/src/clk.c:1594:5
	cmp	r3, r0
	itt	eq
	moveq	r0, #1
.Ltmp316:
	@DEBUG_VALUE: CLK_WaitClockReady:u32Ret <- $r0
	.loc	9 1603 5 is_stmt 1              @ ../../../../Library/StdDriver/src/clk.c:1603:5
	bxeq	lr
.Ltmp317:
.LBB18_8:                               @   in Loop: Header=BB18_1 Depth=1
	@DEBUG_VALUE: CLK_WaitClockReady:u32TimeOutCnt <- [DW_OP_constu 3, DW_OP_minus, DW_OP_stack_value] $r2
	@DEBUG_VALUE: CLK_WaitClockReady:u32Ret <- $r0
	.loc	9 1596 13                       @ ../../../../Library/StdDriver/src/clk.c:1596:13
	subs	r2, #4
.Ltmp318:
	@DEBUG_VALUE: CLK_WaitClockReady:u32TimeOutCnt <- $r2
	.loc	9 0 13 is_stmt 0                @ ../../../../Library/StdDriver/src/clk.c:0:13
	itt	eq
	moveq	r0, #0
.Ltmp319:
	@DEBUG_VALUE: CLK_WaitClockReady:u32Ret <- $r0
	.loc	9 1603 5 is_stmt 1              @ ../../../../Library/StdDriver/src/clk.c:1603:5
	bxeq	lr
	b	.LBB18_1
.Ltmp320:
.Lfunc_end18:
	.size	CLK_WaitClockReady, .Lfunc_end18-CLK_WaitClockReady
	.cfi_endproc
	.cantunwind
	.fnend
                                        @ -- End function
	.section	.text.CLK_EnableAPLL,"ax",%progbits
	.hidden	CLK_EnableAPLL                  @ -- Begin function CLK_EnableAPLL
	.globl	CLK_EnableAPLL
	.p2align	2
	.type	CLK_EnableAPLL,%function
	.code	16                              @ @CLK_EnableAPLL
	.thumb_func
CLK_EnableAPLL:
.Lfunc_begin19:
	.loc	9 1337 0                        @ ../../../../Library/StdDriver/src/clk.c:1337:0
	.fnstart
	.cfi_startproc
@ %bb.0:
	@DEBUG_VALUE: CLK_EnableAPLL:u32PllClkSrc <- $r0
	@DEBUG_VALUE: CLK_EnableAPLL:u32PllFreq <- $r1
	@DEBUG_VALUE: CLK_EnableAPLL:u32PllSelect <- $r2
	.save	{r4, r5, r6, r7, r8, r9, r10, r11, lr}
	push.w	{r4, r5, r6, r7, r8, r9, r10, r11, lr}
	.cfi_def_cfa_offset 36
	.cfi_offset lr, -4
	.cfi_offset r11, -8
	.cfi_offset r10, -12
	.cfi_offset r9, -16
	.cfi_offset r8, -20
	.cfi_offset r7, -24
	.cfi_offset r6, -28
	.cfi_offset r5, -32
	.cfi_offset r4, -36
	.pad	#16
	sub	sp, #16
	.cfi_def_cfa_offset 52
	movw	r7, #4100
	mov	r5, r2
.Ltmp321:
	@DEBUG_VALUE: CLK_EnableAPLL:u32PllSelect <- $r5
	movt	r7, #16384
	@DEBUG_VALUE: CLK_EnableAPLL:u32PllSelect <- $r5
	@DEBUG_VALUE: CLK_EnableAPLL:u32PllFreq <- $r1
.Ltmp322:
	@DEBUG_VALUE: CLK_EnableAPLL:u32PllClkSrc <- $r6
	mov	r6, r0
.Ltmp323:
	.loc	9 0 0 prologue_end              @ ../../../../Library/StdDriver/src/clk.c:0:0
	ldr	r0, [r7, #-4]
	mvn	r2, #128
.Ltmp324:
	.loc	9 1342 9                        @ ../../../../Library/StdDriver/src/clk.c:1342:9
	cmp	r5, #0
	it	eq
	mvneq	r2, #64
.Ltmp325:
	.loc	9 0 0 is_stmt 0                 @ ../../../../Library/StdDriver/src/clk.c:0:0
	ands	r0, r2
	str	r0, [r7, #-4]
.Ltmp326:
	.loc	9 1352 9 is_stmt 1              @ ../../../../Library/StdDriver/src/clk.c:1352:9
	cbz	r6, .LBB19_11
.Ltmp327:
@ %bb.1:
	@DEBUG_VALUE: CLK_EnableAPLL:u32PllSelect <- $r5
	@DEBUG_VALUE: CLK_EnableAPLL:u32PllFreq <- $r1
	.loc	9 0 0 is_stmt 0                 @ ../../../../Library/StdDriver/src/clk.c:0:0
	ldr	r0, [r7, #-4]
.Ltmp328:
	.loc	9 1364 14 is_stmt 1             @ ../../../../Library/StdDriver/src/clk.c:1364:14
	cmp	r6, #1
	bne	.LBB19_20
.Ltmp329:
@ %bb.2:
	@DEBUG_VALUE: CLK_EnableAPLL:u32PllSelect <- $r5
	@DEBUG_VALUE: CLK_EnableAPLL:u32PllFreq <- $r1
	.loc	9 1367 21                       @ ../../../../Library/StdDriver/src/clk.c:1367:21
	orr	r0, r0, #8
	movs	r2, #2
.Ltmp330:
	@DEBUG_VALUE: CLK_WaitClockReady:u32Ret <- 1
	@DEBUG_VALUE: CLK_WaitClockReady:u32TimeOutCnt <- undef
	str	r0, [r7, #-4]
.Ltmp331:
	@DEBUG_VALUE: CLK_WaitClockReady:u32ClkMask <- 8
	.loc	9 1591 30                       @ ../../../../Library/StdDriver/src/clk.c:1591:30
	movw	r0, :lower16:SystemCoreClock
	movt	r0, :upper16:SystemCoreClock
	ldr	r0, [r0]
	.loc	9 1594 5                        @ ../../../../Library/StdDriver/src/clk.c:1594:5
	sub.w	r0, r2, r0, lsr #1
.Ltmp332:
	.p2align	2
.LBB19_3:                               @ =>This Inner Loop Header: Depth=1
	@DEBUG_VALUE: CLK_EnableAPLL:u32PllSelect <- $r5
	@DEBUG_VALUE: CLK_EnableAPLL:u32PllFreq <- $r1
	@DEBUG_VALUE: CLK_WaitClockReady:u32ClkMask <- 8
	@DEBUG_VALUE: CLK_WaitClockReady:u32Ret <- 1
	@DEBUG_VALUE: CLK_WaitClockReady:u32TimeOutCnt <- undef
	.loc	9 1594 18 is_stmt 0             @ ../../../../Library/StdDriver/src/clk.c:1594:18
	ldr	r2, [r7]
.Ltmp333:
	@DEBUG_VALUE: CLK_WaitClockReady:u32TimeOutCnt <- [DW_OP_constu 1, DW_OP_minus, DW_OP_stack_value] undef
	.loc	9 1594 5                        @ ../../../../Library/StdDriver/src/clk.c:1594:5
	cmp	r0, #1
	beq	.LBB19_29
.Ltmp334:
@ %bb.4:                                @   in Loop: Header=BB19_3 Depth=1
	@DEBUG_VALUE: CLK_EnableAPLL:u32PllSelect <- $r5
	@DEBUG_VALUE: CLK_EnableAPLL:u32PllFreq <- $r1
	@DEBUG_VALUE: CLK_WaitClockReady:u32ClkMask <- 8
	@DEBUG_VALUE: CLK_WaitClockReady:u32Ret <- 1
	.loc	9 0 0                           @ ../../../../Library/StdDriver/src/clk.c:0:0
	ands	r2, r2, #8
	.loc	9 1594 5                        @ ../../../../Library/StdDriver/src/clk.c:1594:5
	bne	.LBB19_29
.Ltmp335:
@ %bb.5:                                @   in Loop: Header=BB19_3 Depth=1
	@DEBUG_VALUE: CLK_EnableAPLL:u32PllSelect <- $r5
	@DEBUG_VALUE: CLK_EnableAPLL:u32PllFreq <- $r1
	@DEBUG_VALUE: CLK_WaitClockReady:u32ClkMask <- 8
	@DEBUG_VALUE: CLK_WaitClockReady:u32Ret <- 1
	@DEBUG_VALUE: CLK_WaitClockReady:u32TimeOutCnt <- [DW_OP_constu 1, DW_OP_minus, DW_OP_stack_value] undef
	.loc	9 1594 18                       @ ../../../../Library/StdDriver/src/clk.c:1594:18
	ldr	r2, [r7]
.Ltmp336:
	@DEBUG_VALUE: CLK_WaitClockReady:u32TimeOutCnt <- [DW_OP_constu 2, DW_OP_minus, DW_OP_stack_value] undef
	.loc	9 1594 5                        @ ../../../../Library/StdDriver/src/clk.c:1594:5
	cmp	r0, #0
	beq	.LBB19_29
.Ltmp337:
@ %bb.6:                                @   in Loop: Header=BB19_3 Depth=1
	@DEBUG_VALUE: CLK_EnableAPLL:u32PllSelect <- $r5
	@DEBUG_VALUE: CLK_EnableAPLL:u32PllFreq <- $r1
	@DEBUG_VALUE: CLK_WaitClockReady:u32ClkMask <- 8
	@DEBUG_VALUE: CLK_WaitClockReady:u32Ret <- 1
	.loc	9 0 0                           @ ../../../../Library/StdDriver/src/clk.c:0:0
	ands	r2, r2, #8
	bne	.LBB19_29
.Ltmp338:
@ %bb.7:                                @   in Loop: Header=BB19_3 Depth=1
	@DEBUG_VALUE: CLK_EnableAPLL:u32PllSelect <- $r5
	@DEBUG_VALUE: CLK_EnableAPLL:u32PllFreq <- $r1
	@DEBUG_VALUE: CLK_WaitClockReady:u32ClkMask <- 8
	@DEBUG_VALUE: CLK_WaitClockReady:u32Ret <- 1
	@DEBUG_VALUE: CLK_WaitClockReady:u32TimeOutCnt <- [DW_OP_constu 2, DW_OP_minus, DW_OP_stack_value] undef
	.loc	9 1594 18                       @ ../../../../Library/StdDriver/src/clk.c:1594:18
	ldr	r2, [r7]
.Ltmp339:
	@DEBUG_VALUE: CLK_WaitClockReady:u32TimeOutCnt <- [DW_OP_constu 3, DW_OP_minus, DW_OP_stack_value] undef
	.loc	9 1594 5                        @ ../../../../Library/StdDriver/src/clk.c:1594:5
	adds	r3, r0, #1
	beq	.LBB19_29
.Ltmp340:
@ %bb.8:                                @   in Loop: Header=BB19_3 Depth=1
	@DEBUG_VALUE: CLK_EnableAPLL:u32PllSelect <- $r5
	@DEBUG_VALUE: CLK_EnableAPLL:u32PllFreq <- $r1
	@DEBUG_VALUE: CLK_WaitClockReady:u32ClkMask <- 8
	@DEBUG_VALUE: CLK_WaitClockReady:u32Ret <- 1
	.loc	9 0 0                           @ ../../../../Library/StdDriver/src/clk.c:0:0
	ands	r2, r2, #8
	bne	.LBB19_29
.Ltmp341:
@ %bb.9:                                @   in Loop: Header=BB19_3 Depth=1
	@DEBUG_VALUE: CLK_EnableAPLL:u32PllSelect <- $r5
	@DEBUG_VALUE: CLK_EnableAPLL:u32PllFreq <- $r1
	@DEBUG_VALUE: CLK_WaitClockReady:u32ClkMask <- 8
	@DEBUG_VALUE: CLK_WaitClockReady:u32Ret <- 1
	@DEBUG_VALUE: CLK_WaitClockReady:u32TimeOutCnt <- [DW_OP_constu 3, DW_OP_minus, DW_OP_stack_value] undef
	.loc	9 1594 18                       @ ../../../../Library/StdDriver/src/clk.c:1594:18
	ldr	r2, [r7]
.Ltmp342:
	@DEBUG_VALUE: CLK_WaitClockReady:u32TimeOutCnt <- [DW_OP_constu 4, DW_OP_minus, DW_OP_stack_value] undef
	.loc	9 1594 5                        @ ../../../../Library/StdDriver/src/clk.c:1594:5
	adds	r3, r0, #2
	beq	.LBB19_29
.Ltmp343:
@ %bb.10:                               @   in Loop: Header=BB19_3 Depth=1
	@DEBUG_VALUE: CLK_EnableAPLL:u32PllSelect <- $r5
	@DEBUG_VALUE: CLK_EnableAPLL:u32PllFreq <- $r1
	@DEBUG_VALUE: CLK_WaitClockReady:u32ClkMask <- 8
	@DEBUG_VALUE: CLK_WaitClockReady:u32Ret <- 1
	.loc	9 0 0                           @ ../../../../Library/StdDriver/src/clk.c:0:0
	ands	r2, r2, #8
	.loc	9 1594 5                        @ ../../../../Library/StdDriver/src/clk.c:1594:5
	add.w	r0, r0, #4
	beq	.LBB19_3
	b	.LBB19_29
.Ltmp344:
.LBB19_11:
	@DEBUG_VALUE: CLK_EnableAPLL:u32PllSelect <- $r5
	@DEBUG_VALUE: CLK_EnableAPLL:u32PllFreq <- $r1
	.loc	9 1355 21 is_stmt 1             @ ../../../../Library/StdDriver/src/clk.c:1355:21
	ldr	r0, [r7, #-4]
	movs	r2, #2
.Ltmp345:
	@DEBUG_VALUE: CLK_WaitClockReady:u32Ret <- 1
	@DEBUG_VALUE: CLK_WaitClockReady:u32TimeOutCnt <- undef
	.loc	9 0 21 is_stmt 0                @ ../../../../Library/StdDriver/src/clk.c:0:21
	movw	r9, #13824
	.loc	9 1355 21                       @ ../../../../Library/StdDriver/src/clk.c:1355:21
	orr	r0, r0, #16
	str	r0, [r7, #-4]
.Ltmp346:
	@DEBUG_VALUE: CLK_WaitClockReady:u32ClkMask <- 16
	.loc	9 1591 30 is_stmt 1             @ ../../../../Library/StdDriver/src/clk.c:1591:30
	movw	r0, :lower16:SystemCoreClock
	movt	r0, :upper16:SystemCoreClock
	ldr	r0, [r0]
	movt	r9, #366
	.loc	9 1594 5                        @ ../../../../Library/StdDriver/src/clk.c:1594:5
	sub.w	r0, r2, r0, lsr #1
.Ltmp347:
	.p2align	2
.LBB19_12:                              @ =>This Inner Loop Header: Depth=1
	@DEBUG_VALUE: CLK_EnableAPLL:u32PllSelect <- $r5
	@DEBUG_VALUE: CLK_EnableAPLL:u32PllFreq <- $r1
	@DEBUG_VALUE: CLK_WaitClockReady:u32ClkMask <- 16
	@DEBUG_VALUE: CLK_WaitClockReady:u32Ret <- 1
	@DEBUG_VALUE: CLK_WaitClockReady:u32TimeOutCnt <- undef
	.loc	9 1594 18 is_stmt 0             @ ../../../../Library/StdDriver/src/clk.c:1594:18
	ldr	r2, [r7]
	mov.w	r11, #536870912
.Ltmp348:
	@DEBUG_VALUE: CLK_WaitClockReady:u32TimeOutCnt <- [DW_OP_constu 1, DW_OP_minus, DW_OP_stack_value] undef
	.loc	9 1594 5                        @ ../../../../Library/StdDriver/src/clk.c:1594:5
	cmp	r0, #1
	beq	.LBB19_30
.Ltmp349:
@ %bb.13:                               @   in Loop: Header=BB19_12 Depth=1
	@DEBUG_VALUE: CLK_EnableAPLL:u32PllSelect <- $r5
	@DEBUG_VALUE: CLK_EnableAPLL:u32PllFreq <- $r1
	@DEBUG_VALUE: CLK_WaitClockReady:u32ClkMask <- 16
	@DEBUG_VALUE: CLK_WaitClockReady:u32Ret <- 1
	.loc	9 0 0                           @ ../../../../Library/StdDriver/src/clk.c:0:0
	ands	r2, r2, #16
	.loc	9 1594 5                        @ ../../../../Library/StdDriver/src/clk.c:1594:5
	bne	.LBB19_30
.Ltmp350:
@ %bb.14:                               @   in Loop: Header=BB19_12 Depth=1
	@DEBUG_VALUE: CLK_EnableAPLL:u32PllSelect <- $r5
	@DEBUG_VALUE: CLK_EnableAPLL:u32PllFreq <- $r1
	@DEBUG_VALUE: CLK_WaitClockReady:u32ClkMask <- 16
	@DEBUG_VALUE: CLK_WaitClockReady:u32Ret <- 1
	@DEBUG_VALUE: CLK_WaitClockReady:u32TimeOutCnt <- [DW_OP_constu 1, DW_OP_minus, DW_OP_stack_value] undef
	.loc	9 1594 18                       @ ../../../../Library/StdDriver/src/clk.c:1594:18
	ldr	r2, [r7]
	mov.w	r11, #536870912
.Ltmp351:
	@DEBUG_VALUE: CLK_WaitClockReady:u32TimeOutCnt <- [DW_OP_constu 2, DW_OP_minus, DW_OP_stack_value] undef
	.loc	9 1594 5                        @ ../../../../Library/StdDriver/src/clk.c:1594:5
	cmp	r0, #0
	beq	.LBB19_30
.Ltmp352:
@ %bb.15:                               @   in Loop: Header=BB19_12 Depth=1
	@DEBUG_VALUE: CLK_EnableAPLL:u32PllSelect <- $r5
	@DEBUG_VALUE: CLK_EnableAPLL:u32PllFreq <- $r1
	@DEBUG_VALUE: CLK_WaitClockReady:u32ClkMask <- 16
	@DEBUG_VALUE: CLK_WaitClockReady:u32Ret <- 1
	.loc	9 0 0                           @ ../../../../Library/StdDriver/src/clk.c:0:0
	ands	r2, r2, #16
	bne	.LBB19_30
.Ltmp353:
@ %bb.16:                               @   in Loop: Header=BB19_12 Depth=1
	@DEBUG_VALUE: CLK_EnableAPLL:u32PllSelect <- $r5
	@DEBUG_VALUE: CLK_EnableAPLL:u32PllFreq <- $r1
	@DEBUG_VALUE: CLK_WaitClockReady:u32ClkMask <- 16
	@DEBUG_VALUE: CLK_WaitClockReady:u32Ret <- 1
	@DEBUG_VALUE: CLK_WaitClockReady:u32TimeOutCnt <- [DW_OP_constu 2, DW_OP_minus, DW_OP_stack_value] undef
	.loc	9 1594 18                       @ ../../../../Library/StdDriver/src/clk.c:1594:18
	ldr	r2, [r7]
	.loc	9 1594 5                        @ ../../../../Library/StdDriver/src/clk.c:1594:5
	adds	r3, r0, #1
	mov.w	r11, #536870912
.Ltmp354:
	@DEBUG_VALUE: CLK_WaitClockReady:u32TimeOutCnt <- [DW_OP_constu 3, DW_OP_minus, DW_OP_stack_value] undef
	.loc	9 0 5                           @ ../../../../Library/StdDriver/src/clk.c:0:5
	beq	.LBB19_30
.Ltmp355:
@ %bb.17:                               @   in Loop: Header=BB19_12 Depth=1
	@DEBUG_VALUE: CLK_EnableAPLL:u32PllSelect <- $r5
	@DEBUG_VALUE: CLK_EnableAPLL:u32PllFreq <- $r1
	@DEBUG_VALUE: CLK_WaitClockReady:u32ClkMask <- 16
	@DEBUG_VALUE: CLK_WaitClockReady:u32Ret <- 1
	ands	r2, r2, #16
	bne	.LBB19_30
.Ltmp356:
@ %bb.18:                               @   in Loop: Header=BB19_12 Depth=1
	@DEBUG_VALUE: CLK_EnableAPLL:u32PllSelect <- $r5
	@DEBUG_VALUE: CLK_EnableAPLL:u32PllFreq <- $r1
	@DEBUG_VALUE: CLK_WaitClockReady:u32ClkMask <- 16
	@DEBUG_VALUE: CLK_WaitClockReady:u32Ret <- 1
	@DEBUG_VALUE: CLK_WaitClockReady:u32TimeOutCnt <- [DW_OP_constu 3, DW_OP_minus, DW_OP_stack_value] undef
	.loc	9 1594 18                       @ ../../../../Library/StdDriver/src/clk.c:1594:18
	ldr	r2, [r7]
.Ltmp357:
	@DEBUG_VALUE: CLK_WaitClockReady:u32TimeOutCnt <- [DW_OP_constu 4, DW_OP_minus, DW_OP_stack_value] undef
	.loc	9 1594 5                        @ ../../../../Library/StdDriver/src/clk.c:1594:5
	adds	r3, r0, #2
	mov.w	r11, #536870912
	beq	.LBB19_30
.Ltmp358:
@ %bb.19:                               @   in Loop: Header=BB19_12 Depth=1
	@DEBUG_VALUE: CLK_EnableAPLL:u32PllSelect <- $r5
	@DEBUG_VALUE: CLK_EnableAPLL:u32PllFreq <- $r1
	@DEBUG_VALUE: CLK_WaitClockReady:u32ClkMask <- 16
	@DEBUG_VALUE: CLK_WaitClockReady:u32Ret <- 1
	.loc	9 0 0                           @ ../../../../Library/StdDriver/src/clk.c:0:0
	ands	r2, r2, #16
	.loc	9 1594 5                        @ ../../../../Library/StdDriver/src/clk.c:1594:5
	add.w	r0, r0, #4
	beq	.LBB19_12
	b	.LBB19_30
.Ltmp359:
.LBB19_20:
	@DEBUG_VALUE: CLK_EnableAPLL:u32PllSelect <- $r5
	@DEBUG_VALUE: CLK_EnableAPLL:u32PllFreq <- $r1
	.loc	9 1378 21 is_stmt 1             @ ../../../../Library/StdDriver/src/clk.c:1378:21
	orr	r0, r0, #32
	movs	r2, #2
.Ltmp360:
	@DEBUG_VALUE: CLK_WaitClockReady:u32Ret <- 1
	@DEBUG_VALUE: CLK_WaitClockReady:u32TimeOutCnt <- undef
	str	r0, [r7, #-4]
.Ltmp361:
	@DEBUG_VALUE: CLK_WaitClockReady:u32ClkMask <- 32
	.loc	9 1591 30                       @ ../../../../Library/StdDriver/src/clk.c:1591:30
	movw	r0, :lower16:SystemCoreClock
	movt	r0, :upper16:SystemCoreClock
	ldr	r0, [r0]
	.loc	9 1594 5                        @ ../../../../Library/StdDriver/src/clk.c:1594:5
	sub.w	r0, r2, r0, lsr #1
.Ltmp362:
	.p2align	2
.LBB19_21:                              @ =>This Inner Loop Header: Depth=1
	@DEBUG_VALUE: CLK_EnableAPLL:u32PllSelect <- $r5
	@DEBUG_VALUE: CLK_EnableAPLL:u32PllFreq <- $r1
	@DEBUG_VALUE: CLK_WaitClockReady:u32ClkMask <- 32
	@DEBUG_VALUE: CLK_WaitClockReady:u32Ret <- 1
	@DEBUG_VALUE: CLK_WaitClockReady:u32TimeOutCnt <- undef
	.loc	9 1594 18 is_stmt 0             @ ../../../../Library/StdDriver/src/clk.c:1594:18
	ldr	r2, [r7]
.Ltmp363:
	@DEBUG_VALUE: CLK_WaitClockReady:u32TimeOutCnt <- [DW_OP_constu 1, DW_OP_minus, DW_OP_stack_value] undef
	.loc	9 1594 5                        @ ../../../../Library/StdDriver/src/clk.c:1594:5
	cmp	r0, #1
	beq	.LBB19_29
.Ltmp364:
@ %bb.22:                               @   in Loop: Header=BB19_21 Depth=1
	@DEBUG_VALUE: CLK_EnableAPLL:u32PllSelect <- $r5
	@DEBUG_VALUE: CLK_EnableAPLL:u32PllFreq <- $r1
	@DEBUG_VALUE: CLK_WaitClockReady:u32ClkMask <- 32
	@DEBUG_VALUE: CLK_WaitClockReady:u32Ret <- 1
	.loc	9 0 0                           @ ../../../../Library/StdDriver/src/clk.c:0:0
	ands	r2, r2, #32
	.loc	9 1594 5                        @ ../../../../Library/StdDriver/src/clk.c:1594:5
	bne	.LBB19_29
.Ltmp365:
@ %bb.23:                               @   in Loop: Header=BB19_21 Depth=1
	@DEBUG_VALUE: CLK_EnableAPLL:u32PllSelect <- $r5
	@DEBUG_VALUE: CLK_EnableAPLL:u32PllFreq <- $r1
	@DEBUG_VALUE: CLK_WaitClockReady:u32ClkMask <- 32
	@DEBUG_VALUE: CLK_WaitClockReady:u32Ret <- 1
	@DEBUG_VALUE: CLK_WaitClockReady:u32TimeOutCnt <- [DW_OP_constu 1, DW_OP_minus, DW_OP_stack_value] undef
	.loc	9 1594 18                       @ ../../../../Library/StdDriver/src/clk.c:1594:18
	ldr	r2, [r7]
.Ltmp366:
	@DEBUG_VALUE: CLK_WaitClockReady:u32TimeOutCnt <- [DW_OP_constu 2, DW_OP_minus, DW_OP_stack_value] undef
	.loc	9 1594 5                        @ ../../../../Library/StdDriver/src/clk.c:1594:5
	cbz	r0, .LBB19_29
.Ltmp367:
@ %bb.24:                               @   in Loop: Header=BB19_21 Depth=1
	@DEBUG_VALUE: CLK_EnableAPLL:u32PllSelect <- $r5
	@DEBUG_VALUE: CLK_EnableAPLL:u32PllFreq <- $r1
	@DEBUG_VALUE: CLK_WaitClockReady:u32ClkMask <- 32
	@DEBUG_VALUE: CLK_WaitClockReady:u32Ret <- 1
	.loc	9 0 0                           @ ../../../../Library/StdDriver/src/clk.c:0:0
	ands	r2, r2, #32
	.loc	9 1594 5                        @ ../../../../Library/StdDriver/src/clk.c:1594:5
	bne	.LBB19_29
.Ltmp368:
@ %bb.25:                               @   in Loop: Header=BB19_21 Depth=1
	@DEBUG_VALUE: CLK_EnableAPLL:u32PllSelect <- $r5
	@DEBUG_VALUE: CLK_EnableAPLL:u32PllFreq <- $r1
	@DEBUG_VALUE: CLK_WaitClockReady:u32ClkMask <- 32
	@DEBUG_VALUE: CLK_WaitClockReady:u32Ret <- 1
	@DEBUG_VALUE: CLK_WaitClockReady:u32TimeOutCnt <- [DW_OP_constu 2, DW_OP_minus, DW_OP_stack_value] undef
	.loc	9 1594 18                       @ ../../../../Library/StdDriver/src/clk.c:1594:18
	ldr	r2, [r7]
.Ltmp369:
	@DEBUG_VALUE: CLK_WaitClockReady:u32TimeOutCnt <- [DW_OP_constu 3, DW_OP_minus, DW_OP_stack_value] undef
	.loc	9 1594 5                        @ ../../../../Library/StdDriver/src/clk.c:1594:5
	adds	r3, r0, #1
	beq	.LBB19_29
.Ltmp370:
@ %bb.26:                               @   in Loop: Header=BB19_21 Depth=1
	@DEBUG_VALUE: CLK_EnableAPLL:u32PllSelect <- $r5
	@DEBUG_VALUE: CLK_EnableAPLL:u32PllFreq <- $r1
	@DEBUG_VALUE: CLK_WaitClockReady:u32ClkMask <- 32
	@DEBUG_VALUE: CLK_WaitClockReady:u32Ret <- 1
	.loc	9 0 0                           @ ../../../../Library/StdDriver/src/clk.c:0:0
	ands	r2, r2, #32
	.loc	9 1594 5                        @ ../../../../Library/StdDriver/src/clk.c:1594:5
	bne	.LBB19_29
.Ltmp371:
@ %bb.27:                               @   in Loop: Header=BB19_21 Depth=1
	@DEBUG_VALUE: CLK_EnableAPLL:u32PllSelect <- $r5
	@DEBUG_VALUE: CLK_EnableAPLL:u32PllFreq <- $r1
	@DEBUG_VALUE: CLK_WaitClockReady:u32ClkMask <- 32
	@DEBUG_VALUE: CLK_WaitClockReady:u32Ret <- 1
	@DEBUG_VALUE: CLK_WaitClockReady:u32TimeOutCnt <- [DW_OP_constu 3, DW_OP_minus, DW_OP_stack_value] undef
	.loc	9 1594 18                       @ ../../../../Library/StdDriver/src/clk.c:1594:18
	ldr	r2, [r7]
.Ltmp372:
	@DEBUG_VALUE: CLK_WaitClockReady:u32TimeOutCnt <- [DW_OP_constu 4, DW_OP_minus, DW_OP_stack_value] undef
	.loc	9 1594 5                        @ ../../../../Library/StdDriver/src/clk.c:1594:5
	adds	r3, r0, #2
	beq	.LBB19_29
.Ltmp373:
@ %bb.28:                               @   in Loop: Header=BB19_21 Depth=1
	@DEBUG_VALUE: CLK_EnableAPLL:u32PllSelect <- $r5
	@DEBUG_VALUE: CLK_EnableAPLL:u32PllFreq <- $r1
	@DEBUG_VALUE: CLK_WaitClockReady:u32ClkMask <- 32
	@DEBUG_VALUE: CLK_WaitClockReady:u32Ret <- 1
	.loc	9 0 0                           @ ../../../../Library/StdDriver/src/clk.c:0:0
	ands	r2, r2, #32
	.loc	9 1594 5                        @ ../../../../Library/StdDriver/src/clk.c:1594:5
	add.w	r0, r0, #4
	beq	.LBB19_21
.Ltmp374:
.LBB19_29:
	@DEBUG_VALUE: CLK_EnableAPLL:u32PllSelect <- $r5
	@DEBUG_VALUE: CLK_EnableAPLL:u32PllFreq <- $r1
	.loc	9 0 5                           @ ../../../../Library/StdDriver/src/clk.c:0:5
	movw	r9, #6912
	mov.w	r11, #268435456
	movt	r9, #183
.Ltmp375:
.LBB19_30:
	@DEBUG_VALUE: CLK_EnableAPLL:u32PllSelect <- $r5
	@DEBUG_VALUE: CLK_EnableAPLL:u32PllFreq <- $r1
	@DEBUG_VALUE: CLK_EnableAPLL:u32StableSel <- $r11
	movw	r0, #34752
	movw	r2, #60608
	movt	r0, #65154
.Ltmp376:
	.loc	9 1407 37 is_stmt 1             @ ../../../../Library/StdDriver/src/clk.c:1407:37
	add	r0, r1
	movt	r2, #7247
	cmp	r0, r2
	bhi.w	.LBB19_75
.Ltmp377:
@ %bb.31:
	@DEBUG_VALUE: CLK_EnableAPLL:u32StableSel <- $r11
	@DEBUG_VALUE: CLK_EnableAPLL:u32PllSelect <- $r5
	@DEBUG_VALUE: CLK_EnableAPLL:u32PllFreq <- $r1
	.loc	9 0 37 is_stmt 0                @ ../../../../Library/StdDriver/src/clk.c:0:37
	movw	r0, #49664
	movw	r2, #57600
	movt	r0, #3051
	movw	lr, #7936
.Ltmp378:
	.loc	9 1410 40 is_stmt 1             @ ../../../../Library/StdDriver/src/clk.c:1410:40
	cmp	r1, r0
	movw	r7, #33793
	cset	r0, lo
	movt	r2, #1525
	mov.w	r10, #3
	cmp	r1, r2
	mov	r2, r0
	str	r5, [sp, #8]                    @ 4-byte Spill
.Ltmp379:
	@DEBUG_VALUE: CLK_EnableAPLL:u32PllSelect <- [DW_OP_plus_uconst 8] [$sp+0]
	.loc	9 0 40 is_stmt 0                @ ../../../../Library/StdDriver/src/clk.c:0:40
	mov.w	r12, #-1
	str	r6, [sp]                        @ 4-byte Spill
	.loc	9 1410 40                       @ ../../../../Library/StdDriver/src/clk.c:1410:40
	it	lo
	movlo	r2, #3
.Ltmp380:
	@DEBUG_VALUE: CLK_EnableAPLL:u32NO <- $r2
	.loc	9 0 40                          @ ../../../../Library/StdDriver/src/clk.c:0:40
	movt	lr, #64010
	mov.w	r8, #0
.Ltmp381:
	@DEBUG_VALUE: CLK_EnableAPLL:u32MinNF <- 0
	@DEBUG_VALUE: CLK_EnableAPLL:u32MinNR <- 0
	@DEBUG_VALUE: CLK_EnableAPLL:u32Min <- -1
	@DEBUG_VALUE: CLK_EnableAPLL:u32NR <- 3
	str	r2, [sp, #4]                    @ 4-byte Spill
.Ltmp382:
	@DEBUG_VALUE: CLK_EnableAPLL:u32NO <- [DW_OP_plus_uconst 4] [$sp+0]
	@DEBUG_VALUE: CLK_EnableAPLL:u32NO <- [DW_OP_plus_uconst 4] [$sp+0]
	.loc	9 1410 40                       @ ../../../../Library/StdDriver/src/clk.c:1410:40
	it	lo
	movlo	r0, #2
	movt	r7, #6103
	lsl.w	r5, r1, r0
.Ltmp383:
	@DEBUG_VALUE: CLK_EnableAPLL:u32PllFreq <- $r5
	.loc	9 0 40                          @ ../../../../Library/StdDriver/src/clk.c:0:40
	movs	r1, #0
	str.w	r9, [sp, #12]                   @ 4-byte Spill
	b	.LBB19_34
.Ltmp384:
	.p2align	2
.LBB19_32:                              @   in Loop: Header=BB19_34 Depth=1
	@DEBUG_VALUE: CLK_EnableAPLL:u32PllSelect <- [DW_OP_plus_uconst 8] [$sp+0]
	@DEBUG_VALUE: CLK_EnableAPLL:u32StableSel <- $r11
	@DEBUG_VALUE: CLK_EnableAPLL:u32Tmp2 <- $r6
	@DEBUG_VALUE: CLK_EnableAPLL:u32PllFreq <- $r5
	@DEBUG_VALUE: CLK_EnableAPLL:u32MinNR <- $r4
	@DEBUG_VALUE: CLK_EnableAPLL:u32NR <- $r4
	@DEBUG_VALUE: CLK_EnableAPLL:u32Min <- $r3
	@DEBUG_VALUE: CLK_EnableAPLL:u32Tmp3 <- $r3
	@DEBUG_VALUE: CLK_EnableAPLL:u32NO <- [DW_OP_plus_uconst 4] [$sp+0]
	mov.w	r12, #0
	mov	r8, r4
.Ltmp385:
	@DEBUG_VALUE: CLK_EnableAPLL:u32NR <- $r8
.LBB19_33:                              @   in Loop: Header=BB19_34 Depth=1
	@DEBUG_VALUE: CLK_EnableAPLL:u32PllSelect <- [DW_OP_plus_uconst 8] [$sp+0]
	@DEBUG_VALUE: CLK_EnableAPLL:u32StableSel <- $r11
	@DEBUG_VALUE: CLK_EnableAPLL:u32PllFreq <- $r5
	@DEBUG_VALUE: CLK_EnableAPLL:u32NO <- [DW_OP_plus_uconst 4] [$sp+0]
	@DEBUG_VALUE: CLK_EnableAPLL:u32Min <- $r12
	@DEBUG_VALUE: CLK_EnableAPLL:u32MinNR <- $r8
	@DEBUG_VALUE: CLK_EnableAPLL:u32MinNF <- $r1
	.loc	9 1433 36 is_stmt 1             @ ../../../../Library/StdDriver/src/clk.c:1433:36
	add.w	r10, r10, #2
.Ltmp386:
	@DEBUG_VALUE: CLK_EnableAPLL:u32NR <- $r10
	.loc	9 0 36 is_stmt 0                @ ../../../../Library/StdDriver/src/clk.c:0:36
	ldr.w	r9, [sp, #12]                   @ 4-byte Reload
.Ltmp387:
	.loc	9 1433 9                        @ ../../../../Library/StdDriver/src/clk.c:1433:9
	cmp.w	r10, #33
	beq.w	.LBB19_77
.Ltmp388:
.LBB19_34:                              @ =>This Loop Header: Depth=1
                                        @     Child Loop BB19_39 Depth 2
                                        @     Child Loop BB19_59 Depth 2
	@DEBUG_VALUE: CLK_EnableAPLL:u32PllSelect <- [DW_OP_plus_uconst 8] [$sp+0]
	@DEBUG_VALUE: CLK_EnableAPLL:u32StableSel <- $r11
	@DEBUG_VALUE: CLK_EnableAPLL:u32PllFreq <- $r5
	@DEBUG_VALUE: CLK_EnableAPLL:u32NO <- [DW_OP_plus_uconst 4] [$sp+0]
	@DEBUG_VALUE: CLK_EnableAPLL:u32NR <- $r10
	@DEBUG_VALUE: CLK_EnableAPLL:u32Min <- $r12
	@DEBUG_VALUE: CLK_EnableAPLL:u32MinNR <- $r8
	@DEBUG_VALUE: CLK_EnableAPLL:u32MinNF <- $r1
	@DEBUG_VALUE: CLK_EnableAPLL:u32Tmp <- undef
	.loc	9 1438 17 is_stmt 1             @ ../../../../Library/StdDriver/src/clk.c:1438:17
	cmp.w	r12, #0
	beq.w	.LBB19_77
.Ltmp389:
@ %bb.35:                               @   in Loop: Header=BB19_34 Depth=1
	@DEBUG_VALUE: CLK_EnableAPLL:u32PllSelect <- [DW_OP_plus_uconst 8] [$sp+0]
	@DEBUG_VALUE: CLK_EnableAPLL:u32Min <- $r12
	@DEBUG_VALUE: CLK_EnableAPLL:u32StableSel <- $r11
	@DEBUG_VALUE: CLK_EnableAPLL:u32NR <- $r10
	@DEBUG_VALUE: CLK_EnableAPLL:u32MinNR <- $r8
	@DEBUG_VALUE: CLK_EnableAPLL:u32PllFreq <- $r5
	@DEBUG_VALUE: CLK_EnableAPLL:u32MinNF <- $r1
	@DEBUG_VALUE: CLK_EnableAPLL:u32NO <- [DW_OP_plus_uconst 4] [$sp+0]
	.loc	9 0 0 is_stmt 0                 @ ../../../../Library/StdDriver/src/clk.c:0:0
	udiv	r0, r9, r10
.Ltmp390:
	@DEBUG_VALUE: CLK_EnableAPLL:u32Tmp <- $r0
	.loc	9 1443 39 is_stmt 1             @ ../../../../Library/StdDriver/src/clk.c:1443:39
	movw	r2, #63232
	movw	r3, #2305
	movt	r2, #65474
	add	r2, r0
	movt	r3, #61
	cmp	r2, r3
	bhs	.LBB19_55
.Ltmp391:
@ %bb.36:                               @   in Loop: Header=BB19_34 Depth=1
	@DEBUG_VALUE: CLK_EnableAPLL:u32PllSelect <- [DW_OP_plus_uconst 8] [$sp+0]
	@DEBUG_VALUE: CLK_EnableAPLL:u32Min <- $r12
	@DEBUG_VALUE: CLK_EnableAPLL:u32StableSel <- $r11
	@DEBUG_VALUE: CLK_EnableAPLL:u32NR <- $r10
	@DEBUG_VALUE: CLK_EnableAPLL:u32MinNR <- $r8
	@DEBUG_VALUE: CLK_EnableAPLL:u32PllFreq <- $r5
	@DEBUG_VALUE: CLK_EnableAPLL:u32MinNF <- $r1
	@DEBUG_VALUE: CLK_EnableAPLL:u32Tmp <- $r0
	@DEBUG_VALUE: CLK_EnableAPLL:u32NO <- [DW_OP_plus_uconst 4] [$sp+0]
	@DEBUG_VALUE: CLK_EnableAPLL:u32Min <- $r12
	@DEBUG_VALUE: CLK_EnableAPLL:u32MinNR <- $r8
	@DEBUG_VALUE: CLK_EnableAPLL:u32MinNF <- $r1
	@DEBUG_VALUE: CLK_EnableAPLL:u32NF <- 12
	.loc	9 0 39 is_stmt 0                @ ../../../../Library/StdDriver/src/clk.c:0:39
	lsls	r4, r0, #1
	movs	r0, #12
.Ltmp392:
	movs	r2, #0
	b	.LBB19_39
.Ltmp393:
	.p2align	2
.LBB19_37:                              @   in Loop: Header=BB19_39 Depth=2
	@DEBUG_VALUE: CLK_EnableAPLL:u32PllSelect <- [DW_OP_plus_uconst 8] [$sp+0]
	@DEBUG_VALUE: CLK_EnableAPLL:u32StableSel <- $r11
	@DEBUG_VALUE: CLK_EnableAPLL:u32MinNR <- $r10
	@DEBUG_VALUE: CLK_EnableAPLL:u32NR <- $r10
	@DEBUG_VALUE: CLK_EnableAPLL:u32Tmp2 <- $r6
	@DEBUG_VALUE: CLK_EnableAPLL:u32PllFreq <- $r5
	@DEBUG_VALUE: CLK_EnableAPLL:u32Min <- $r3
	@DEBUG_VALUE: CLK_EnableAPLL:u32Tmp3 <- $r3
	@DEBUG_VALUE: CLK_EnableAPLL:u32MinNF <- [DW_OP_constu 3, DW_OP_or, DW_OP_stack_value] $r0
	@DEBUG_VALUE: CLK_EnableAPLL:u32NO <- [DW_OP_plus_uconst 4] [$sp+0]
	@DEBUG_VALUE: CLK_EnableAPLL:u32Min <- $r3
	mov	r12, r3
.Ltmp394:
	@DEBUG_VALUE: CLK_EnableAPLL:u32Min <- $r12
	mov	r8, r10
.Ltmp395:
.LBB19_38:                              @   in Loop: Header=BB19_39 Depth=2
	@DEBUG_VALUE: CLK_EnableAPLL:u32PllSelect <- [DW_OP_plus_uconst 8] [$sp+0]
	@DEBUG_VALUE: CLK_EnableAPLL:u32Min <- $r12
	@DEBUG_VALUE: CLK_EnableAPLL:u32StableSel <- $r11
	@DEBUG_VALUE: CLK_EnableAPLL:u32NR <- $r10
	@DEBUG_VALUE: CLK_EnableAPLL:u32PllFreq <- $r5
	@DEBUG_VALUE: CLK_EnableAPLL:u32NO <- [DW_OP_plus_uconst 4] [$sp+0]
	@DEBUG_VALUE: CLK_EnableAPLL:u32Min <- $r12
	@DEBUG_VALUE: CLK_EnableAPLL:u32MinNR <- $r8
	@DEBUG_VALUE: CLK_EnableAPLL:u32MinNF <- $r1
	.loc	9 1445 42 is_stmt 1             @ ../../../../Library/StdDriver/src/clk.c:1445:42
	adds	r2, #4
	.loc	9 1445 57 is_stmt 0             @ ../../../../Library/StdDriver/src/clk.c:1445:57
	adds	r0, #4
.Ltmp396:
	@DEBUG_VALUE: CLK_EnableAPLL:u32NF <- $r0
	.loc	9 1445 17                       @ ../../../../Library/StdDriver/src/clk.c:1445:17
	cmp	r2, #244
	beq	.LBB19_55
.Ltmp397:
.LBB19_39:                              @   Parent Loop BB19_34 Depth=1
                                        @ =>  This Inner Loop Header: Depth=2
	@DEBUG_VALUE: CLK_EnableAPLL:u32PllSelect <- [DW_OP_plus_uconst 8] [$sp+0]
	@DEBUG_VALUE: CLK_EnableAPLL:u32Min <- $r12
	@DEBUG_VALUE: CLK_EnableAPLL:u32StableSel <- $r11
	@DEBUG_VALUE: CLK_EnableAPLL:u32NR <- $r10
	@DEBUG_VALUE: CLK_EnableAPLL:u32MinNR <- $r8
	@DEBUG_VALUE: CLK_EnableAPLL:u32PllFreq <- $r5
	@DEBUG_VALUE: CLK_EnableAPLL:u32MinNF <- $r1
	@DEBUG_VALUE: CLK_EnableAPLL:u32NO <- [DW_OP_plus_uconst 4] [$sp+0]
	@DEBUG_VALUE: CLK_EnableAPLL:u32Min <- $r12
	@DEBUG_VALUE: CLK_EnableAPLL:u32MinNR <- $r8
	@DEBUG_VALUE: CLK_EnableAPLL:u32MinNF <- $r1
	@DEBUG_VALUE: CLK_EnableAPLL:u32NF <- $r0
	@DEBUG_VALUE: CLK_EnableAPLL:u32Tmp2 <- undef
	.loc	9 1449 50 is_stmt 1             @ ../../../../Library/StdDriver/src/clk.c:1449:50
	mla	r3, r4, r0, lr
	cmp	r3, r7
	bhs	.LBB19_43
.Ltmp398:
@ %bb.40:                               @   in Loop: Header=BB19_39 Depth=2
	@DEBUG_VALUE: CLK_EnableAPLL:u32PllSelect <- [DW_OP_plus_uconst 8] [$sp+0]
	@DEBUG_VALUE: CLK_EnableAPLL:u32Min <- $r12
	@DEBUG_VALUE: CLK_EnableAPLL:u32StableSel <- $r11
	@DEBUG_VALUE: CLK_EnableAPLL:u32NR <- $r10
	@DEBUG_VALUE: CLK_EnableAPLL:u32MinNR <- $r8
	@DEBUG_VALUE: CLK_EnableAPLL:u32PllFreq <- $r5
	@DEBUG_VALUE: CLK_EnableAPLL:u32MinNF <- $r1
	@DEBUG_VALUE: CLK_EnableAPLL:u32NF <- $r0
	@DEBUG_VALUE: CLK_EnableAPLL:u32NO <- [DW_OP_plus_uconst 4] [$sp+0]
	.loc	9 0 0 is_stmt 0                 @ ../../../../Library/StdDriver/src/clk.c:0:0
	mul	r6, r4, r0
.Ltmp399:
	@DEBUG_VALUE: CLK_EnableAPLL:u32Tmp2 <- $r6
	.loc	9 1451 35 is_stmt 1             @ ../../../../Library/StdDriver/src/clk.c:1451:35
	subs	r3, r5, r6
	it	lo
	sublo	r3, r6, r5
.Ltmp400:
	@DEBUG_VALUE: CLK_EnableAPLL:u32Tmp3 <- $r3
	.loc	9 1453 29                       @ ../../../../Library/StdDriver/src/clk.c:1453:29
	cmp	r3, r12
	bhs	.LBB19_43
.Ltmp401:
@ %bb.41:                               @   in Loop: Header=BB19_39 Depth=2
	@DEBUG_VALUE: CLK_EnableAPLL:u32PllSelect <- [DW_OP_plus_uconst 8] [$sp+0]
	@DEBUG_VALUE: CLK_EnableAPLL:u32Min <- $r12
	@DEBUG_VALUE: CLK_EnableAPLL:u32StableSel <- $r11
	@DEBUG_VALUE: CLK_EnableAPLL:u32NR <- $r10
	@DEBUG_VALUE: CLK_EnableAPLL:u32MinNR <- $r8
	@DEBUG_VALUE: CLK_EnableAPLL:u32Tmp2 <- $r6
	@DEBUG_VALUE: CLK_EnableAPLL:u32PllFreq <- $r5
	@DEBUG_VALUE: CLK_EnableAPLL:u32Tmp3 <- $r3
	@DEBUG_VALUE: CLK_EnableAPLL:u32MinNF <- $r1
	@DEBUG_VALUE: CLK_EnableAPLL:u32NF <- $r0
	@DEBUG_VALUE: CLK_EnableAPLL:u32NO <- [DW_OP_plus_uconst 4] [$sp+0]
	.loc	9 0 0 is_stmt 0                 @ ../../../../Library/StdDriver/src/clk.c:0:0
	add.w	r1, r2, #12
.Ltmp402:
	@DEBUG_VALUE: CLK_EnableAPLL:u32MinNF <- $r0
	@DEBUG_VALUE: CLK_EnableAPLL:u32MinNR <- $r10
	@DEBUG_VALUE: CLK_EnableAPLL:u32Min <- $r3
	.loc	9 1460 33 is_stmt 1             @ ../../../../Library/StdDriver/src/clk.c:1460:33
	cbz	r3, .LBB19_54
.Ltmp403:
@ %bb.42:                               @   in Loop: Header=BB19_39 Depth=2
	@DEBUG_VALUE: CLK_EnableAPLL:u32PllSelect <- [DW_OP_plus_uconst 8] [$sp+0]
	@DEBUG_VALUE: CLK_EnableAPLL:u32StableSel <- $r11
	@DEBUG_VALUE: CLK_EnableAPLL:u32MinNR <- $r10
	@DEBUG_VALUE: CLK_EnableAPLL:u32NR <- $r10
	@DEBUG_VALUE: CLK_EnableAPLL:u32Tmp2 <- $r6
	@DEBUG_VALUE: CLK_EnableAPLL:u32PllFreq <- $r5
	@DEBUG_VALUE: CLK_EnableAPLL:u32Min <- $r3
	@DEBUG_VALUE: CLK_EnableAPLL:u32Tmp3 <- $r3
	@DEBUG_VALUE: CLK_EnableAPLL:u32MinNF <- $r0
	@DEBUG_VALUE: CLK_EnableAPLL:u32NF <- $r0
	@DEBUG_VALUE: CLK_EnableAPLL:u32NO <- [DW_OP_plus_uconst 4] [$sp+0]
	@DEBUG_VALUE: CLK_EnableAPLL:u32Min <- $r3
	.loc	9 0 0 is_stmt 0                 @ ../../../../Library/StdDriver/src/clk.c:0:0
	mov	r12, r3
.Ltmp404:
	@DEBUG_VALUE: CLK_EnableAPLL:u32Min <- $r12
	mov	r8, r10
.Ltmp405:
.LBB19_43:                              @   in Loop: Header=BB19_39 Depth=2
	@DEBUG_VALUE: CLK_EnableAPLL:u32PllSelect <- [DW_OP_plus_uconst 8] [$sp+0]
	@DEBUG_VALUE: CLK_EnableAPLL:u32Min <- $r12
	@DEBUG_VALUE: CLK_EnableAPLL:u32StableSel <- $r11
	@DEBUG_VALUE: CLK_EnableAPLL:u32NR <- $r10
	@DEBUG_VALUE: CLK_EnableAPLL:u32PllFreq <- $r5
	@DEBUG_VALUE: CLK_EnableAPLL:u32NF <- $r0
	@DEBUG_VALUE: CLK_EnableAPLL:u32NO <- [DW_OP_plus_uconst 4] [$sp+0]
	@DEBUG_VALUE: CLK_EnableAPLL:u32Min <- $r12
	@DEBUG_VALUE: CLK_EnableAPLL:u32MinNR <- $r8
	@DEBUG_VALUE: CLK_EnableAPLL:u32MinNF <- $r1
	.loc	9 1445 57 is_stmt 1             @ ../../../../Library/StdDriver/src/clk.c:1445:57
	orr	r3, r0, #1
.Ltmp406:
	@DEBUG_VALUE: CLK_EnableAPLL:u32Tmp2 <- undef
	@DEBUG_VALUE: CLK_EnableAPLL:u32NF <- $r3
	.loc	9 1449 50                       @ ../../../../Library/StdDriver/src/clk.c:1449:50
	mla	r6, r4, r3, lr
	cmp	r6, r7
	bhs	.LBB19_47
.Ltmp407:
@ %bb.44:                               @   in Loop: Header=BB19_39 Depth=2
	@DEBUG_VALUE: CLK_EnableAPLL:u32PllSelect <- [DW_OP_plus_uconst 8] [$sp+0]
	@DEBUG_VALUE: CLK_EnableAPLL:u32Min <- $r12
	@DEBUG_VALUE: CLK_EnableAPLL:u32StableSel <- $r11
	@DEBUG_VALUE: CLK_EnableAPLL:u32NR <- $r10
	@DEBUG_VALUE: CLK_EnableAPLL:u32MinNR <- $r8
	@DEBUG_VALUE: CLK_EnableAPLL:u32PllFreq <- $r5
	@DEBUG_VALUE: CLK_EnableAPLL:u32NF <- $r3
	@DEBUG_VALUE: CLK_EnableAPLL:u32MinNF <- $r1
	@DEBUG_VALUE: CLK_EnableAPLL:u32NO <- [DW_OP_plus_uconst 4] [$sp+0]
	.loc	9 0 0 is_stmt 0                 @ ../../../../Library/StdDriver/src/clk.c:0:0
	mul	r6, r4, r3
.Ltmp408:
	@DEBUG_VALUE: CLK_EnableAPLL:u32Tmp2 <- $r6
	.loc	9 1451 35 is_stmt 1             @ ../../../../Library/StdDriver/src/clk.c:1451:35
	subs	r3, r5, r6
.Ltmp409:
	it	lo
	sublo	r3, r6, r5
.Ltmp410:
	@DEBUG_VALUE: CLK_EnableAPLL:u32Tmp3 <- $r3
	.loc	9 1453 29                       @ ../../../../Library/StdDriver/src/clk.c:1453:29
	cmp	r3, r12
	bhs	.LBB19_47
.Ltmp411:
@ %bb.45:                               @   in Loop: Header=BB19_39 Depth=2
	@DEBUG_VALUE: CLK_EnableAPLL:u32PllSelect <- [DW_OP_plus_uconst 8] [$sp+0]
	@DEBUG_VALUE: CLK_EnableAPLL:u32Min <- $r12
	@DEBUG_VALUE: CLK_EnableAPLL:u32StableSel <- $r11
	@DEBUG_VALUE: CLK_EnableAPLL:u32NR <- $r10
	@DEBUG_VALUE: CLK_EnableAPLL:u32MinNR <- $r8
	@DEBUG_VALUE: CLK_EnableAPLL:u32Tmp2 <- $r6
	@DEBUG_VALUE: CLK_EnableAPLL:u32PllFreq <- $r5
	@DEBUG_VALUE: CLK_EnableAPLL:u32Tmp3 <- $r3
	@DEBUG_VALUE: CLK_EnableAPLL:u32MinNF <- $r1
	@DEBUG_VALUE: CLK_EnableAPLL:u32NO <- [DW_OP_plus_uconst 4] [$sp+0]
	@DEBUG_VALUE: CLK_EnableAPLL:u32MinNF <- [DW_OP_constu 1, DW_OP_or, DW_OP_stack_value] $r0
	.loc	9 0 0 is_stmt 0                 @ ../../../../Library/StdDriver/src/clk.c:0:0
	add.w	r1, r2, #13
.Ltmp412:
	@DEBUG_VALUE: CLK_EnableAPLL:u32MinNR <- $r10
	@DEBUG_VALUE: CLK_EnableAPLL:u32Min <- $r3
	cbz	r3, .LBB19_54
.Ltmp413:
@ %bb.46:                               @   in Loop: Header=BB19_39 Depth=2
	@DEBUG_VALUE: CLK_EnableAPLL:u32PllSelect <- [DW_OP_plus_uconst 8] [$sp+0]
	@DEBUG_VALUE: CLK_EnableAPLL:u32StableSel <- $r11
	@DEBUG_VALUE: CLK_EnableAPLL:u32MinNR <- $r10
	@DEBUG_VALUE: CLK_EnableAPLL:u32NR <- $r10
	@DEBUG_VALUE: CLK_EnableAPLL:u32Tmp2 <- $r6
	@DEBUG_VALUE: CLK_EnableAPLL:u32PllFreq <- $r5
	@DEBUG_VALUE: CLK_EnableAPLL:u32Min <- $r3
	@DEBUG_VALUE: CLK_EnableAPLL:u32Tmp3 <- $r3
	@DEBUG_VALUE: CLK_EnableAPLL:u32MinNF <- [DW_OP_constu 1, DW_OP_or, DW_OP_stack_value] $r0
	@DEBUG_VALUE: CLK_EnableAPLL:u32NO <- [DW_OP_plus_uconst 4] [$sp+0]
	@DEBUG_VALUE: CLK_EnableAPLL:u32Min <- $r3
	mov	r12, r3
.Ltmp414:
	@DEBUG_VALUE: CLK_EnableAPLL:u32Min <- $r12
	mov	r8, r10
.Ltmp415:
.LBB19_47:                              @   in Loop: Header=BB19_39 Depth=2
	@DEBUG_VALUE: CLK_EnableAPLL:u32PllSelect <- [DW_OP_plus_uconst 8] [$sp+0]
	@DEBUG_VALUE: CLK_EnableAPLL:u32Min <- $r12
	@DEBUG_VALUE: CLK_EnableAPLL:u32StableSel <- $r11
	@DEBUG_VALUE: CLK_EnableAPLL:u32NR <- $r10
	@DEBUG_VALUE: CLK_EnableAPLL:u32PllFreq <- $r5
	@DEBUG_VALUE: CLK_EnableAPLL:u32NO <- [DW_OP_plus_uconst 4] [$sp+0]
	@DEBUG_VALUE: CLK_EnableAPLL:u32Min <- $r12
	@DEBUG_VALUE: CLK_EnableAPLL:u32MinNR <- $r8
	@DEBUG_VALUE: CLK_EnableAPLL:u32MinNF <- $r1
	.loc	9 1445 57 is_stmt 1             @ ../../../../Library/StdDriver/src/clk.c:1445:57
	orr	r3, r0, #2
.Ltmp416:
	@DEBUG_VALUE: CLK_EnableAPLL:u32Tmp2 <- undef
	@DEBUG_VALUE: CLK_EnableAPLL:u32NF <- $r3
	.loc	9 1449 50                       @ ../../../../Library/StdDriver/src/clk.c:1449:50
	mla	r6, r4, r3, lr
	cmp	r6, r7
	bhs	.LBB19_51
.Ltmp417:
@ %bb.48:                               @   in Loop: Header=BB19_39 Depth=2
	@DEBUG_VALUE: CLK_EnableAPLL:u32PllSelect <- [DW_OP_plus_uconst 8] [$sp+0]
	@DEBUG_VALUE: CLK_EnableAPLL:u32Min <- $r12
	@DEBUG_VALUE: CLK_EnableAPLL:u32StableSel <- $r11
	@DEBUG_VALUE: CLK_EnableAPLL:u32NR <- $r10
	@DEBUG_VALUE: CLK_EnableAPLL:u32MinNR <- $r8
	@DEBUG_VALUE: CLK_EnableAPLL:u32PllFreq <- $r5
	@DEBUG_VALUE: CLK_EnableAPLL:u32NF <- $r3
	@DEBUG_VALUE: CLK_EnableAPLL:u32MinNF <- $r1
	@DEBUG_VALUE: CLK_EnableAPLL:u32NO <- [DW_OP_plus_uconst 4] [$sp+0]
	.loc	9 0 0 is_stmt 0                 @ ../../../../Library/StdDriver/src/clk.c:0:0
	mul	r6, r4, r3
.Ltmp418:
	@DEBUG_VALUE: CLK_EnableAPLL:u32Tmp2 <- $r6
	.loc	9 1451 35 is_stmt 1             @ ../../../../Library/StdDriver/src/clk.c:1451:35
	subs	r3, r5, r6
.Ltmp419:
	it	lo
	sublo	r3, r6, r5
.Ltmp420:
	@DEBUG_VALUE: CLK_EnableAPLL:u32Tmp3 <- $r3
	.loc	9 1453 29                       @ ../../../../Library/StdDriver/src/clk.c:1453:29
	cmp	r3, r12
	bhs	.LBB19_51
.Ltmp421:
@ %bb.49:                               @   in Loop: Header=BB19_39 Depth=2
	@DEBUG_VALUE: CLK_EnableAPLL:u32PllSelect <- [DW_OP_plus_uconst 8] [$sp+0]
	@DEBUG_VALUE: CLK_EnableAPLL:u32Min <- $r12
	@DEBUG_VALUE: CLK_EnableAPLL:u32StableSel <- $r11
	@DEBUG_VALUE: CLK_EnableAPLL:u32NR <- $r10
	@DEBUG_VALUE: CLK_EnableAPLL:u32MinNR <- $r8
	@DEBUG_VALUE: CLK_EnableAPLL:u32Tmp2 <- $r6
	@DEBUG_VALUE: CLK_EnableAPLL:u32PllFreq <- $r5
	@DEBUG_VALUE: CLK_EnableAPLL:u32Tmp3 <- $r3
	@DEBUG_VALUE: CLK_EnableAPLL:u32MinNF <- $r1
	@DEBUG_VALUE: CLK_EnableAPLL:u32NO <- [DW_OP_plus_uconst 4] [$sp+0]
	@DEBUG_VALUE: CLK_EnableAPLL:u32MinNF <- [DW_OP_constu 2, DW_OP_or, DW_OP_stack_value] $r0
	.loc	9 0 0 is_stmt 0                 @ ../../../../Library/StdDriver/src/clk.c:0:0
	add.w	r1, r2, #14
.Ltmp422:
	@DEBUG_VALUE: CLK_EnableAPLL:u32MinNR <- $r10
	@DEBUG_VALUE: CLK_EnableAPLL:u32Min <- $r3
	.loc	9 1460 33 is_stmt 1             @ ../../../../Library/StdDriver/src/clk.c:1460:33
	cbz	r3, .LBB19_54
.Ltmp423:
@ %bb.50:                               @   in Loop: Header=BB19_39 Depth=2
	@DEBUG_VALUE: CLK_EnableAPLL:u32PllSelect <- [DW_OP_plus_uconst 8] [$sp+0]
	@DEBUG_VALUE: CLK_EnableAPLL:u32StableSel <- $r11
	@DEBUG_VALUE: CLK_EnableAPLL:u32MinNR <- $r10
	@DEBUG_VALUE: CLK_EnableAPLL:u32NR <- $r10
	@DEBUG_VALUE: CLK_EnableAPLL:u32Tmp2 <- $r6
	@DEBUG_VALUE: CLK_EnableAPLL:u32PllFreq <- $r5
	@DEBUG_VALUE: CLK_EnableAPLL:u32Min <- $r3
	@DEBUG_VALUE: CLK_EnableAPLL:u32Tmp3 <- $r3
	@DEBUG_VALUE: CLK_EnableAPLL:u32MinNF <- [DW_OP_constu 2, DW_OP_or, DW_OP_stack_value] $r0
	@DEBUG_VALUE: CLK_EnableAPLL:u32NO <- [DW_OP_plus_uconst 4] [$sp+0]
	@DEBUG_VALUE: CLK_EnableAPLL:u32Min <- $r3
	.loc	9 0 0 is_stmt 0                 @ ../../../../Library/StdDriver/src/clk.c:0:0
	mov	r12, r3
.Ltmp424:
	@DEBUG_VALUE: CLK_EnableAPLL:u32Min <- $r12
	mov	r8, r10
.Ltmp425:
.LBB19_51:                              @   in Loop: Header=BB19_39 Depth=2
	@DEBUG_VALUE: CLK_EnableAPLL:u32PllSelect <- [DW_OP_plus_uconst 8] [$sp+0]
	@DEBUG_VALUE: CLK_EnableAPLL:u32Min <- $r12
	@DEBUG_VALUE: CLK_EnableAPLL:u32StableSel <- $r11
	@DEBUG_VALUE: CLK_EnableAPLL:u32NR <- $r10
	@DEBUG_VALUE: CLK_EnableAPLL:u32PllFreq <- $r5
	@DEBUG_VALUE: CLK_EnableAPLL:u32NO <- [DW_OP_plus_uconst 4] [$sp+0]
	@DEBUG_VALUE: CLK_EnableAPLL:u32Min <- $r12
	@DEBUG_VALUE: CLK_EnableAPLL:u32MinNR <- $r8
	@DEBUG_VALUE: CLK_EnableAPLL:u32MinNF <- $r1
	.loc	9 1445 57 is_stmt 1             @ ../../../../Library/StdDriver/src/clk.c:1445:57
	orr	r3, r0, #3
.Ltmp426:
	@DEBUG_VALUE: CLK_EnableAPLL:u32Tmp2 <- undef
	@DEBUG_VALUE: CLK_EnableAPLL:u32NF <- $r3
	.loc	9 1449 50                       @ ../../../../Library/StdDriver/src/clk.c:1449:50
	mla	r6, r4, r3, lr
	cmp	r6, r7
	bhs	.LBB19_38
.Ltmp427:
@ %bb.52:                               @   in Loop: Header=BB19_39 Depth=2
	@DEBUG_VALUE: CLK_EnableAPLL:u32PllSelect <- [DW_OP_plus_uconst 8] [$sp+0]
	@DEBUG_VALUE: CLK_EnableAPLL:u32Min <- $r12
	@DEBUG_VALUE: CLK_EnableAPLL:u32StableSel <- $r11
	@DEBUG_VALUE: CLK_EnableAPLL:u32NR <- $r10
	@DEBUG_VALUE: CLK_EnableAPLL:u32MinNR <- $r8
	@DEBUG_VALUE: CLK_EnableAPLL:u32PllFreq <- $r5
	@DEBUG_VALUE: CLK_EnableAPLL:u32NF <- $r3
	@DEBUG_VALUE: CLK_EnableAPLL:u32MinNF <- $r1
	@DEBUG_VALUE: CLK_EnableAPLL:u32NO <- [DW_OP_plus_uconst 4] [$sp+0]
	.loc	9 0 0 is_stmt 0                 @ ../../../../Library/StdDriver/src/clk.c:0:0
	mul	r6, r4, r3
.Ltmp428:
	@DEBUG_VALUE: CLK_EnableAPLL:u32Tmp2 <- $r6
	.loc	9 1451 35 is_stmt 1             @ ../../../../Library/StdDriver/src/clk.c:1451:35
	subs	r3, r5, r6
.Ltmp429:
	it	lo
	sublo	r3, r6, r5
.Ltmp430:
	@DEBUG_VALUE: CLK_EnableAPLL:u32Tmp3 <- $r3
	.loc	9 1453 29                       @ ../../../../Library/StdDriver/src/clk.c:1453:29
	cmp	r3, r12
	bhs	.LBB19_38
.Ltmp431:
@ %bb.53:                               @   in Loop: Header=BB19_39 Depth=2
	@DEBUG_VALUE: CLK_EnableAPLL:u32PllSelect <- [DW_OP_plus_uconst 8] [$sp+0]
	@DEBUG_VALUE: CLK_EnableAPLL:u32Min <- $r12
	@DEBUG_VALUE: CLK_EnableAPLL:u32StableSel <- $r11
	@DEBUG_VALUE: CLK_EnableAPLL:u32NR <- $r10
	@DEBUG_VALUE: CLK_EnableAPLL:u32MinNR <- $r8
	@DEBUG_VALUE: CLK_EnableAPLL:u32Tmp2 <- $r6
	@DEBUG_VALUE: CLK_EnableAPLL:u32PllFreq <- $r5
	@DEBUG_VALUE: CLK_EnableAPLL:u32Tmp3 <- $r3
	@DEBUG_VALUE: CLK_EnableAPLL:u32MinNF <- $r1
	@DEBUG_VALUE: CLK_EnableAPLL:u32NO <- [DW_OP_plus_uconst 4] [$sp+0]
	.loc	9 1460 33                       @ ../../../../Library/StdDriver/src/clk.c:1460:33
	cmp	r3, #0
.Ltmp432:
	@DEBUG_VALUE: CLK_EnableAPLL:u32MinNF <- [DW_OP_constu 3, DW_OP_or, DW_OP_stack_value] $r0
	.loc	9 0 0 is_stmt 0                 @ ../../../../Library/StdDriver/src/clk.c:0:0
	add.w	r1, r2, #15
.Ltmp433:
	@DEBUG_VALUE: CLK_EnableAPLL:u32MinNR <- $r10
	@DEBUG_VALUE: CLK_EnableAPLL:u32Min <- $r3
	.loc	9 1460 33                       @ ../../../../Library/StdDriver/src/clk.c:1460:33
	bne	.LBB19_37
.Ltmp434:
.LBB19_54:                              @   in Loop: Header=BB19_34 Depth=1
	@DEBUG_VALUE: CLK_EnableAPLL:u32PllSelect <- [DW_OP_plus_uconst 8] [$sp+0]
	@DEBUG_VALUE: CLK_EnableAPLL:u32StableSel <- $r11
	@DEBUG_VALUE: CLK_EnableAPLL:u32MinNR <- $r10
	@DEBUG_VALUE: CLK_EnableAPLL:u32NR <- $r10
	@DEBUG_VALUE: CLK_EnableAPLL:u32Tmp2 <- $r6
	@DEBUG_VALUE: CLK_EnableAPLL:u32PllFreq <- $r5
	@DEBUG_VALUE: CLK_EnableAPLL:u32Min <- $r3
	@DEBUG_VALUE: CLK_EnableAPLL:u32Tmp3 <- $r3
	@DEBUG_VALUE: CLK_EnableAPLL:u32NO <- [DW_OP_plus_uconst 4] [$sp+0]
	.loc	9 0 33                          @ ../../../../Library/StdDriver/src/clk.c:0:33
	mov.w	r12, #0
	mov	r8, r10
.Ltmp435:
.LBB19_55:                              @   in Loop: Header=BB19_34 Depth=1
	@DEBUG_VALUE: CLK_EnableAPLL:u32PllSelect <- [DW_OP_plus_uconst 8] [$sp+0]
	@DEBUG_VALUE: CLK_EnableAPLL:u32StableSel <- $r11
	@DEBUG_VALUE: CLK_EnableAPLL:u32NR <- $r10
	@DEBUG_VALUE: CLK_EnableAPLL:u32PllFreq <- $r5
	@DEBUG_VALUE: CLK_EnableAPLL:u32NO <- [DW_OP_plus_uconst 4] [$sp+0]
	@DEBUG_VALUE: CLK_EnableAPLL:u32NR <- undef
	@DEBUG_VALUE: CLK_EnableAPLL:u32Min <- $r12
	@DEBUG_VALUE: CLK_EnableAPLL:u32MinNR <- $r8
	@DEBUG_VALUE: CLK_EnableAPLL:u32MinNF <- $r1
	@DEBUG_VALUE: CLK_EnableAPLL:u32Tmp <- undef
	.loc	9 1438 17 is_stmt 1             @ ../../../../Library/StdDriver/src/clk.c:1438:17
	cmp.w	r12, #0
	beq.w	.LBB19_77
.Ltmp436:
@ %bb.56:                               @   in Loop: Header=BB19_34 Depth=1
	@DEBUG_VALUE: CLK_EnableAPLL:u32PllSelect <- [DW_OP_plus_uconst 8] [$sp+0]
	@DEBUG_VALUE: CLK_EnableAPLL:u32Min <- $r12
	@DEBUG_VALUE: CLK_EnableAPLL:u32StableSel <- $r11
	@DEBUG_VALUE: CLK_EnableAPLL:u32MinNR <- $r8
	@DEBUG_VALUE: CLK_EnableAPLL:u32PllFreq <- $r5
	@DEBUG_VALUE: CLK_EnableAPLL:u32MinNF <- $r1
	@DEBUG_VALUE: CLK_EnableAPLL:u32NO <- [DW_OP_plus_uconst 4] [$sp+0]
	.loc	9 0 0 is_stmt 0                 @ ../../../../Library/StdDriver/src/clk.c:0:0
	add.w	r4, r10, #1
.Ltmp437:
	@DEBUG_VALUE: CLK_EnableAPLL:u32NR <- $r4
	.loc	9 1443 39 is_stmt 1             @ ../../../../Library/StdDriver/src/clk.c:1443:39
	movw	r2, #63232
.Ltmp438:
	.loc	9 0 0 is_stmt 0                 @ ../../../../Library/StdDriver/src/clk.c:0:0
	udiv	r0, r9, r4
.Ltmp439:
	@DEBUG_VALUE: CLK_EnableAPLL:u32Tmp <- $r0
	.loc	9 1443 39                       @ ../../../../Library/StdDriver/src/clk.c:1443:39
	movt	r2, #65474
	movw	r3, #2305
	add	r2, r0
	movt	r3, #61
	cmp	r2, r3
	bhs.w	.LBB19_33
.Ltmp440:
@ %bb.57:                               @   in Loop: Header=BB19_34 Depth=1
	@DEBUG_VALUE: CLK_EnableAPLL:u32PllSelect <- [DW_OP_plus_uconst 8] [$sp+0]
	@DEBUG_VALUE: CLK_EnableAPLL:u32Min <- $r12
	@DEBUG_VALUE: CLK_EnableAPLL:u32StableSel <- $r11
	@DEBUG_VALUE: CLK_EnableAPLL:u32MinNR <- $r8
	@DEBUG_VALUE: CLK_EnableAPLL:u32PllFreq <- $r5
	@DEBUG_VALUE: CLK_EnableAPLL:u32NR <- $r4
	@DEBUG_VALUE: CLK_EnableAPLL:u32MinNF <- $r1
	@DEBUG_VALUE: CLK_EnableAPLL:u32Tmp <- $r0
	@DEBUG_VALUE: CLK_EnableAPLL:u32NO <- [DW_OP_plus_uconst 4] [$sp+0]
	@DEBUG_VALUE: CLK_EnableAPLL:u32Min <- $r12
	@DEBUG_VALUE: CLK_EnableAPLL:u32MinNR <- $r8
	@DEBUG_VALUE: CLK_EnableAPLL:u32MinNF <- $r1
	@DEBUG_VALUE: CLK_EnableAPLL:u32NF <- 12
	.loc	9 0 39                          @ ../../../../Library/StdDriver/src/clk.c:0:39
	lsl.w	r9, r0, #1
	movs	r0, #12
.Ltmp441:
	movs	r2, #0
	b	.LBB19_59
.Ltmp442:
	.p2align	2
.LBB19_58:                              @   in Loop: Header=BB19_59 Depth=2
	@DEBUG_VALUE: CLK_EnableAPLL:u32PllSelect <- [DW_OP_plus_uconst 8] [$sp+0]
	@DEBUG_VALUE: CLK_EnableAPLL:u32Min <- $r12
	@DEBUG_VALUE: CLK_EnableAPLL:u32StableSel <- $r11
	@DEBUG_VALUE: CLK_EnableAPLL:u32PllFreq <- $r5
	@DEBUG_VALUE: CLK_EnableAPLL:u32NR <- $r4
	@DEBUG_VALUE: CLK_EnableAPLL:u32NO <- [DW_OP_plus_uconst 4] [$sp+0]
	@DEBUG_VALUE: CLK_EnableAPLL:u32Min <- $r12
	@DEBUG_VALUE: CLK_EnableAPLL:u32MinNR <- $r8
	@DEBUG_VALUE: CLK_EnableAPLL:u32MinNF <- $r1
	.loc	9 1445 42 is_stmt 1             @ ../../../../Library/StdDriver/src/clk.c:1445:42
	adds	r2, #4
	.loc	9 1445 57 is_stmt 0             @ ../../../../Library/StdDriver/src/clk.c:1445:57
	adds	r0, #4
.Ltmp443:
	@DEBUG_VALUE: CLK_EnableAPLL:u32NF <- $r0
	.loc	9 1445 17                       @ ../../../../Library/StdDriver/src/clk.c:1445:17
	cmp	r2, #244
	beq.w	.LBB19_33
.Ltmp444:
.LBB19_59:                              @   Parent Loop BB19_34 Depth=1
                                        @ =>  This Inner Loop Header: Depth=2
	@DEBUG_VALUE: CLK_EnableAPLL:u32PllSelect <- [DW_OP_plus_uconst 8] [$sp+0]
	@DEBUG_VALUE: CLK_EnableAPLL:u32Min <- $r12
	@DEBUG_VALUE: CLK_EnableAPLL:u32StableSel <- $r11
	@DEBUG_VALUE: CLK_EnableAPLL:u32MinNR <- $r8
	@DEBUG_VALUE: CLK_EnableAPLL:u32PllFreq <- $r5
	@DEBUG_VALUE: CLK_EnableAPLL:u32NR <- $r4
	@DEBUG_VALUE: CLK_EnableAPLL:u32MinNF <- $r1
	@DEBUG_VALUE: CLK_EnableAPLL:u32NO <- [DW_OP_plus_uconst 4] [$sp+0]
	@DEBUG_VALUE: CLK_EnableAPLL:u32Min <- $r12
	@DEBUG_VALUE: CLK_EnableAPLL:u32MinNR <- $r8
	@DEBUG_VALUE: CLK_EnableAPLL:u32MinNF <- $r1
	@DEBUG_VALUE: CLK_EnableAPLL:u32NF <- $r0
	@DEBUG_VALUE: CLK_EnableAPLL:u32Tmp2 <- undef
	.loc	9 1449 50 is_stmt 1             @ ../../../../Library/StdDriver/src/clk.c:1449:50
	mla	r3, r9, r0, lr
	cmp	r3, r7
	bhs	.LBB19_63
.Ltmp445:
@ %bb.60:                               @   in Loop: Header=BB19_59 Depth=2
	@DEBUG_VALUE: CLK_EnableAPLL:u32PllSelect <- [DW_OP_plus_uconst 8] [$sp+0]
	@DEBUG_VALUE: CLK_EnableAPLL:u32Min <- $r12
	@DEBUG_VALUE: CLK_EnableAPLL:u32StableSel <- $r11
	@DEBUG_VALUE: CLK_EnableAPLL:u32MinNR <- $r8
	@DEBUG_VALUE: CLK_EnableAPLL:u32PllFreq <- $r5
	@DEBUG_VALUE: CLK_EnableAPLL:u32NR <- $r4
	@DEBUG_VALUE: CLK_EnableAPLL:u32MinNF <- $r1
	@DEBUG_VALUE: CLK_EnableAPLL:u32NF <- $r0
	@DEBUG_VALUE: CLK_EnableAPLL:u32NO <- [DW_OP_plus_uconst 4] [$sp+0]
	.loc	9 0 0 is_stmt 0                 @ ../../../../Library/StdDriver/src/clk.c:0:0
	mul	r6, r9, r0
.Ltmp446:
	@DEBUG_VALUE: CLK_EnableAPLL:u32Tmp2 <- $r6
	.loc	9 1451 35 is_stmt 1             @ ../../../../Library/StdDriver/src/clk.c:1451:35
	subs	r3, r5, r6
	it	lo
	sublo	r3, r6, r5
.Ltmp447:
	@DEBUG_VALUE: CLK_EnableAPLL:u32Tmp3 <- $r3
	.loc	9 1453 29                       @ ../../../../Library/StdDriver/src/clk.c:1453:29
	cmp	r3, r12
	bhs	.LBB19_63
.Ltmp448:
@ %bb.61:                               @   in Loop: Header=BB19_59 Depth=2
	@DEBUG_VALUE: CLK_EnableAPLL:u32PllSelect <- [DW_OP_plus_uconst 8] [$sp+0]
	@DEBUG_VALUE: CLK_EnableAPLL:u32Min <- $r12
	@DEBUG_VALUE: CLK_EnableAPLL:u32StableSel <- $r11
	@DEBUG_VALUE: CLK_EnableAPLL:u32MinNR <- $r8
	@DEBUG_VALUE: CLK_EnableAPLL:u32Tmp2 <- $r6
	@DEBUG_VALUE: CLK_EnableAPLL:u32PllFreq <- $r5
	@DEBUG_VALUE: CLK_EnableAPLL:u32NR <- $r4
	@DEBUG_VALUE: CLK_EnableAPLL:u32Tmp3 <- $r3
	@DEBUG_VALUE: CLK_EnableAPLL:u32MinNF <- $r1
	@DEBUG_VALUE: CLK_EnableAPLL:u32NF <- $r0
	@DEBUG_VALUE: CLK_EnableAPLL:u32NO <- [DW_OP_plus_uconst 4] [$sp+0]
	.loc	9 1460 33                       @ ../../../../Library/StdDriver/src/clk.c:1460:33
	cmp	r3, #0
.Ltmp449:
	.loc	9 0 0 is_stmt 0                 @ ../../../../Library/StdDriver/src/clk.c:0:0
	add.w	r1, r2, #12
.Ltmp450:
	@DEBUG_VALUE: CLK_EnableAPLL:u32MinNF <- $r0
	@DEBUG_VALUE: CLK_EnableAPLL:u32MinNR <- $r4
	@DEBUG_VALUE: CLK_EnableAPLL:u32Min <- $r3
	.loc	9 1460 33                       @ ../../../../Library/StdDriver/src/clk.c:1460:33
	beq.w	.LBB19_32
.Ltmp451:
@ %bb.62:                               @   in Loop: Header=BB19_59 Depth=2
	@DEBUG_VALUE: CLK_EnableAPLL:u32PllSelect <- [DW_OP_plus_uconst 8] [$sp+0]
	@DEBUG_VALUE: CLK_EnableAPLL:u32StableSel <- $r11
	@DEBUG_VALUE: CLK_EnableAPLL:u32Tmp2 <- $r6
	@DEBUG_VALUE: CLK_EnableAPLL:u32PllFreq <- $r5
	@DEBUG_VALUE: CLK_EnableAPLL:u32MinNR <- $r4
	@DEBUG_VALUE: CLK_EnableAPLL:u32NR <- $r4
	@DEBUG_VALUE: CLK_EnableAPLL:u32Min <- $r3
	@DEBUG_VALUE: CLK_EnableAPLL:u32Tmp3 <- $r3
	@DEBUG_VALUE: CLK_EnableAPLL:u32MinNF <- $r0
	@DEBUG_VALUE: CLK_EnableAPLL:u32NF <- $r0
	@DEBUG_VALUE: CLK_EnableAPLL:u32NO <- [DW_OP_plus_uconst 4] [$sp+0]
	@DEBUG_VALUE: CLK_EnableAPLL:u32Min <- $r3
	.loc	9 0 0                           @ ../../../../Library/StdDriver/src/clk.c:0:0
	mov	r12, r3
.Ltmp452:
	@DEBUG_VALUE: CLK_EnableAPLL:u32Min <- $r12
	mov	r8, r4
.Ltmp453:
.LBB19_63:                              @   in Loop: Header=BB19_59 Depth=2
	@DEBUG_VALUE: CLK_EnableAPLL:u32PllSelect <- [DW_OP_plus_uconst 8] [$sp+0]
	@DEBUG_VALUE: CLK_EnableAPLL:u32Min <- $r12
	@DEBUG_VALUE: CLK_EnableAPLL:u32StableSel <- $r11
	@DEBUG_VALUE: CLK_EnableAPLL:u32PllFreq <- $r5
	@DEBUG_VALUE: CLK_EnableAPLL:u32NR <- $r4
	@DEBUG_VALUE: CLK_EnableAPLL:u32NF <- $r0
	@DEBUG_VALUE: CLK_EnableAPLL:u32NO <- [DW_OP_plus_uconst 4] [$sp+0]
	@DEBUG_VALUE: CLK_EnableAPLL:u32Min <- $r12
	@DEBUG_VALUE: CLK_EnableAPLL:u32MinNR <- $r8
	@DEBUG_VALUE: CLK_EnableAPLL:u32MinNF <- $r1
	.loc	9 1445 57 is_stmt 1             @ ../../../../Library/StdDriver/src/clk.c:1445:57
	orr	r3, r0, #1
.Ltmp454:
	@DEBUG_VALUE: CLK_EnableAPLL:u32Tmp2 <- undef
	@DEBUG_VALUE: CLK_EnableAPLL:u32NF <- $r3
	.loc	9 1449 50                       @ ../../../../Library/StdDriver/src/clk.c:1449:50
	mla	r6, r9, r3, lr
	cmp	r6, r7
	bhs	.LBB19_67
.Ltmp455:
@ %bb.64:                               @   in Loop: Header=BB19_59 Depth=2
	@DEBUG_VALUE: CLK_EnableAPLL:u32PllSelect <- [DW_OP_plus_uconst 8] [$sp+0]
	@DEBUG_VALUE: CLK_EnableAPLL:u32Min <- $r12
	@DEBUG_VALUE: CLK_EnableAPLL:u32StableSel <- $r11
	@DEBUG_VALUE: CLK_EnableAPLL:u32MinNR <- $r8
	@DEBUG_VALUE: CLK_EnableAPLL:u32PllFreq <- $r5
	@DEBUG_VALUE: CLK_EnableAPLL:u32NR <- $r4
	@DEBUG_VALUE: CLK_EnableAPLL:u32NF <- $r3
	@DEBUG_VALUE: CLK_EnableAPLL:u32MinNF <- $r1
	@DEBUG_VALUE: CLK_EnableAPLL:u32NO <- [DW_OP_plus_uconst 4] [$sp+0]
	.loc	9 0 0 is_stmt 0                 @ ../../../../Library/StdDriver/src/clk.c:0:0
	mul	r6, r9, r3
.Ltmp456:
	@DEBUG_VALUE: CLK_EnableAPLL:u32Tmp2 <- $r6
	.loc	9 1451 35 is_stmt 1             @ ../../../../Library/StdDriver/src/clk.c:1451:35
	subs	r3, r5, r6
.Ltmp457:
	it	lo
	sublo	r3, r6, r5
.Ltmp458:
	@DEBUG_VALUE: CLK_EnableAPLL:u32Tmp3 <- $r3
	.loc	9 1453 29                       @ ../../../../Library/StdDriver/src/clk.c:1453:29
	cmp	r3, r12
	bhs	.LBB19_67
.Ltmp459:
@ %bb.65:                               @   in Loop: Header=BB19_59 Depth=2
	@DEBUG_VALUE: CLK_EnableAPLL:u32PllSelect <- [DW_OP_plus_uconst 8] [$sp+0]
	@DEBUG_VALUE: CLK_EnableAPLL:u32Min <- $r12
	@DEBUG_VALUE: CLK_EnableAPLL:u32StableSel <- $r11
	@DEBUG_VALUE: CLK_EnableAPLL:u32MinNR <- $r8
	@DEBUG_VALUE: CLK_EnableAPLL:u32Tmp2 <- $r6
	@DEBUG_VALUE: CLK_EnableAPLL:u32PllFreq <- $r5
	@DEBUG_VALUE: CLK_EnableAPLL:u32NR <- $r4
	@DEBUG_VALUE: CLK_EnableAPLL:u32Tmp3 <- $r3
	@DEBUG_VALUE: CLK_EnableAPLL:u32MinNF <- $r1
	@DEBUG_VALUE: CLK_EnableAPLL:u32NO <- [DW_OP_plus_uconst 4] [$sp+0]
	.loc	9 1460 33                       @ ../../../../Library/StdDriver/src/clk.c:1460:33
	cmp	r3, #0
.Ltmp460:
	@DEBUG_VALUE: CLK_EnableAPLL:u32MinNF <- [DW_OP_constu 1, DW_OP_or, DW_OP_stack_value] $r0
	.loc	9 0 0 is_stmt 0                 @ ../../../../Library/StdDriver/src/clk.c:0:0
	add.w	r1, r2, #13
.Ltmp461:
	@DEBUG_VALUE: CLK_EnableAPLL:u32MinNR <- $r4
	@DEBUG_VALUE: CLK_EnableAPLL:u32Min <- $r3
	.loc	9 1460 33                       @ ../../../../Library/StdDriver/src/clk.c:1460:33
	beq.w	.LBB19_32
.Ltmp462:
@ %bb.66:                               @   in Loop: Header=BB19_59 Depth=2
	@DEBUG_VALUE: CLK_EnableAPLL:u32PllSelect <- [DW_OP_plus_uconst 8] [$sp+0]
	@DEBUG_VALUE: CLK_EnableAPLL:u32StableSel <- $r11
	@DEBUG_VALUE: CLK_EnableAPLL:u32Tmp2 <- $r6
	@DEBUG_VALUE: CLK_EnableAPLL:u32PllFreq <- $r5
	@DEBUG_VALUE: CLK_EnableAPLL:u32MinNR <- $r4
	@DEBUG_VALUE: CLK_EnableAPLL:u32NR <- $r4
	@DEBUG_VALUE: CLK_EnableAPLL:u32Min <- $r3
	@DEBUG_VALUE: CLK_EnableAPLL:u32Tmp3 <- $r3
	@DEBUG_VALUE: CLK_EnableAPLL:u32MinNF <- [DW_OP_constu 1, DW_OP_or, DW_OP_stack_value] $r0
	@DEBUG_VALUE: CLK_EnableAPLL:u32NO <- [DW_OP_plus_uconst 4] [$sp+0]
	@DEBUG_VALUE: CLK_EnableAPLL:u32Min <- $r3
	.loc	9 0 0                           @ ../../../../Library/StdDriver/src/clk.c:0:0
	mov	r12, r3
.Ltmp463:
	@DEBUG_VALUE: CLK_EnableAPLL:u32Min <- $r12
	mov	r8, r4
.Ltmp464:
.LBB19_67:                              @   in Loop: Header=BB19_59 Depth=2
	@DEBUG_VALUE: CLK_EnableAPLL:u32PllSelect <- [DW_OP_plus_uconst 8] [$sp+0]
	@DEBUG_VALUE: CLK_EnableAPLL:u32Min <- $r12
	@DEBUG_VALUE: CLK_EnableAPLL:u32StableSel <- $r11
	@DEBUG_VALUE: CLK_EnableAPLL:u32PllFreq <- $r5
	@DEBUG_VALUE: CLK_EnableAPLL:u32NR <- $r4
	@DEBUG_VALUE: CLK_EnableAPLL:u32NO <- [DW_OP_plus_uconst 4] [$sp+0]
	@DEBUG_VALUE: CLK_EnableAPLL:u32Min <- $r12
	@DEBUG_VALUE: CLK_EnableAPLL:u32MinNR <- $r8
	@DEBUG_VALUE: CLK_EnableAPLL:u32MinNF <- $r1
	.loc	9 1445 57 is_stmt 1             @ ../../../../Library/StdDriver/src/clk.c:1445:57
	orr	r3, r0, #2
.Ltmp465:
	@DEBUG_VALUE: CLK_EnableAPLL:u32Tmp2 <- undef
	@DEBUG_VALUE: CLK_EnableAPLL:u32NF <- $r3
	.loc	9 1449 50                       @ ../../../../Library/StdDriver/src/clk.c:1449:50
	mla	r6, r9, r3, lr
	cmp	r6, r7
	bhs	.LBB19_71
.Ltmp466:
@ %bb.68:                               @   in Loop: Header=BB19_59 Depth=2
	@DEBUG_VALUE: CLK_EnableAPLL:u32PllSelect <- [DW_OP_plus_uconst 8] [$sp+0]
	@DEBUG_VALUE: CLK_EnableAPLL:u32Min <- $r12
	@DEBUG_VALUE: CLK_EnableAPLL:u32StableSel <- $r11
	@DEBUG_VALUE: CLK_EnableAPLL:u32MinNR <- $r8
	@DEBUG_VALUE: CLK_EnableAPLL:u32PllFreq <- $r5
	@DEBUG_VALUE: CLK_EnableAPLL:u32NR <- $r4
	@DEBUG_VALUE: CLK_EnableAPLL:u32NF <- $r3
	@DEBUG_VALUE: CLK_EnableAPLL:u32MinNF <- $r1
	@DEBUG_VALUE: CLK_EnableAPLL:u32NO <- [DW_OP_plus_uconst 4] [$sp+0]
	.loc	9 0 0 is_stmt 0                 @ ../../../../Library/StdDriver/src/clk.c:0:0
	mul	r6, r9, r3
.Ltmp467:
	@DEBUG_VALUE: CLK_EnableAPLL:u32Tmp2 <- $r6
	.loc	9 1451 35 is_stmt 1             @ ../../../../Library/StdDriver/src/clk.c:1451:35
	subs	r3, r5, r6
.Ltmp468:
	it	lo
	sublo	r3, r6, r5
.Ltmp469:
	@DEBUG_VALUE: CLK_EnableAPLL:u32Tmp3 <- $r3
	.loc	9 1453 29                       @ ../../../../Library/StdDriver/src/clk.c:1453:29
	cmp	r3, r12
	bhs	.LBB19_71
.Ltmp470:
@ %bb.69:                               @   in Loop: Header=BB19_59 Depth=2
	@DEBUG_VALUE: CLK_EnableAPLL:u32PllSelect <- [DW_OP_plus_uconst 8] [$sp+0]
	@DEBUG_VALUE: CLK_EnableAPLL:u32Min <- $r12
	@DEBUG_VALUE: CLK_EnableAPLL:u32StableSel <- $r11
	@DEBUG_VALUE: CLK_EnableAPLL:u32MinNR <- $r8
	@DEBUG_VALUE: CLK_EnableAPLL:u32Tmp2 <- $r6
	@DEBUG_VALUE: CLK_EnableAPLL:u32PllFreq <- $r5
	@DEBUG_VALUE: CLK_EnableAPLL:u32NR <- $r4
	@DEBUG_VALUE: CLK_EnableAPLL:u32Tmp3 <- $r3
	@DEBUG_VALUE: CLK_EnableAPLL:u32MinNF <- $r1
	@DEBUG_VALUE: CLK_EnableAPLL:u32NO <- [DW_OP_plus_uconst 4] [$sp+0]
	.loc	9 1460 33                       @ ../../../../Library/StdDriver/src/clk.c:1460:33
	cmp	r3, #0
.Ltmp471:
	@DEBUG_VALUE: CLK_EnableAPLL:u32MinNF <- [DW_OP_constu 2, DW_OP_or, DW_OP_stack_value] $r0
	.loc	9 0 0 is_stmt 0                 @ ../../../../Library/StdDriver/src/clk.c:0:0
	add.w	r1, r2, #14
.Ltmp472:
	@DEBUG_VALUE: CLK_EnableAPLL:u32MinNR <- $r4
	@DEBUG_VALUE: CLK_EnableAPLL:u32Min <- $r3
	.loc	9 1460 33                       @ ../../../../Library/StdDriver/src/clk.c:1460:33
	beq.w	.LBB19_32
.Ltmp473:
@ %bb.70:                               @   in Loop: Header=BB19_59 Depth=2
	@DEBUG_VALUE: CLK_EnableAPLL:u32PllSelect <- [DW_OP_plus_uconst 8] [$sp+0]
	@DEBUG_VALUE: CLK_EnableAPLL:u32StableSel <- $r11
	@DEBUG_VALUE: CLK_EnableAPLL:u32Tmp2 <- $r6
	@DEBUG_VALUE: CLK_EnableAPLL:u32PllFreq <- $r5
	@DEBUG_VALUE: CLK_EnableAPLL:u32MinNR <- $r4
	@DEBUG_VALUE: CLK_EnableAPLL:u32NR <- $r4
	@DEBUG_VALUE: CLK_EnableAPLL:u32Min <- $r3
	@DEBUG_VALUE: CLK_EnableAPLL:u32Tmp3 <- $r3
	@DEBUG_VALUE: CLK_EnableAPLL:u32MinNF <- [DW_OP_constu 2, DW_OP_or, DW_OP_stack_value] $r0
	@DEBUG_VALUE: CLK_EnableAPLL:u32NO <- [DW_OP_plus_uconst 4] [$sp+0]
	@DEBUG_VALUE: CLK_EnableAPLL:u32Min <- $r3
	.loc	9 0 0                           @ ../../../../Library/StdDriver/src/clk.c:0:0
	mov	r12, r3
.Ltmp474:
	@DEBUG_VALUE: CLK_EnableAPLL:u32Min <- $r12
	mov	r8, r4
.Ltmp475:
.LBB19_71:                              @   in Loop: Header=BB19_59 Depth=2
	@DEBUG_VALUE: CLK_EnableAPLL:u32PllSelect <- [DW_OP_plus_uconst 8] [$sp+0]
	@DEBUG_VALUE: CLK_EnableAPLL:u32Min <- $r12
	@DEBUG_VALUE: CLK_EnableAPLL:u32StableSel <- $r11
	@DEBUG_VALUE: CLK_EnableAPLL:u32PllFreq <- $r5
	@DEBUG_VALUE: CLK_EnableAPLL:u32NR <- $r4
	@DEBUG_VALUE: CLK_EnableAPLL:u32NO <- [DW_OP_plus_uconst 4] [$sp+0]
	@DEBUG_VALUE: CLK_EnableAPLL:u32Min <- $r12
	@DEBUG_VALUE: CLK_EnableAPLL:u32MinNR <- $r8
	@DEBUG_VALUE: CLK_EnableAPLL:u32MinNF <- $r1
	.loc	9 1445 57 is_stmt 1             @ ../../../../Library/StdDriver/src/clk.c:1445:57
	orr	r3, r0, #3
.Ltmp476:
	@DEBUG_VALUE: CLK_EnableAPLL:u32Tmp2 <- undef
	@DEBUG_VALUE: CLK_EnableAPLL:u32NF <- $r3
	.loc	9 1449 50                       @ ../../../../Library/StdDriver/src/clk.c:1449:50
	mla	r6, r9, r3, lr
	cmp	r6, r7
	bhs	.LBB19_58
.Ltmp477:
@ %bb.72:                               @   in Loop: Header=BB19_59 Depth=2
	@DEBUG_VALUE: CLK_EnableAPLL:u32PllSelect <- [DW_OP_plus_uconst 8] [$sp+0]
	@DEBUG_VALUE: CLK_EnableAPLL:u32Min <- $r12
	@DEBUG_VALUE: CLK_EnableAPLL:u32StableSel <- $r11
	@DEBUG_VALUE: CLK_EnableAPLL:u32MinNR <- $r8
	@DEBUG_VALUE: CLK_EnableAPLL:u32PllFreq <- $r5
	@DEBUG_VALUE: CLK_EnableAPLL:u32NR <- $r4
	@DEBUG_VALUE: CLK_EnableAPLL:u32NF <- $r3
	@DEBUG_VALUE: CLK_EnableAPLL:u32MinNF <- $r1
	@DEBUG_VALUE: CLK_EnableAPLL:u32NO <- [DW_OP_plus_uconst 4] [$sp+0]
	.loc	9 0 0 is_stmt 0                 @ ../../../../Library/StdDriver/src/clk.c:0:0
	mul	r6, r9, r3
.Ltmp478:
	@DEBUG_VALUE: CLK_EnableAPLL:u32Tmp2 <- $r6
	.loc	9 1451 35 is_stmt 1             @ ../../../../Library/StdDriver/src/clk.c:1451:35
	subs	r3, r5, r6
.Ltmp479:
	it	lo
	sublo	r3, r6, r5
.Ltmp480:
	@DEBUG_VALUE: CLK_EnableAPLL:u32Tmp3 <- $r3
	.loc	9 1453 29                       @ ../../../../Library/StdDriver/src/clk.c:1453:29
	cmp	r3, r12
	bhs	.LBB19_58
.Ltmp481:
@ %bb.73:                               @   in Loop: Header=BB19_59 Depth=2
	@DEBUG_VALUE: CLK_EnableAPLL:u32PllSelect <- [DW_OP_plus_uconst 8] [$sp+0]
	@DEBUG_VALUE: CLK_EnableAPLL:u32Min <- $r12
	@DEBUG_VALUE: CLK_EnableAPLL:u32StableSel <- $r11
	@DEBUG_VALUE: CLK_EnableAPLL:u32MinNR <- $r8
	@DEBUG_VALUE: CLK_EnableAPLL:u32Tmp2 <- $r6
	@DEBUG_VALUE: CLK_EnableAPLL:u32PllFreq <- $r5
	@DEBUG_VALUE: CLK_EnableAPLL:u32NR <- $r4
	@DEBUG_VALUE: CLK_EnableAPLL:u32Tmp3 <- $r3
	@DEBUG_VALUE: CLK_EnableAPLL:u32MinNF <- $r1
	@DEBUG_VALUE: CLK_EnableAPLL:u32NO <- [DW_OP_plus_uconst 4] [$sp+0]
	.loc	9 1460 33                       @ ../../../../Library/StdDriver/src/clk.c:1460:33
	cmp	r3, #0
.Ltmp482:
	@DEBUG_VALUE: CLK_EnableAPLL:u32MinNF <- [DW_OP_constu 3, DW_OP_or, DW_OP_stack_value] $r0
	.loc	9 0 0 is_stmt 0                 @ ../../../../Library/StdDriver/src/clk.c:0:0
	add.w	r1, r2, #15
.Ltmp483:
	@DEBUG_VALUE: CLK_EnableAPLL:u32MinNR <- $r4
	@DEBUG_VALUE: CLK_EnableAPLL:u32Min <- $r3
	.loc	9 1460 33                       @ ../../../../Library/StdDriver/src/clk.c:1460:33
	beq.w	.LBB19_32
.Ltmp484:
@ %bb.74:                               @   in Loop: Header=BB19_59 Depth=2
	@DEBUG_VALUE: CLK_EnableAPLL:u32PllSelect <- [DW_OP_plus_uconst 8] [$sp+0]
	@DEBUG_VALUE: CLK_EnableAPLL:u32StableSel <- $r11
	@DEBUG_VALUE: CLK_EnableAPLL:u32Tmp2 <- $r6
	@DEBUG_VALUE: CLK_EnableAPLL:u32PllFreq <- $r5
	@DEBUG_VALUE: CLK_EnableAPLL:u32MinNR <- $r4
	@DEBUG_VALUE: CLK_EnableAPLL:u32NR <- $r4
	@DEBUG_VALUE: CLK_EnableAPLL:u32Min <- $r3
	@DEBUG_VALUE: CLK_EnableAPLL:u32Tmp3 <- $r3
	@DEBUG_VALUE: CLK_EnableAPLL:u32MinNF <- [DW_OP_constu 3, DW_OP_or, DW_OP_stack_value] $r0
	@DEBUG_VALUE: CLK_EnableAPLL:u32NO <- [DW_OP_plus_uconst 4] [$sp+0]
	@DEBUG_VALUE: CLK_EnableAPLL:u32Min <- $r3
	.loc	9 0 0                           @ ../../../../Library/StdDriver/src/clk.c:0:0
	mov	r12, r3
.Ltmp485:
	@DEBUG_VALUE: CLK_EnableAPLL:u32Min <- $r12
	mov	r8, r4
	b	.LBB19_58
.Ltmp486:
.LBB19_75:
	@DEBUG_VALUE: CLK_EnableAPLL:u32StableSel <- $r11
	@DEBUG_VALUE: CLK_EnableAPLL:u32PllSelect <- $r5
	@DEBUG_VALUE: CLK_EnableAPLL:u32PllFreq <- $r1
	movw	r0, #17451
.Ltmp487:
	.loc	9 1505 13 is_stmt 1             @ ../../../../Library/StdDriver/src/clk.c:1505:13
	cmp	r5, #0
.Ltmp488:
	.loc	9 0 0 is_stmt 0                 @ ../../../../Library/StdDriver/src/clk.c:0:0
	orr.w	r0, r0, r11
.Ltmp489:
	.loc	9 1505 13                       @ ../../../../Library/StdDriver/src/clk.c:1505:13
	beq	.LBB19_88
.Ltmp490:
@ %bb.76:
	@DEBUG_VALUE: CLK_EnableAPLL:u32StableSel <- $r11
	@DEBUG_VALUE: CLK_EnableAPLL:u32PllSelect <- $r5
	@DEBUG_VALUE: CLK_EnableAPLL:u32PllFreq <- $r1
	.loc	9 1517 27 is_stmt 1             @ ../../../../Library/StdDriver/src/clk.c:1517:27
	str	r0, [r7, #28]
	.loc	9 1520 35                       @ ../../../../Library/StdDriver/src/clk.c:1520:35
	ldr	r0, [r7, #32]
	.loc	9 1520 44 is_stmt 0             @ ../../../../Library/StdDriver/src/clk.c:1520:44
	bic	r0, r0, #3
	.loc	9 1520 73                       @ ../../../../Library/StdDriver/src/clk.c:1520:73
	orr.w	r0, r0, r6
	.loc	9 1520 27                       @ ../../../../Library/StdDriver/src/clk.c:1520:27
	str	r0, [r7, #32]
	.loc	9 1523 25 is_stmt 1             @ ../../../../Library/StdDriver/src/clk.c:1523:25
	ldr	r0, [r7, #-4]
	orr	r1, r0, #128
.Ltmp491:
	@DEBUG_VALUE: CLK_EnableAPLL:u32PllFreq <- [DW_OP_LLVM_entry_value 1] $r1
	.loc	9 0 25 is_stmt 0                @ ../../../../Library/StdDriver/src/clk.c:0:25
	movw	r0, #38144
	movt	r0, #2746
	.loc	9 1523 25                       @ ../../../../Library/StdDriver/src/clk.c:1523:25
	str	r1, [r7, #-4]
.Ltmp492:
	.loc	9 1531 9 is_stmt 1              @ ../../../../Library/StdDriver/src/clk.c:1531:9
	cbnz	r6, .LBB19_79
	b	.LBB19_89
.Ltmp493:
.LBB19_77:
	@DEBUG_VALUE: CLK_EnableAPLL:u32PllSelect <- [DW_OP_plus_uconst 8] [$sp+0]
	@DEBUG_VALUE: CLK_EnableAPLL:u32Min <- $r12
	@DEBUG_VALUE: CLK_EnableAPLL:u32StableSel <- $r11
	@DEBUG_VALUE: CLK_EnableAPLL:u32MinNR <- $r8
	@DEBUG_VALUE: CLK_EnableAPLL:u32PllFreq <- $r5
	@DEBUG_VALUE: CLK_EnableAPLL:u32MinNF <- $r1
	@DEBUG_VALUE: CLK_EnableAPLL:u32NO <- [DW_OP_plus_uconst 4] [$sp+0]
	.loc	9 0 9 is_stmt 0                 @ ../../../../Library/StdDriver/src/clk.c:0:9
	ldr	r6, [sp, #4]                    @ 4-byte Reload
	movw	r2, #65024
	movt	r2, #65535
.Ltmp494:
	subs	r3, r1, #2
	orr.w	r0, r11, r6, lsl #14
	add.w	r2, r2, r8, lsl #9
	orrs	r0, r3
	movw	r7, #4100
.Ltmp495:
	.loc	9 1470 13 is_stmt 1             @ ../../../../Library/StdDriver/src/clk.c:1470:13
	ldr	r3, [sp, #8]                    @ 4-byte Reload
.Ltmp496:
	@DEBUG_VALUE: CLK_EnableAPLL:u32PllSelect <- $r3
	.loc	9 0 0 is_stmt 0                 @ ../../../../Library/StdDriver/src/clk.c:0:0
	orrs	r0, r2
.Ltmp497:
	.loc	9 1470 13                       @ ../../../../Library/StdDriver/src/clk.c:1470:13
	cmp	r3, #0
	movt	r7, #16384
	beq	.LBB19_92
.Ltmp498:
@ %bb.78:
	@DEBUG_VALUE: CLK_EnableAPLL:u32Min <- $r12
	@DEBUG_VALUE: CLK_EnableAPLL:u32StableSel <- $r11
	@DEBUG_VALUE: CLK_EnableAPLL:u32MinNR <- $r8
	@DEBUG_VALUE: CLK_EnableAPLL:u32PllFreq <- $r5
	@DEBUG_VALUE: CLK_EnableAPLL:u32PllSelect <- $r3
	@DEBUG_VALUE: CLK_EnableAPLL:u32MinNF <- $r1
	@DEBUG_VALUE: CLK_EnableAPLL:u32NO <- [DW_OP_plus_uconst 4] [$sp+0]
	.loc	9 1487 27 is_stmt 1             @ ../../../../Library/StdDriver/src/clk.c:1487:27
	str	r0, [r7, #28]
.Ltmp499:
	.loc	9 1500 44                       @ ../../../../Library/StdDriver/src/clk.c:1500:44
	adds	r2, r6, #1
.Ltmp500:
	.loc	9 1493 35                       @ ../../../../Library/StdDriver/src/clk.c:1493:35
	ldr	r0, [r7, #32]
	ldr	r3, [sp]                        @ 4-byte Reload
.Ltmp501:
	.loc	9 1493 44 is_stmt 0             @ ../../../../Library/StdDriver/src/clk.c:1493:44
	bic	r0, r0, #3
	.loc	9 1493 73                       @ ../../../../Library/StdDriver/src/clk.c:1493:73
	orrs	r0, r3
	.loc	9 1493 27                       @ ../../../../Library/StdDriver/src/clk.c:1493:27
	str	r0, [r7, #32]
.Ltmp502:
	.loc	9 1500 51 is_stmt 1             @ ../../../../Library/StdDriver/src/clk.c:1500:51
	mul	r2, r8, r2
.Ltmp503:
	.loc	9 1496 25                       @ ../../../../Library/StdDriver/src/clk.c:1496:25
	ldr	r0, [r7, #-4]
.Ltmp504:
	.loc	9 1500 34                       @ ../../../../Library/StdDriver/src/clk.c:1500:34
	udiv	r2, r9, r2
.Ltmp505:
	.loc	9 1496 25                       @ ../../../../Library/StdDriver/src/clk.c:1496:25
	orr	r0, r0, #128
	str	r0, [r7, #-4]
.Ltmp506:
	.loc	9 1500 63                       @ ../../../../Library/StdDriver/src/clk.c:1500:63
	mul	r0, r1, r2
	lsl.w	r0, r0, #1
.Ltmp507:
	.loc	9 1531 9                        @ ../../../../Library/StdDriver/src/clk.c:1531:9
	cbz	r3, .LBB19_89
.Ltmp508:
.LBB19_79:
	@DEBUG_VALUE: CLK_EnableAPLL:u32StableSel <- $r11
	@DEBUG_VALUE: CLK_WaitClockReady:u32ClkMask <- 128
	.loc	9 1591 30                       @ ../../../../Library/StdDriver/src/clk.c:1591:30
	movw	r1, :lower16:SystemCoreClock
	movs	r2, #2
.Ltmp509:
	@DEBUG_VALUE: CLK_WaitClockReady:u32Ret <- 1
	@DEBUG_VALUE: CLK_WaitClockReady:u32TimeOutCnt <- undef
	movt	r1, :upper16:SystemCoreClock
	ldr	r1, [r1]
	.loc	9 1594 5                        @ ../../../../Library/StdDriver/src/clk.c:1594:5
	sub.w	r1, r2, r1, lsr #1
.Ltmp510:
	.p2align	2
.LBB19_80:                              @ =>This Inner Loop Header: Depth=1
	@DEBUG_VALUE: CLK_EnableAPLL:u32StableSel <- $r11
	@DEBUG_VALUE: CLK_WaitClockReady:u32Ret <- 1
	@DEBUG_VALUE: CLK_WaitClockReady:u32ClkMask <- 128
	@DEBUG_VALUE: CLK_WaitClockReady:u32TimeOutCnt <- undef
	.loc	9 1594 18 is_stmt 0             @ ../../../../Library/StdDriver/src/clk.c:1594:18
	ldr	r2, [r7]
.Ltmp511:
	@DEBUG_VALUE: CLK_WaitClockReady:u32TimeOutCnt <- [DW_OP_constu 1, DW_OP_minus, DW_OP_stack_value] undef
	.loc	9 1594 5                        @ ../../../../Library/StdDriver/src/clk.c:1594:5
	cmp	r1, #1
	beq.w	.LBB19_126
.Ltmp512:
@ %bb.81:                               @   in Loop: Header=BB19_80 Depth=1
	@DEBUG_VALUE: CLK_EnableAPLL:u32StableSel <- $r11
	@DEBUG_VALUE: CLK_WaitClockReady:u32Ret <- 1
	@DEBUG_VALUE: CLK_WaitClockReady:u32ClkMask <- 128
	.loc	9 0 0                           @ ../../../../Library/StdDriver/src/clk.c:0:0
	ands	r2, r2, #128
	.loc	9 1594 5                        @ ../../../../Library/StdDriver/src/clk.c:1594:5
	bne.w	.LBB19_126
.Ltmp513:
@ %bb.82:                               @   in Loop: Header=BB19_80 Depth=1
	@DEBUG_VALUE: CLK_EnableAPLL:u32StableSel <- $r11
	@DEBUG_VALUE: CLK_WaitClockReady:u32Ret <- 1
	@DEBUG_VALUE: CLK_WaitClockReady:u32ClkMask <- 128
	@DEBUG_VALUE: CLK_WaitClockReady:u32TimeOutCnt <- [DW_OP_constu 1, DW_OP_minus, DW_OP_stack_value] undef
	.loc	9 1594 18                       @ ../../../../Library/StdDriver/src/clk.c:1594:18
	ldr	r2, [r7]
.Ltmp514:
	@DEBUG_VALUE: CLK_WaitClockReady:u32TimeOutCnt <- [DW_OP_constu 2, DW_OP_minus, DW_OP_stack_value] undef
	.loc	9 1594 5                        @ ../../../../Library/StdDriver/src/clk.c:1594:5
	cmp	r1, #0
	beq.w	.LBB19_126
.Ltmp515:
@ %bb.83:                               @   in Loop: Header=BB19_80 Depth=1
	@DEBUG_VALUE: CLK_EnableAPLL:u32StableSel <- $r11
	@DEBUG_VALUE: CLK_WaitClockReady:u32Ret <- 1
	@DEBUG_VALUE: CLK_WaitClockReady:u32ClkMask <- 128
	.loc	9 0 0                           @ ../../../../Library/StdDriver/src/clk.c:0:0
	ands	r2, r2, #128
	.loc	9 1594 5                        @ ../../../../Library/StdDriver/src/clk.c:1594:5
	bne.w	.LBB19_126
.Ltmp516:
@ %bb.84:                               @   in Loop: Header=BB19_80 Depth=1
	@DEBUG_VALUE: CLK_EnableAPLL:u32StableSel <- $r11
	@DEBUG_VALUE: CLK_WaitClockReady:u32Ret <- 1
	@DEBUG_VALUE: CLK_WaitClockReady:u32ClkMask <- 128
	@DEBUG_VALUE: CLK_WaitClockReady:u32TimeOutCnt <- [DW_OP_constu 2, DW_OP_minus, DW_OP_stack_value] undef
	.loc	9 1594 18                       @ ../../../../Library/StdDriver/src/clk.c:1594:18
	ldr	r2, [r7]
.Ltmp517:
	@DEBUG_VALUE: CLK_WaitClockReady:u32TimeOutCnt <- [DW_OP_constu 3, DW_OP_minus, DW_OP_stack_value] undef
	.loc	9 1594 5                        @ ../../../../Library/StdDriver/src/clk.c:1594:5
	adds	r3, r1, #1
	beq.w	.LBB19_126
.Ltmp518:
@ %bb.85:                               @   in Loop: Header=BB19_80 Depth=1
	@DEBUG_VALUE: CLK_EnableAPLL:u32StableSel <- $r11
	@DEBUG_VALUE: CLK_WaitClockReady:u32Ret <- 1
	@DEBUG_VALUE: CLK_WaitClockReady:u32ClkMask <- 128
	.loc	9 0 0                           @ ../../../../Library/StdDriver/src/clk.c:0:0
	ands	r2, r2, #128
	.loc	9 1594 5                        @ ../../../../Library/StdDriver/src/clk.c:1594:5
	bne.w	.LBB19_126
.Ltmp519:
@ %bb.86:                               @   in Loop: Header=BB19_80 Depth=1
	@DEBUG_VALUE: CLK_EnableAPLL:u32StableSel <- $r11
	@DEBUG_VALUE: CLK_WaitClockReady:u32Ret <- 1
	@DEBUG_VALUE: CLK_WaitClockReady:u32ClkMask <- 128
	@DEBUG_VALUE: CLK_WaitClockReady:u32TimeOutCnt <- [DW_OP_constu 3, DW_OP_minus, DW_OP_stack_value] undef
	.loc	9 1594 18                       @ ../../../../Library/StdDriver/src/clk.c:1594:18
	ldr	r2, [r7]
.Ltmp520:
	@DEBUG_VALUE: CLK_WaitClockReady:u32TimeOutCnt <- [DW_OP_constu 4, DW_OP_minus, DW_OP_stack_value] undef
	.loc	9 1594 5                        @ ../../../../Library/StdDriver/src/clk.c:1594:5
	adds	r3, r1, #2
	beq.w	.LBB19_126
.Ltmp521:
@ %bb.87:                               @   in Loop: Header=BB19_80 Depth=1
	@DEBUG_VALUE: CLK_EnableAPLL:u32StableSel <- $r11
	@DEBUG_VALUE: CLK_WaitClockReady:u32Ret <- 1
	@DEBUG_VALUE: CLK_WaitClockReady:u32ClkMask <- 128
	.loc	9 0 0                           @ ../../../../Library/StdDriver/src/clk.c:0:0
	ands	r2, r2, #128
	.loc	9 1594 5                        @ ../../../../Library/StdDriver/src/clk.c:1594:5
	add.w	r1, r1, #4
	beq	.LBB19_80
	b	.LBB19_126
.Ltmp522:
.LBB19_88:
	@DEBUG_VALUE: CLK_EnableAPLL:u32StableSel <- $r11
	@DEBUG_VALUE: CLK_EnableAPLL:u32PllSelect <- $r5
	@DEBUG_VALUE: CLK_EnableAPLL:u32PllFreq <- $r1
	.loc	9 1507 27 is_stmt 1             @ ../../../../Library/StdDriver/src/clk.c:1507:27
	str	r0, [r7, #20]
	.loc	9 1510 35                       @ ../../../../Library/StdDriver/src/clk.c:1510:35
	ldr	r0, [r7, #24]
	.loc	9 1510 44 is_stmt 0             @ ../../../../Library/StdDriver/src/clk.c:1510:44
	bic	r0, r0, #3
	.loc	9 1510 73                       @ ../../../../Library/StdDriver/src/clk.c:1510:73
	orr.w	r0, r0, r6
	.loc	9 1510 27                       @ ../../../../Library/StdDriver/src/clk.c:1510:27
	str	r0, [r7, #24]
	.loc	9 1513 25 is_stmt 1             @ ../../../../Library/StdDriver/src/clk.c:1513:25
	ldr	r0, [r7, #-4]
	orr	r1, r0, #64
.Ltmp523:
	@DEBUG_VALUE: CLK_EnableAPLL:u32PllFreq <- [DW_OP_LLVM_entry_value 1] $r1
	.loc	9 0 25 is_stmt 0                @ ../../../../Library/StdDriver/src/clk.c:0:25
	movw	r0, #38144
	movt	r0, #2746
	.loc	9 1513 25                       @ ../../../../Library/StdDriver/src/clk.c:1513:25
	str	r1, [r7, #-4]
.Ltmp524:
	.loc	9 1531 9 is_stmt 1              @ ../../../../Library/StdDriver/src/clk.c:1531:9
	cbnz	r6, .LBB19_93
.Ltmp525:
.LBB19_89:
	@DEBUG_VALUE: CLK_EnableAPLL:u32StableSel <- $r11
	.loc	9 0 9 is_stmt 0                 @ ../../../../Library/StdDriver/src/clk.c:0:9
	movw	r1, #57360
.Ltmp526:
	movw	r3, :lower16:CyclesPerUs
	movt	r1, #57344
.Ltmp527:
	@DEBUG_VALUE: CLK_SysTickDelay:us <- 200
	.loc	9 2127 19 is_stmt 1             @ ../../../../Library/StdDriver/src/clk.c:2127:19
	ldr	r2, [r1]
	.loc	9 0 0 is_stmt 0                 @ ../../../../Library/StdDriver/src/clk.c:0:0
	movt	r3, :upper16:CyclesPerUs
	ldr	r3, [r3]
	.loc	9 2127 24                       @ ../../../../Library/StdDriver/src/clk.c:2127:24
	and	r7, r2, #5
	movs	r2, #200
	.loc	9 0 0                           @ ../../../../Library/StdDriver/src/clk.c:0:0
	muls	r2, r3, r2
.Ltmp528:
	.loc	9 2127 9                        @ ../../../../Library/StdDriver/src/clk.c:2127:9
	cmp	r7, #5
	bne	.LBB19_102
.Ltmp529:
@ %bb.90:
	@DEBUG_VALUE: CLK_EnableAPLL:u32StableSel <- $r11
	@DEBUG_VALUE: CLK_SysTickDelay:us <- 200
	@DEBUG_VALUE: CLK_SysTickDelay:u32DelayCycles <- $r2
	.loc	9 2131 39 is_stmt 1             @ ../../../../Library/StdDriver/src/clk.c:2131:39
	ldr	r3, [r1, #4]
.Ltmp530:
	.loc	9 2131 13 is_stmt 0             @ ../../../../Library/StdDriver/src/clk.c:2131:13
	cmp	r2, r3
	bls	.LBB19_106
.Ltmp531:
@ %bb.91:
	@DEBUG_VALUE: CLK_EnableAPLL:u32StableSel <- $r11
	@DEBUG_VALUE: CLK_SysTickDelay:u32DelayCycles <- $r2
	@DEBUG_VALUE: CLK_SysTickDelay:us <- 200
	.loc	9 2134 54 is_stmt 1             @ ../../../../Library/StdDriver/src/clk.c:2134:54
	ldr	r3, [r1, #4]
	.loc	9 2137 54                       @ ../../../../Library/StdDriver/src/clk.c:2137:54
	ldr	r6, [r1, #4]
	.loc	9 2134 43                       @ ../../../../Library/StdDriver/src/clk.c:2134:43
	udiv	r7, r2, r3
.Ltmp532:
	@DEBUG_VALUE: CLK_SysTickDelay:u32TargetInt <- $r7
	.loc	9 2137 43                       @ ../../../../Library/StdDriver/src/clk.c:2137:43
	udiv	r5, r2, r6
	mls	r2, r5, r6, r2
.Ltmp533:
	@DEBUG_VALUE: CLK_SysTickDelay:u32TargetRem <- $r2
	.loc	9 0 43 is_stmt 0                @ ../../../../Library/StdDriver/src/clk.c:0:43
	b	.LBB19_107
.Ltmp534:
.LBB19_92:
	@DEBUG_VALUE: CLK_EnableAPLL:u32Min <- $r12
	@DEBUG_VALUE: CLK_EnableAPLL:u32StableSel <- $r11
	@DEBUG_VALUE: CLK_EnableAPLL:u32MinNR <- $r8
	@DEBUG_VALUE: CLK_EnableAPLL:u32PllFreq <- $r5
	@DEBUG_VALUE: CLK_EnableAPLL:u32PllSelect <- $r3
	@DEBUG_VALUE: CLK_EnableAPLL:u32MinNF <- $r1
	@DEBUG_VALUE: CLK_EnableAPLL:u32NO <- [DW_OP_plus_uconst 4] [$sp+0]
	.loc	9 1473 27 is_stmt 1             @ ../../../../Library/StdDriver/src/clk.c:1473:27
	str	r0, [r7, #20]
.Ltmp535:
	.loc	9 1500 44                       @ ../../../../Library/StdDriver/src/clk.c:1500:44
	adds	r2, r6, #1
.Ltmp536:
	.loc	9 1479 35                       @ ../../../../Library/StdDriver/src/clk.c:1479:35
	ldr	r0, [r7, #24]
	ldr	r3, [sp]                        @ 4-byte Reload
.Ltmp537:
	.loc	9 1479 44 is_stmt 0             @ ../../../../Library/StdDriver/src/clk.c:1479:44
	bic	r0, r0, #3
	.loc	9 1479 73                       @ ../../../../Library/StdDriver/src/clk.c:1479:73
	orrs	r0, r3
	.loc	9 1479 27                       @ ../../../../Library/StdDriver/src/clk.c:1479:27
	str	r0, [r7, #24]
.Ltmp538:
	.loc	9 1500 51 is_stmt 1             @ ../../../../Library/StdDriver/src/clk.c:1500:51
	mul	r2, r8, r2
.Ltmp539:
	.loc	9 1482 25                       @ ../../../../Library/StdDriver/src/clk.c:1482:25
	ldr	r0, [r7, #-4]
.Ltmp540:
	.loc	9 1500 34                       @ ../../../../Library/StdDriver/src/clk.c:1500:34
	udiv	r2, r9, r2
.Ltmp541:
	.loc	9 1482 25                       @ ../../../../Library/StdDriver/src/clk.c:1482:25
	orr	r0, r0, #64
	str	r0, [r7, #-4]
.Ltmp542:
	.loc	9 1500 63                       @ ../../../../Library/StdDriver/src/clk.c:1500:63
	mul	r0, r1, r2
.Ltmp543:
	.loc	9 1531 9                        @ ../../../../Library/StdDriver/src/clk.c:1531:9
	cmp	r3, #0
.Ltmp544:
	.loc	9 1500 63                       @ ../../../../Library/StdDriver/src/clk.c:1500:63
	lsl.w	r0, r0, #1
.Ltmp545:
	@DEBUG_VALUE: CLK_EnableAPLL:u32PllClk <- $r0
	.loc	9 1531 9                        @ ../../../../Library/StdDriver/src/clk.c:1531:9
	beq	.LBB19_89
.Ltmp546:
.LBB19_93:
	@DEBUG_VALUE: CLK_EnableAPLL:u32StableSel <- $r11
	@DEBUG_VALUE: CLK_WaitClockReady:u32ClkMask <- 64
	.loc	9 1591 30                       @ ../../../../Library/StdDriver/src/clk.c:1591:30
	movw	r1, :lower16:SystemCoreClock
	movs	r2, #2
.Ltmp547:
	@DEBUG_VALUE: CLK_WaitClockReady:u32Ret <- 1
	@DEBUG_VALUE: CLK_WaitClockReady:u32TimeOutCnt <- undef
	movt	r1, :upper16:SystemCoreClock
	ldr	r1, [r1]
	.loc	9 1594 5                        @ ../../../../Library/StdDriver/src/clk.c:1594:5
	sub.w	r1, r2, r1, lsr #1
.Ltmp548:
	.p2align	2
.LBB19_94:                              @ =>This Inner Loop Header: Depth=1
	@DEBUG_VALUE: CLK_EnableAPLL:u32StableSel <- $r11
	@DEBUG_VALUE: CLK_WaitClockReady:u32Ret <- 1
	@DEBUG_VALUE: CLK_WaitClockReady:u32ClkMask <- 64
	@DEBUG_VALUE: CLK_WaitClockReady:u32TimeOutCnt <- undef
	.loc	9 1594 18 is_stmt 0             @ ../../../../Library/StdDriver/src/clk.c:1594:18
	ldr	r2, [r7]
.Ltmp549:
	@DEBUG_VALUE: CLK_WaitClockReady:u32TimeOutCnt <- [DW_OP_constu 1, DW_OP_minus, DW_OP_stack_value] undef
	.loc	9 1594 5                        @ ../../../../Library/StdDriver/src/clk.c:1594:5
	cmp	r1, #1
	beq	.LBB19_126
.Ltmp550:
@ %bb.95:                               @   in Loop: Header=BB19_94 Depth=1
	@DEBUG_VALUE: CLK_EnableAPLL:u32StableSel <- $r11
	@DEBUG_VALUE: CLK_WaitClockReady:u32Ret <- 1
	@DEBUG_VALUE: CLK_WaitClockReady:u32ClkMask <- 64
	.loc	9 0 0                           @ ../../../../Library/StdDriver/src/clk.c:0:0
	ands	r2, r2, #64
	.loc	9 1594 5                        @ ../../../../Library/StdDriver/src/clk.c:1594:5
	bne	.LBB19_126
.Ltmp551:
@ %bb.96:                               @   in Loop: Header=BB19_94 Depth=1
	@DEBUG_VALUE: CLK_EnableAPLL:u32StableSel <- $r11
	@DEBUG_VALUE: CLK_WaitClockReady:u32Ret <- 1
	@DEBUG_VALUE: CLK_WaitClockReady:u32ClkMask <- 64
	@DEBUG_VALUE: CLK_WaitClockReady:u32TimeOutCnt <- [DW_OP_constu 1, DW_OP_minus, DW_OP_stack_value] undef
	.loc	9 1594 18                       @ ../../../../Library/StdDriver/src/clk.c:1594:18
	ldr	r2, [r7]
.Ltmp552:
	@DEBUG_VALUE: CLK_WaitClockReady:u32TimeOutCnt <- [DW_OP_constu 2, DW_OP_minus, DW_OP_stack_value] undef
	.loc	9 1594 5                        @ ../../../../Library/StdDriver/src/clk.c:1594:5
	cmp	r1, #0
	beq	.LBB19_126
.Ltmp553:
@ %bb.97:                               @   in Loop: Header=BB19_94 Depth=1
	@DEBUG_VALUE: CLK_EnableAPLL:u32StableSel <- $r11
	@DEBUG_VALUE: CLK_WaitClockReady:u32Ret <- 1
	@DEBUG_VALUE: CLK_WaitClockReady:u32ClkMask <- 64
	.loc	9 0 0                           @ ../../../../Library/StdDriver/src/clk.c:0:0
	ands	r2, r2, #64
	bne	.LBB19_126
.Ltmp554:
@ %bb.98:                               @   in Loop: Header=BB19_94 Depth=1
	@DEBUG_VALUE: CLK_EnableAPLL:u32StableSel <- $r11
	@DEBUG_VALUE: CLK_WaitClockReady:u32Ret <- 1
	@DEBUG_VALUE: CLK_WaitClockReady:u32ClkMask <- 64
	@DEBUG_VALUE: CLK_WaitClockReady:u32TimeOutCnt <- [DW_OP_constu 2, DW_OP_minus, DW_OP_stack_value] undef
	.loc	9 1594 18                       @ ../../../../Library/StdDriver/src/clk.c:1594:18
	ldr	r2, [r7]
.Ltmp555:
	@DEBUG_VALUE: CLK_WaitClockReady:u32TimeOutCnt <- [DW_OP_constu 3, DW_OP_minus, DW_OP_stack_value] undef
	.loc	9 1594 5                        @ ../../../../Library/StdDriver/src/clk.c:1594:5
	adds	r3, r1, #1
	beq	.LBB19_126
.Ltmp556:
@ %bb.99:                               @   in Loop: Header=BB19_94 Depth=1
	@DEBUG_VALUE: CLK_EnableAPLL:u32StableSel <- $r11
	@DEBUG_VALUE: CLK_WaitClockReady:u32Ret <- 1
	@DEBUG_VALUE: CLK_WaitClockReady:u32ClkMask <- 64
	.loc	9 0 0                           @ ../../../../Library/StdDriver/src/clk.c:0:0
	ands	r2, r2, #64
	bne	.LBB19_126
.Ltmp557:
@ %bb.100:                              @   in Loop: Header=BB19_94 Depth=1
	@DEBUG_VALUE: CLK_EnableAPLL:u32StableSel <- $r11
	@DEBUG_VALUE: CLK_WaitClockReady:u32Ret <- 1
	@DEBUG_VALUE: CLK_WaitClockReady:u32ClkMask <- 64
	@DEBUG_VALUE: CLK_WaitClockReady:u32TimeOutCnt <- [DW_OP_constu 3, DW_OP_minus, DW_OP_stack_value] undef
	.loc	9 1594 18                       @ ../../../../Library/StdDriver/src/clk.c:1594:18
	ldr	r2, [r7]
.Ltmp558:
	@DEBUG_VALUE: CLK_WaitClockReady:u32TimeOutCnt <- [DW_OP_constu 4, DW_OP_minus, DW_OP_stack_value] undef
	.loc	9 1594 5                        @ ../../../../Library/StdDriver/src/clk.c:1594:5
	adds	r3, r1, #2
	beq	.LBB19_126
.Ltmp559:
@ %bb.101:                              @   in Loop: Header=BB19_94 Depth=1
	@DEBUG_VALUE: CLK_EnableAPLL:u32StableSel <- $r11
	@DEBUG_VALUE: CLK_WaitClockReady:u32Ret <- 1
	@DEBUG_VALUE: CLK_WaitClockReady:u32ClkMask <- 64
	.loc	9 0 0                           @ ../../../../Library/StdDriver/src/clk.c:0:0
	ands	r2, r2, #64
	.loc	9 1594 5                        @ ../../../../Library/StdDriver/src/clk.c:1594:5
	add.w	r1, r1, #4
	beq	.LBB19_94
	b	.LBB19_126
.Ltmp560:
.LBB19_102:
	@DEBUG_VALUE: CLK_EnableAPLL:u32StableSel <- $r11
	@DEBUG_VALUE: CLK_SysTickDelay:us <- 200
	.loc	9 2173 23 is_stmt 1             @ ../../../../Library/StdDriver/src/clk.c:2173:23
	str	r2, [r1, #4]
	movs	r2, #0
	.loc	9 2174 23                       @ ../../../../Library/StdDriver/src/clk.c:2174:23
	str	r2, [r1, #8]
	movs	r2, #5
	.loc	9 2175 23                       @ ../../../../Library/StdDriver/src/clk.c:2175:23
	str	r2, [r1]
.Ltmp561:
	.p2align	2
.LBB19_103:                             @ =>This Inner Loop Header: Depth=1
	@DEBUG_VALUE: CLK_EnableAPLL:u32StableSel <- $r11
	@DEBUG_VALUE: CLK_SysTickDelay:us <- 200
	.loc	9 2178 26                       @ ../../../../Library/StdDriver/src/clk.c:2178:26
	ldr	r2, [r1]
	.loc	9 2178 9 is_stmt 0              @ ../../../../Library/StdDriver/src/clk.c:2178:9
	lsls	r2, r2, #15
	.loc	9 2178 26                       @ ../../../../Library/StdDriver/src/clk.c:2178:26
	itttt	pl
	ldrpl	r2, [r1]
	.loc	9 2178 9                        @ ../../../../Library/StdDriver/src/clk.c:2178:9
	lslspl.w	r2, r2, #15
	.loc	9 2178 26                       @ ../../../../Library/StdDriver/src/clk.c:2178:26
	ldrpl	r2, [r1]
	.loc	9 2178 9                        @ ../../../../Library/StdDriver/src/clk.c:2178:9
	lslspl.w	r2, r2, #15
	bmi	.LBB19_105
.Ltmp562:
@ %bb.104:                              @   in Loop: Header=BB19_103 Depth=1
	@DEBUG_VALUE: CLK_EnableAPLL:u32StableSel <- $r11
	@DEBUG_VALUE: CLK_SysTickDelay:us <- 200
	.loc	9 2178 26                       @ ../../../../Library/StdDriver/src/clk.c:2178:26
	ldr	r2, [r1]
	.loc	9 2178 9                        @ ../../../../Library/StdDriver/src/clk.c:2178:9
	lsls	r2, r2, #15
	bpl	.LBB19_103
.Ltmp563:
.LBB19_105:
	@DEBUG_VALUE: CLK_EnableAPLL:u32StableSel <- $r11
	@DEBUG_VALUE: CLK_SysTickDelay:us <- 200
	.loc	9 0 9                           @ ../../../../Library/StdDriver/src/clk.c:0:9
	movs	r2, #0
	.loc	9 2183 23 is_stmt 1             @ ../../../../Library/StdDriver/src/clk.c:2183:23
	str	r2, [r1]
.Ltmp564:
	.loc	9 1550 5                        @ ../../../../Library/StdDriver/src/clk.c:1550:5
	add	sp, #16
	pop.w	{r4, r5, r6, r7, r8, r9, r10, r11, pc}
.Ltmp565:
.LBB19_106:
	@DEBUG_VALUE: CLK_EnableAPLL:u32StableSel <- $r11
	@DEBUG_VALUE: CLK_SysTickDelay:u32DelayCycles <- $r2
	@DEBUG_VALUE: CLK_SysTickDelay:us <- 200
	.loc	9 0 5 is_stmt 0                 @ ../../../../Library/StdDriver/src/clk.c:0:5
	movs	r7, #0
.Ltmp566:
.LBB19_107:
	@DEBUG_VALUE: CLK_EnableAPLL:u32StableSel <- $r11
	@DEBUG_VALUE: CLK_SysTickDelay:us <- 200
	@DEBUG_VALUE: CLK_SysTickDelay:u32TargetInt <- $r7
	@DEBUG_VALUE: CLK_SysTickDelay:u32TargetRem <- $r2
	.loc	9 2145 37 is_stmt 1             @ ../../../../Library/StdDriver/src/clk.c:2145:37
	ldr	r3, [r1, #8]
.Ltmp567:
	.loc	9 2145 13 is_stmt 0             @ ../../../../Library/StdDriver/src/clk.c:2145:13
	cmp	r2, r3
	bls	.LBB19_109
.Ltmp568:
@ %bb.108:
	@DEBUG_VALUE: CLK_EnableAPLL:u32StableSel <- $r11
	@DEBUG_VALUE: CLK_SysTickDelay:u32TargetInt <- $r7
	@DEBUG_VALUE: CLK_SysTickDelay:u32TargetRem <- $r2
	@DEBUG_VALUE: CLK_SysTickDelay:us <- 200
	.loc	9 2147 39 is_stmt 1             @ ../../../../Library/StdDriver/src/clk.c:2147:39
	ldr	r3, [r1, #4]
.Ltmp569:
	@DEBUG_VALUE: CLK_SysTickDelay:u32TargetValue <- $r3
	.loc	9 2149 25                       @ ../../../../Library/StdDriver/src/clk.c:2149:25
	adds	r7, #1
.Ltmp570:
	@DEBUG_VALUE: CLK_SysTickDelay:u32TargetInt <- $r7
	.loc	9 2148 72                       @ ../../../../Library/StdDriver/src/clk.c:2148:72
	ldr	r6, [r1, #8]
	.loc	9 2148 61 is_stmt 0             @ ../../../../Library/StdDriver/src/clk.c:2148:61
	subs	r2, r3, r2
.Ltmp571:
	.loc	9 2148 45                       @ ../../../../Library/StdDriver/src/clk.c:2148:45
	add	r2, r6
.Ltmp572:
	@DEBUG_VALUE: CLK_SysTickDelay:u32TargetValue <- $r2
	@DEBUG_VALUE: CLK_SysTickDelay:u32TargetInt <- $r7
	@DEBUG_VALUE: CLK_SysTickDelay:u32TargetValue <- $r2
	.loc	9 0 45                          @ ../../../../Library/StdDriver/src/clk.c:0:45
	cbnz	r7, .LBB19_110
	b	.LBB19_122
.Ltmp573:
.LBB19_109:
	@DEBUG_VALUE: CLK_EnableAPLL:u32StableSel <- $r11
	@DEBUG_VALUE: CLK_SysTickDelay:u32TargetInt <- $r7
	@DEBUG_VALUE: CLK_SysTickDelay:u32TargetRem <- $r2
	@DEBUG_VALUE: CLK_SysTickDelay:us <- 200
	.loc	9 2153 39 is_stmt 1             @ ../../../../Library/StdDriver/src/clk.c:2153:39
	ldr	r3, [r1, #8]
	.loc	9 2153 43 is_stmt 0             @ ../../../../Library/StdDriver/src/clk.c:2153:43
	subs	r2, r3, r2
.Ltmp574:
	@DEBUG_VALUE: CLK_SysTickDelay:u32TargetValue <- $r2
	@DEBUG_VALUE: CLK_SysTickDelay:u32TargetInt <- $r7
	@DEBUG_VALUE: CLK_SysTickDelay:u32TargetValue <- $r2
	.loc	9 2156 9 is_stmt 1              @ ../../../../Library/StdDriver/src/clk.c:2156:9
	cbz	r7, .LBB19_122
.Ltmp575:
.LBB19_110:
	@DEBUG_VALUE: CLK_EnableAPLL:u32StableSel <- $r11
	@DEBUG_VALUE: CLK_SysTickDelay:u32TargetInt <- $r7
	@DEBUG_VALUE: CLK_SysTickDelay:u32TargetValue <- $r2
	@DEBUG_VALUE: CLK_SysTickDelay:us <- 200
	ands	r5, r7, #3
	sub.w	r6, r7, #1
	beq	.LBB19_120
.Ltmp576:
.LBB19_111:                             @ =>This Inner Loop Header: Depth=1
	@DEBUG_VALUE: CLK_EnableAPLL:u32StableSel <- $r11
	@DEBUG_VALUE: CLK_SysTickDelay:u32TargetInt <- $r7
	@DEBUG_VALUE: CLK_SysTickDelay:u32TargetValue <- $r2
	@DEBUG_VALUE: CLK_SysTickDelay:us <- 200
	.loc	9 2159 30                       @ ../../../../Library/StdDriver/src/clk.c:2159:30
	ldr	r3, [r1]
	.loc	9 2159 13 is_stmt 0             @ ../../../../Library/StdDriver/src/clk.c:2159:13
	lsls	r3, r3, #15
	bmi	.LBB19_114
.Ltmp577:
@ %bb.112:                              @   in Loop: Header=BB19_111 Depth=1
	@DEBUG_VALUE: CLK_EnableAPLL:u32StableSel <- $r11
	@DEBUG_VALUE: CLK_SysTickDelay:u32TargetInt <- $r7
	@DEBUG_VALUE: CLK_SysTickDelay:u32TargetValue <- $r2
	@DEBUG_VALUE: CLK_SysTickDelay:us <- 200
	.loc	9 2159 30                       @ ../../../../Library/StdDriver/src/clk.c:2159:30
	ldr	r3, [r1]
	.loc	9 2159 13                       @ ../../../../Library/StdDriver/src/clk.c:2159:13
	lsls	r3, r3, #15
	.loc	9 2159 30                       @ ../../../../Library/StdDriver/src/clk.c:2159:30
	itt	pl
	ldrpl	r3, [r1]
	.loc	9 2159 13                       @ ../../../../Library/StdDriver/src/clk.c:2159:13
	lslspl.w	r3, r3, #15
	bmi	.LBB19_114
.Ltmp578:
@ %bb.113:                              @   in Loop: Header=BB19_111 Depth=1
	@DEBUG_VALUE: CLK_EnableAPLL:u32StableSel <- $r11
	@DEBUG_VALUE: CLK_SysTickDelay:u32TargetInt <- $r7
	@DEBUG_VALUE: CLK_SysTickDelay:u32TargetValue <- $r2
	@DEBUG_VALUE: CLK_SysTickDelay:us <- 200
	.loc	9 2159 30                       @ ../../../../Library/StdDriver/src/clk.c:2159:30
	ldr	r3, [r1]
	.loc	9 2159 13                       @ ../../../../Library/StdDriver/src/clk.c:2159:13
	lsls	r3, r3, #15
	bpl	.LBB19_111
.Ltmp579:
.LBB19_114:
	@DEBUG_VALUE: CLK_EnableAPLL:u32StableSel <- $r11
	@DEBUG_VALUE: CLK_SysTickDelay:u32TargetInt <- $r7
	@DEBUG_VALUE: CLK_SysTickDelay:u32TargetValue <- $r2
	@DEBUG_VALUE: CLK_SysTickDelay:us <- 200
	@DEBUG_VALUE: CLK_SysTickDelay:u32TargetInt <- $r6
	.loc	9 2156 9 is_stmt 1              @ ../../../../Library/StdDriver/src/clk.c:2156:9
	cmp	r5, #1
	mov	r3, r6
	beq	.LBB19_121
.Ltmp580:
.LBB19_115:                             @ =>This Inner Loop Header: Depth=1
	@DEBUG_VALUE: CLK_EnableAPLL:u32StableSel <- $r11
	@DEBUG_VALUE: CLK_SysTickDelay:u32TargetInt <- $r6
	@DEBUG_VALUE: CLK_SysTickDelay:u32TargetValue <- $r2
	@DEBUG_VALUE: CLK_SysTickDelay:us <- 200
	.loc	9 2159 30                       @ ../../../../Library/StdDriver/src/clk.c:2159:30
	ldr	r3, [r1]
	.loc	9 2159 13 is_stmt 0             @ ../../../../Library/StdDriver/src/clk.c:2159:13
	lsls	r3, r3, #15
	bmi	.LBB19_118
.Ltmp581:
@ %bb.116:                              @   in Loop: Header=BB19_115 Depth=1
	@DEBUG_VALUE: CLK_EnableAPLL:u32StableSel <- $r11
	@DEBUG_VALUE: CLK_SysTickDelay:u32TargetInt <- $r6
	@DEBUG_VALUE: CLK_SysTickDelay:u32TargetValue <- $r2
	@DEBUG_VALUE: CLK_SysTickDelay:us <- 200
	.loc	9 2159 30                       @ ../../../../Library/StdDriver/src/clk.c:2159:30
	ldr	r3, [r1]
	.loc	9 2159 13                       @ ../../../../Library/StdDriver/src/clk.c:2159:13
	lsls	r3, r3, #15
	.loc	9 2159 30                       @ ../../../../Library/StdDriver/src/clk.c:2159:30
	itt	pl
	ldrpl	r3, [r1]
	.loc	9 2159 13                       @ ../../../../Library/StdDriver/src/clk.c:2159:13
	lslspl.w	r3, r3, #15
	bmi	.LBB19_118
.Ltmp582:
@ %bb.117:                              @   in Loop: Header=BB19_115 Depth=1
	@DEBUG_VALUE: CLK_EnableAPLL:u32StableSel <- $r11
	@DEBUG_VALUE: CLK_SysTickDelay:u32TargetInt <- $r6
	@DEBUG_VALUE: CLK_SysTickDelay:u32TargetValue <- $r2
	@DEBUG_VALUE: CLK_SysTickDelay:us <- 200
	.loc	9 2159 30                       @ ../../../../Library/StdDriver/src/clk.c:2159:30
	ldr	r3, [r1]
	.loc	9 2159 13                       @ ../../../../Library/StdDriver/src/clk.c:2159:13
	lsls	r3, r3, #15
	bpl	.LBB19_115
.Ltmp583:
.LBB19_118:
	@DEBUG_VALUE: CLK_EnableAPLL:u32StableSel <- $r11
	@DEBUG_VALUE: CLK_SysTickDelay:u32TargetInt <- $r6
	@DEBUG_VALUE: CLK_SysTickDelay:u32TargetValue <- $r2
	@DEBUG_VALUE: CLK_SysTickDelay:us <- 200
	@DEBUG_VALUE: CLK_SysTickDelay:u32TargetInt <- undef
	.loc	9 2156 9 is_stmt 1              @ ../../../../Library/StdDriver/src/clk.c:2156:9
	cmp	r5, #2
	bne	.LBB19_127
.Ltmp584:
@ %bb.119:
	@DEBUG_VALUE: CLK_EnableAPLL:u32StableSel <- $r11
	@DEBUG_VALUE: CLK_SysTickDelay:u32TargetValue <- $r2
	@DEBUG_VALUE: CLK_SysTickDelay:us <- 200
	.loc	9 0 9 is_stmt 0                 @ ../../../../Library/StdDriver/src/clk.c:0:9
	subs	r3, r7, #2
.Ltmp585:
	@DEBUG_VALUE: CLK_SysTickDelay:u32TargetInt <- $r3
	.loc	9 2156 9                        @ ../../../../Library/StdDriver/src/clk.c:2156:9
	cmp	r6, #3
	blo	.LBB19_122
	b	.LBB19_132
.Ltmp586:
.LBB19_120:
	@DEBUG_VALUE: CLK_EnableAPLL:u32StableSel <- $r11
	@DEBUG_VALUE: CLK_SysTickDelay:u32TargetInt <- $r7
	@DEBUG_VALUE: CLK_SysTickDelay:u32TargetValue <- $r2
	@DEBUG_VALUE: CLK_SysTickDelay:us <- 200
	.loc	9 0 9                           @ ../../../../Library/StdDriver/src/clk.c:0:9
	mov	r3, r7
.Ltmp587:
.LBB19_121:
	@DEBUG_VALUE: CLK_EnableAPLL:u32StableSel <- $r11
	@DEBUG_VALUE: CLK_SysTickDelay:u32TargetValue <- $r2
	@DEBUG_VALUE: CLK_SysTickDelay:us <- 200
	.loc	9 2156 9                        @ ../../../../Library/StdDriver/src/clk.c:2156:9
	cmp	r6, #3
	bhs	.LBB19_132
.Ltmp588:
	.p2align	2
.LBB19_122:                             @ =>This Inner Loop Header: Depth=1
	@DEBUG_VALUE: CLK_EnableAPLL:u32StableSel <- $r11
	@DEBUG_VALUE: CLK_SysTickDelay:u32TargetValue <- $r2
	@DEBUG_VALUE: CLK_SysTickDelay:us <- 200
	.loc	9 2167 25 is_stmt 1             @ ../../../../Library/StdDriver/src/clk.c:2167:25
	ldr	r3, [r1, #8]
	.loc	9 2167 9 is_stmt 0              @ ../../../../Library/StdDriver/src/clk.c:2167:9
	cmp	r3, r2
	bls	.LBB19_126
.Ltmp589:
@ %bb.123:                              @   in Loop: Header=BB19_122 Depth=1
	@DEBUG_VALUE: CLK_EnableAPLL:u32StableSel <- $r11
	@DEBUG_VALUE: CLK_SysTickDelay:u32TargetValue <- $r2
	@DEBUG_VALUE: CLK_SysTickDelay:us <- 200
	.loc	9 2167 25                       @ ../../../../Library/StdDriver/src/clk.c:2167:25
	ldr	r3, [r1, #8]
	.loc	9 2167 9                        @ ../../../../Library/StdDriver/src/clk.c:2167:9
	cmp	r3, r2
	bls	.LBB19_126
.Ltmp590:
@ %bb.124:                              @   in Loop: Header=BB19_122 Depth=1
	@DEBUG_VALUE: CLK_EnableAPLL:u32StableSel <- $r11
	@DEBUG_VALUE: CLK_SysTickDelay:u32TargetValue <- $r2
	@DEBUG_VALUE: CLK_SysTickDelay:us <- 200
	.loc	9 2167 25                       @ ../../../../Library/StdDriver/src/clk.c:2167:25
	ldr	r3, [r1, #8]
	.loc	9 2167 9                        @ ../../../../Library/StdDriver/src/clk.c:2167:9
	cmp	r3, r2
	bls	.LBB19_126
.Ltmp591:
@ %bb.125:                              @   in Loop: Header=BB19_122 Depth=1
	@DEBUG_VALUE: CLK_EnableAPLL:u32StableSel <- $r11
	@DEBUG_VALUE: CLK_SysTickDelay:u32TargetValue <- $r2
	@DEBUG_VALUE: CLK_SysTickDelay:us <- 200
	.loc	9 2167 25                       @ ../../../../Library/StdDriver/src/clk.c:2167:25
	ldr	r3, [r1, #8]
	.loc	9 2167 9                        @ ../../../../Library/StdDriver/src/clk.c:2167:9
	cmp	r3, r2
	bhi	.LBB19_122
.Ltmp592:
.LBB19_126:
	@DEBUG_VALUE: CLK_EnableAPLL:u32StableSel <- $r11
	.loc	9 1550 5 is_stmt 1              @ ../../../../Library/StdDriver/src/clk.c:1550:5
	add	sp, #16
	pop.w	{r4, r5, r6, r7, r8, r9, r10, r11, pc}
.Ltmp593:
.LBB19_127:                             @ =>This Inner Loop Header: Depth=1
	@DEBUG_VALUE: CLK_EnableAPLL:u32StableSel <- $r11
	@DEBUG_VALUE: CLK_SysTickDelay:u32TargetValue <- $r2
	@DEBUG_VALUE: CLK_SysTickDelay:us <- 200
	.loc	9 2159 30                       @ ../../../../Library/StdDriver/src/clk.c:2159:30
	ldr	r3, [r1]
	.loc	9 2159 13 is_stmt 0             @ ../../../../Library/StdDriver/src/clk.c:2159:13
	lsls	r3, r3, #15
	bmi	.LBB19_130
.Ltmp594:
@ %bb.128:                              @   in Loop: Header=BB19_127 Depth=1
	@DEBUG_VALUE: CLK_EnableAPLL:u32StableSel <- $r11
	@DEBUG_VALUE: CLK_SysTickDelay:u32TargetValue <- $r2
	@DEBUG_VALUE: CLK_SysTickDelay:us <- 200
	.loc	9 2159 30                       @ ../../../../Library/StdDriver/src/clk.c:2159:30
	ldr	r3, [r1]
	.loc	9 2159 13                       @ ../../../../Library/StdDriver/src/clk.c:2159:13
	lsls	r3, r3, #15
	.loc	9 2159 30                       @ ../../../../Library/StdDriver/src/clk.c:2159:30
	itt	pl
	ldrpl	r3, [r1]
	.loc	9 2159 13                       @ ../../../../Library/StdDriver/src/clk.c:2159:13
	lslspl.w	r3, r3, #15
	bmi	.LBB19_130
.Ltmp595:
@ %bb.129:                              @   in Loop: Header=BB19_127 Depth=1
	@DEBUG_VALUE: CLK_EnableAPLL:u32StableSel <- $r11
	@DEBUG_VALUE: CLK_SysTickDelay:u32TargetValue <- $r2
	@DEBUG_VALUE: CLK_SysTickDelay:us <- 200
	.loc	9 2159 30                       @ ../../../../Library/StdDriver/src/clk.c:2159:30
	ldr	r3, [r1]
	.loc	9 2159 13                       @ ../../../../Library/StdDriver/src/clk.c:2159:13
	lsls	r3, r3, #15
	bpl	.LBB19_127
.Ltmp596:
.LBB19_130:
	@DEBUG_VALUE: CLK_EnableAPLL:u32StableSel <- $r11
	@DEBUG_VALUE: CLK_SysTickDelay:u32TargetValue <- $r2
	@DEBUG_VALUE: CLK_SysTickDelay:us <- 200
	.loc	9 2163 25 is_stmt 1             @ ../../../../Library/StdDriver/src/clk.c:2163:25
	subs	r3, r7, #3
.Ltmp597:
	@DEBUG_VALUE: CLK_SysTickDelay:u32TargetInt <- $r3
	.loc	9 2156 9                        @ ../../../../Library/StdDriver/src/clk.c:2156:9
	cmp	r6, #3
	blo	.LBB19_122
	b	.LBB19_132
.Ltmp598:
	.p2align	2
.LBB19_131:                             @   in Loop: Header=BB19_132 Depth=1
	@DEBUG_VALUE: CLK_EnableAPLL:u32StableSel <- $r11
	@DEBUG_VALUE: CLK_SysTickDelay:u32TargetValue <- $r2
	@DEBUG_VALUE: CLK_SysTickDelay:us <- 200
	.loc	9 2163 25                       @ ../../../../Library/StdDriver/src/clk.c:2163:25
	subs	r3, #4
.Ltmp599:
	@DEBUG_VALUE: CLK_SysTickDelay:u32TargetInt <- $r3
	.loc	9 2156 9                        @ ../../../../Library/StdDriver/src/clk.c:2156:9
	beq	.LBB19_122
.Ltmp600:
.LBB19_132:                             @ =>This Loop Header: Depth=1
                                        @     Child Loop BB19_134 Depth 2
                                        @     Child Loop BB19_137 Depth 2
                                        @     Child Loop BB19_140 Depth 2
	@DEBUG_VALUE: CLK_EnableAPLL:u32StableSel <- $r11
	@DEBUG_VALUE: CLK_SysTickDelay:u32TargetValue <- $r2
	@DEBUG_VALUE: CLK_SysTickDelay:us <- 200
	.loc	9 2159 30                       @ ../../../../Library/StdDriver/src/clk.c:2159:30
	ldr	r7, [r1]
	.loc	9 2159 13 is_stmt 0             @ ../../../../Library/StdDriver/src/clk.c:2159:13
	lsls	r7, r7, #15
	bmi	.LBB19_134
.Ltmp601:
@ %bb.133:                              @   in Loop: Header=BB19_132 Depth=1
	@DEBUG_VALUE: CLK_EnableAPLL:u32StableSel <- $r11
	@DEBUG_VALUE: CLK_SysTickDelay:u32TargetValue <- $r2
	@DEBUG_VALUE: CLK_SysTickDelay:us <- 200
	.loc	9 2159 30                       @ ../../../../Library/StdDriver/src/clk.c:2159:30
	ldr	r7, [r1]
	.loc	9 2159 13                       @ ../../../../Library/StdDriver/src/clk.c:2159:13
	lsls	r7, r7, #15
	.loc	9 2159 30                       @ ../../../../Library/StdDriver/src/clk.c:2159:30
	itt	pl
	ldrpl	r7, [r1]
	.loc	9 2159 13                       @ ../../../../Library/StdDriver/src/clk.c:2159:13
	lslspl.w	r7, r7, #15
	bpl	.LBB19_143
.Ltmp602:
.LBB19_134:                             @   Parent Loop BB19_132 Depth=1
                                        @ =>  This Inner Loop Header: Depth=2
	@DEBUG_VALUE: CLK_EnableAPLL:u32StableSel <- $r11
	@DEBUG_VALUE: CLK_SysTickDelay:u32TargetValue <- $r2
	@DEBUG_VALUE: CLK_SysTickDelay:us <- 200
	.loc	9 2159 30                       @ ../../../../Library/StdDriver/src/clk.c:2159:30
	ldr	r7, [r1]
	.loc	9 2159 13                       @ ../../../../Library/StdDriver/src/clk.c:2159:13
	lsls	r7, r7, #15
	bmi	.LBB19_137
.Ltmp603:
@ %bb.135:                              @   in Loop: Header=BB19_134 Depth=2
	@DEBUG_VALUE: CLK_EnableAPLL:u32StableSel <- $r11
	@DEBUG_VALUE: CLK_SysTickDelay:u32TargetValue <- $r2
	@DEBUG_VALUE: CLK_SysTickDelay:us <- 200
	.loc	9 2159 30                       @ ../../../../Library/StdDriver/src/clk.c:2159:30
	ldr	r7, [r1]
	.loc	9 2159 13                       @ ../../../../Library/StdDriver/src/clk.c:2159:13
	lsls	r7, r7, #15
	.loc	9 2159 30                       @ ../../../../Library/StdDriver/src/clk.c:2159:30
	itt	pl
	ldrpl	r7, [r1]
	.loc	9 2159 13                       @ ../../../../Library/StdDriver/src/clk.c:2159:13
	lslspl.w	r7, r7, #15
	bmi	.LBB19_137
.Ltmp604:
@ %bb.136:                              @   in Loop: Header=BB19_134 Depth=2
	@DEBUG_VALUE: CLK_EnableAPLL:u32StableSel <- $r11
	@DEBUG_VALUE: CLK_SysTickDelay:u32TargetValue <- $r2
	@DEBUG_VALUE: CLK_SysTickDelay:us <- 200
	.loc	9 2159 30                       @ ../../../../Library/StdDriver/src/clk.c:2159:30
	ldr	r7, [r1]
	.loc	9 2159 13                       @ ../../../../Library/StdDriver/src/clk.c:2159:13
	lsls	r7, r7, #15
	bpl	.LBB19_134
.Ltmp605:
	.p2align	2
.LBB19_137:                             @   Parent Loop BB19_132 Depth=1
                                        @ =>  This Inner Loop Header: Depth=2
	@DEBUG_VALUE: CLK_EnableAPLL:u32StableSel <- $r11
	@DEBUG_VALUE: CLK_SysTickDelay:u32TargetValue <- $r2
	@DEBUG_VALUE: CLK_SysTickDelay:us <- 200
	.loc	9 2159 30                       @ ../../../../Library/StdDriver/src/clk.c:2159:30
	ldr	r7, [r1]
	.loc	9 2159 13                       @ ../../../../Library/StdDriver/src/clk.c:2159:13
	lsls	r7, r7, #15
	bmi	.LBB19_140
.Ltmp606:
@ %bb.138:                              @   in Loop: Header=BB19_137 Depth=2
	@DEBUG_VALUE: CLK_EnableAPLL:u32StableSel <- $r11
	@DEBUG_VALUE: CLK_SysTickDelay:u32TargetValue <- $r2
	@DEBUG_VALUE: CLK_SysTickDelay:us <- 200
	.loc	9 2159 30                       @ ../../../../Library/StdDriver/src/clk.c:2159:30
	ldr	r7, [r1]
	.loc	9 2159 13                       @ ../../../../Library/StdDriver/src/clk.c:2159:13
	lsls	r7, r7, #15
	.loc	9 2159 30                       @ ../../../../Library/StdDriver/src/clk.c:2159:30
	itt	pl
	ldrpl	r7, [r1]
	.loc	9 2159 13                       @ ../../../../Library/StdDriver/src/clk.c:2159:13
	lslspl.w	r7, r7, #15
	bmi	.LBB19_140
.Ltmp607:
@ %bb.139:                              @   in Loop: Header=BB19_137 Depth=2
	@DEBUG_VALUE: CLK_EnableAPLL:u32StableSel <- $r11
	@DEBUG_VALUE: CLK_SysTickDelay:u32TargetValue <- $r2
	@DEBUG_VALUE: CLK_SysTickDelay:us <- 200
	.loc	9 2159 30                       @ ../../../../Library/StdDriver/src/clk.c:2159:30
	ldr	r7, [r1]
	.loc	9 2159 13                       @ ../../../../Library/StdDriver/src/clk.c:2159:13
	lsls	r7, r7, #15
	bpl	.LBB19_137
.Ltmp608:
	.p2align	2
.LBB19_140:                             @   Parent Loop BB19_132 Depth=1
                                        @ =>  This Inner Loop Header: Depth=2
	@DEBUG_VALUE: CLK_EnableAPLL:u32StableSel <- $r11
	@DEBUG_VALUE: CLK_SysTickDelay:u32TargetValue <- $r2
	@DEBUG_VALUE: CLK_SysTickDelay:us <- 200
	.loc	9 2159 30                       @ ../../../../Library/StdDriver/src/clk.c:2159:30
	ldr	r7, [r1]
	.loc	9 2159 13                       @ ../../../../Library/StdDriver/src/clk.c:2159:13
	lsls	r7, r7, #15
	bmi	.LBB19_131
.Ltmp609:
@ %bb.141:                              @   in Loop: Header=BB19_140 Depth=2
	@DEBUG_VALUE: CLK_EnableAPLL:u32StableSel <- $r11
	@DEBUG_VALUE: CLK_SysTickDelay:u32TargetValue <- $r2
	@DEBUG_VALUE: CLK_SysTickDelay:us <- 200
	.loc	9 2159 30                       @ ../../../../Library/StdDriver/src/clk.c:2159:30
	ldr	r7, [r1]
	.loc	9 2159 13                       @ ../../../../Library/StdDriver/src/clk.c:2159:13
	lsls	r7, r7, #15
	.loc	9 2159 30                       @ ../../../../Library/StdDriver/src/clk.c:2159:30
	itt	pl
	ldrpl	r7, [r1]
	.loc	9 2159 13                       @ ../../../../Library/StdDriver/src/clk.c:2159:13
	lslspl.w	r7, r7, #15
	bmi	.LBB19_131
.Ltmp610:
@ %bb.142:                              @   in Loop: Header=BB19_140 Depth=2
	@DEBUG_VALUE: CLK_EnableAPLL:u32StableSel <- $r11
	@DEBUG_VALUE: CLK_SysTickDelay:u32TargetValue <- $r2
	@DEBUG_VALUE: CLK_SysTickDelay:us <- 200
	.loc	9 2159 30                       @ ../../../../Library/StdDriver/src/clk.c:2159:30
	ldr	r7, [r1]
	.loc	9 2159 13                       @ ../../../../Library/StdDriver/src/clk.c:2159:13
	lsls	r7, r7, #15
	bpl	.LBB19_140
	b	.LBB19_131
.Ltmp611:
	.p2align	2
.LBB19_143:                             @   in Loop: Header=BB19_132 Depth=1
	@DEBUG_VALUE: CLK_EnableAPLL:u32StableSel <- $r11
	@DEBUG_VALUE: CLK_SysTickDelay:u32TargetValue <- $r2
	@DEBUG_VALUE: CLK_SysTickDelay:us <- 200
	.loc	9 2159 30                       @ ../../../../Library/StdDriver/src/clk.c:2159:30
	ldr	r7, [r1]
	.loc	9 2159 13                       @ ../../../../Library/StdDriver/src/clk.c:2159:13
	lsls	r7, r7, #15
	bpl	.LBB19_132
	b	.LBB19_134
.Ltmp612:
.Lfunc_end19:
	.size	CLK_EnableAPLL, .Lfunc_end19-CLK_EnableAPLL
	.cfi_endproc
	.cantunwind
	.fnend
                                        @ -- End function
	.section	.text.CLK_SetSCLK,"ax",%progbits
	.hidden	CLK_SetSCLK                     @ -- Begin function CLK_SetSCLK
	.globl	CLK_SetSCLK
	.p2align	2
	.type	CLK_SetSCLK,%function
	.code	16                              @ @CLK_SetSCLK
	.thumb_func
CLK_SetSCLK:
.Lfunc_begin20:
	.loc	9 459 0 is_stmt 1               @ ../../../../Library/StdDriver/src/clk.c:459:0
	.fnstart
	.cfi_startproc
@ %bb.0:
	@DEBUG_VALUE: CLK_SetSCLK:u32ClkSrc <- $r0
	.save	{r4, r5, r6, r7, r8, lr}
	push.w	{r4, r5, r6, r7, r8, lr}
	.cfi_def_cfa_offset 24
	.cfi_offset lr, -4
	.cfi_offset r8, -8
	.cfi_offset r7, -12
	.cfi_offset r6, -16
	.cfi_offset r5, -20
	.cfi_offset r4, -24
	movw	r4, #4100
.Ltmp613:
	.loc	9 1591 30 prologue_end          @ ../../../../Library/StdDriver/src/clk.c:1591:30
	movw	r7, :lower16:SystemCoreClock
	movt	r4, #16384
	movs	r3, #2
.Ltmp614:
	@DEBUG_VALUE: CLK_WaitClockReady:u32Ret <- 1
	@DEBUG_VALUE: CLK_WaitClockReady:u32TimeOutCnt <- undef
	.loc	9 463 23                        @ ../../../../Library/StdDriver/src/clk.c:463:23
	ldr	r1, [r4]
	.loc	9 466 17                        @ ../../../../Library/StdDriver/src/clk.c:466:17
	ldr	r2, [r4, #-4]
.Ltmp615:
	.loc	9 1591 30                       @ ../../../../Library/StdDriver/src/clk.c:1591:30
	movt	r7, :upper16:SystemCoreClock
.Ltmp616:
	.loc	9 466 17                        @ ../../../../Library/StdDriver/src/clk.c:466:17
	orr	r2, r2, #8
	str	r2, [r4, #-4]
.Ltmp617:
	@DEBUG_VALUE: CLK_WaitClockReady:u32ClkMask <- 8
	.loc	9 1591 30                       @ ../../../../Library/StdDriver/src/clk.c:1591:30
	ldr	r2, [r7]
	.loc	9 1594 5                        @ ../../../../Library/StdDriver/src/clk.c:1594:5
	sub.w	r2, r3, r2, lsr #1
	@DEBUG_VALUE: CLK_SetSCLK:u32ClkSrc <- $r0
.Ltmp618:
	.p2align	2
.LBB20_1:                               @ =>This Inner Loop Header: Depth=1
	@DEBUG_VALUE: CLK_SetSCLK:u32ClkSrc <- $r0
	@DEBUG_VALUE: CLK_WaitClockReady:u32ClkMask <- 8
	@DEBUG_VALUE: CLK_WaitClockReady:u32Ret <- 1
	@DEBUG_VALUE: CLK_WaitClockReady:u32TimeOutCnt <- undef
	.loc	9 1594 18 is_stmt 0             @ ../../../../Library/StdDriver/src/clk.c:1594:18
	ldr	r3, [r4]
.Ltmp619:
	@DEBUG_VALUE: CLK_WaitClockReady:u32TimeOutCnt <- [DW_OP_constu 1, DW_OP_minus, DW_OP_stack_value] undef
	.loc	9 1594 5                        @ ../../../../Library/StdDriver/src/clk.c:1594:5
	cmp	r2, #1
	beq	.LBB20_9
.Ltmp620:
@ %bb.2:                                @   in Loop: Header=BB20_1 Depth=1
	@DEBUG_VALUE: CLK_SetSCLK:u32ClkSrc <- $r0
	@DEBUG_VALUE: CLK_WaitClockReady:u32ClkMask <- 8
	@DEBUG_VALUE: CLK_WaitClockReady:u32Ret <- 1
	.loc	9 0 0                           @ ../../../../Library/StdDriver/src/clk.c:0:0
	ands	r3, r3, #8
	.loc	9 1594 5                        @ ../../../../Library/StdDriver/src/clk.c:1594:5
	bne	.LBB20_9
.Ltmp621:
@ %bb.3:                                @   in Loop: Header=BB20_1 Depth=1
	@DEBUG_VALUE: CLK_SetSCLK:u32ClkSrc <- $r0
	@DEBUG_VALUE: CLK_WaitClockReady:u32ClkMask <- 8
	@DEBUG_VALUE: CLK_WaitClockReady:u32Ret <- 1
	@DEBUG_VALUE: CLK_WaitClockReady:u32TimeOutCnt <- [DW_OP_constu 1, DW_OP_minus, DW_OP_stack_value] undef
	.loc	9 1594 18                       @ ../../../../Library/StdDriver/src/clk.c:1594:18
	ldr	r3, [r4]
.Ltmp622:
	@DEBUG_VALUE: CLK_WaitClockReady:u32TimeOutCnt <- [DW_OP_constu 2, DW_OP_minus, DW_OP_stack_value] undef
	.loc	9 1594 5                        @ ../../../../Library/StdDriver/src/clk.c:1594:5
	cbz	r2, .LBB20_9
.Ltmp623:
@ %bb.4:                                @   in Loop: Header=BB20_1 Depth=1
	@DEBUG_VALUE: CLK_SetSCLK:u32ClkSrc <- $r0
	@DEBUG_VALUE: CLK_WaitClockReady:u32ClkMask <- 8
	@DEBUG_VALUE: CLK_WaitClockReady:u32Ret <- 1
	.loc	9 0 0                           @ ../../../../Library/StdDriver/src/clk.c:0:0
	ands	r3, r3, #8
	.loc	9 1594 5                        @ ../../../../Library/StdDriver/src/clk.c:1594:5
	bne	.LBB20_9
.Ltmp624:
@ %bb.5:                                @   in Loop: Header=BB20_1 Depth=1
	@DEBUG_VALUE: CLK_SetSCLK:u32ClkSrc <- $r0
	@DEBUG_VALUE: CLK_WaitClockReady:u32ClkMask <- 8
	@DEBUG_VALUE: CLK_WaitClockReady:u32Ret <- 1
	@DEBUG_VALUE: CLK_WaitClockReady:u32TimeOutCnt <- [DW_OP_constu 2, DW_OP_minus, DW_OP_stack_value] undef
	.loc	9 1594 18                       @ ../../../../Library/StdDriver/src/clk.c:1594:18
	ldr	r3, [r4]
.Ltmp625:
	@DEBUG_VALUE: CLK_WaitClockReady:u32TimeOutCnt <- [DW_OP_constu 3, DW_OP_minus, DW_OP_stack_value] undef
	.loc	9 1594 5                        @ ../../../../Library/StdDriver/src/clk.c:1594:5
	adds	r6, r2, #1
	beq	.LBB20_9
.Ltmp626:
@ %bb.6:                                @   in Loop: Header=BB20_1 Depth=1
	@DEBUG_VALUE: CLK_SetSCLK:u32ClkSrc <- $r0
	@DEBUG_VALUE: CLK_WaitClockReady:u32ClkMask <- 8
	@DEBUG_VALUE: CLK_WaitClockReady:u32Ret <- 1
	.loc	9 0 0                           @ ../../../../Library/StdDriver/src/clk.c:0:0
	ands	r3, r3, #8
	.loc	9 1594 5                        @ ../../../../Library/StdDriver/src/clk.c:1594:5
	bne	.LBB20_9
.Ltmp627:
@ %bb.7:                                @   in Loop: Header=BB20_1 Depth=1
	@DEBUG_VALUE: CLK_SetSCLK:u32ClkSrc <- $r0
	@DEBUG_VALUE: CLK_WaitClockReady:u32ClkMask <- 8
	@DEBUG_VALUE: CLK_WaitClockReady:u32Ret <- 1
	@DEBUG_VALUE: CLK_WaitClockReady:u32TimeOutCnt <- [DW_OP_constu 3, DW_OP_minus, DW_OP_stack_value] undef
	.loc	9 1594 18                       @ ../../../../Library/StdDriver/src/clk.c:1594:18
	ldr	r3, [r4]
.Ltmp628:
	@DEBUG_VALUE: CLK_WaitClockReady:u32TimeOutCnt <- [DW_OP_constu 4, DW_OP_minus, DW_OP_stack_value] undef
	.loc	9 1594 5                        @ ../../../../Library/StdDriver/src/clk.c:1594:5
	adds	r6, r2, #2
	beq	.LBB20_9
.Ltmp629:
@ %bb.8:                                @   in Loop: Header=BB20_1 Depth=1
	@DEBUG_VALUE: CLK_SetSCLK:u32ClkSrc <- $r0
	@DEBUG_VALUE: CLK_WaitClockReady:u32ClkMask <- 8
	@DEBUG_VALUE: CLK_WaitClockReady:u32Ret <- 1
	.loc	9 0 0                           @ ../../../../Library/StdDriver/src/clk.c:0:0
	ands	r3, r3, #8
	.loc	9 1594 5                        @ ../../../../Library/StdDriver/src/clk.c:1594:5
	add.w	r2, r2, #4
	beq	.LBB20_1
.Ltmp630:
.LBB20_9:
	@DEBUG_VALUE: CLK_SetSCLK:u32ClkSrc <- $r0
	.loc	9 468 26 is_stmt 1              @ ../../../../Library/StdDriver/src/clk.c:468:26
	ldr.w	r2, [r4, #1020]
	movw	r5, #8212
	movt	r5, #16384
	.loc	9 468 34 is_stmt 0              @ ../../../../Library/StdDriver/src/clk.c:468:34
	bic	r2, r2, #7
	.loc	9 468 18                        @ ../../../../Library/StdDriver/src/clk.c:468:18
	str.w	r2, [r4, #1020]
	.loc	9 471 24 is_stmt 1              @ ../../../../Library/StdDriver/src/clk.c:471:24
	ldr	r2, [r5, #-4]
	.loc	9 463 30                        @ ../../../../Library/StdDriver/src/clk.c:463:30
	and	r8, r1, #8
.Ltmp631:
	@DEBUG_VALUE: CLK_SetSCLK:u32HIRCSTB <- $r8
	@DEBUG_VALUE: CLK_WaitClockReady:u32Ret <- undef
	.loc	9 471 30                        @ ../../../../Library/StdDriver/src/clk.c:471:30
	bic	r2, r2, #1
	.loc	9 471 16 is_stmt 0              @ ../../../../Library/StdDriver/src/clk.c:471:16
	str	r2, [r5, #-4]
	.loc	9 472 23 is_stmt 1              @ ../../../../Library/StdDriver/src/clk.c:472:23
	ldr	r2, [r7]
.Ltmp632:
	@DEBUG_VALUE: CLK_SetSCLK:u32TimeOutCount <- $r2
	.p2align	2
.LBB20_10:                              @ =>This Inner Loop Header: Depth=1
	@DEBUG_VALUE: CLK_SetSCLK:u32HIRCSTB <- $r8
	@DEBUG_VALUE: CLK_SetSCLK:u32TimeOutCount <- $r2
	@DEBUG_VALUE: CLK_SetSCLK:u32ClkSrc <- $r0
	@DEBUG_VALUE: CLK_SetSCLK:u32TimeOutCount <- $r2
	.loc	9 474 17                        @ ../../../../Library/StdDriver/src/clk.c:474:17
	ldr	r1, [r5]
.Ltmp633:
	@DEBUG_VALUE: CLK_SetSCLK:u32TimeOutCount <- [DW_OP_constu 1, DW_OP_minus, DW_OP_stack_value] $r2
	.loc	9 474 5 is_stmt 0               @ ../../../../Library/StdDriver/src/clk.c:474:5
	cbz	r2, .LBB20_18
.Ltmp634:
@ %bb.11:                               @   in Loop: Header=BB20_10 Depth=1
	@DEBUG_VALUE: CLK_SetSCLK:u32HIRCSTB <- $r8
	@DEBUG_VALUE: CLK_SetSCLK:u32TimeOutCount <- [DW_OP_constu 1, DW_OP_minus, DW_OP_stack_value] $r2
	@DEBUG_VALUE: CLK_SetSCLK:u32ClkSrc <- $r0
	cmp	r1, #0
	bpl	.LBB20_18
.Ltmp635:
@ %bb.12:                               @   in Loop: Header=BB20_10 Depth=1
	@DEBUG_VALUE: CLK_SetSCLK:u32HIRCSTB <- $r8
	@DEBUG_VALUE: CLK_SetSCLK:u32TimeOutCount <- [DW_OP_constu 1, DW_OP_minus, DW_OP_stack_value] $r2
	@DEBUG_VALUE: CLK_SetSCLK:u32ClkSrc <- $r0
	@DEBUG_VALUE: CLK_SetSCLK:u32TimeOutCount <- [DW_OP_constu 1, DW_OP_minus, DW_OP_stack_value] $r2
	.loc	9 474 17                        @ ../../../../Library/StdDriver/src/clk.c:474:17
	ldr	r1, [r5]
.Ltmp636:
	@DEBUG_VALUE: CLK_SetSCLK:u32TimeOutCount <- [DW_OP_constu 2, DW_OP_minus, DW_OP_stack_value] $r2
	.loc	9 474 5                         @ ../../../../Library/StdDriver/src/clk.c:474:5
	cmp	r2, #1
	beq	.LBB20_18
.Ltmp637:
@ %bb.13:                               @   in Loop: Header=BB20_10 Depth=1
	@DEBUG_VALUE: CLK_SetSCLK:u32HIRCSTB <- $r8
	@DEBUG_VALUE: CLK_SetSCLK:u32TimeOutCount <- [DW_OP_constu 2, DW_OP_minus, DW_OP_stack_value] $r2
	@DEBUG_VALUE: CLK_SetSCLK:u32ClkSrc <- $r0
	cmp.w	r1, #-1
	bgt	.LBB20_18
.Ltmp638:
@ %bb.14:                               @   in Loop: Header=BB20_10 Depth=1
	@DEBUG_VALUE: CLK_SetSCLK:u32HIRCSTB <- $r8
	@DEBUG_VALUE: CLK_SetSCLK:u32TimeOutCount <- [DW_OP_constu 2, DW_OP_minus, DW_OP_stack_value] $r2
	@DEBUG_VALUE: CLK_SetSCLK:u32ClkSrc <- $r0
	@DEBUG_VALUE: CLK_SetSCLK:u32TimeOutCount <- [DW_OP_constu 2, DW_OP_minus, DW_OP_stack_value] $r2
	.loc	9 474 17                        @ ../../../../Library/StdDriver/src/clk.c:474:17
	ldr	r1, [r5]
.Ltmp639:
	@DEBUG_VALUE: CLK_SetSCLK:u32TimeOutCount <- [DW_OP_constu 3, DW_OP_minus, DW_OP_stack_value] $r2
	.loc	9 474 5                         @ ../../../../Library/StdDriver/src/clk.c:474:5
	cmp	r2, #2
	beq	.LBB20_18
.Ltmp640:
@ %bb.15:                               @   in Loop: Header=BB20_10 Depth=1
	@DEBUG_VALUE: CLK_SetSCLK:u32HIRCSTB <- $r8
	@DEBUG_VALUE: CLK_SetSCLK:u32TimeOutCount <- [DW_OP_constu 3, DW_OP_minus, DW_OP_stack_value] $r2
	@DEBUG_VALUE: CLK_SetSCLK:u32ClkSrc <- $r0
	cmp.w	r1, #-1
	bgt	.LBB20_18
.Ltmp641:
@ %bb.16:                               @   in Loop: Header=BB20_10 Depth=1
	@DEBUG_VALUE: CLK_SetSCLK:u32HIRCSTB <- $r8
	@DEBUG_VALUE: CLK_SetSCLK:u32TimeOutCount <- [DW_OP_constu 3, DW_OP_minus, DW_OP_stack_value] $r2
	@DEBUG_VALUE: CLK_SetSCLK:u32ClkSrc <- $r0
	@DEBUG_VALUE: CLK_SetSCLK:u32TimeOutCount <- [DW_OP_constu 3, DW_OP_minus, DW_OP_stack_value] $r2
	.loc	9 474 17                        @ ../../../../Library/StdDriver/src/clk.c:474:17
	ldr	r1, [r5]
.Ltmp642:
	@DEBUG_VALUE: CLK_SetSCLK:u32TimeOutCount <- undef
	.loc	9 474 5                         @ ../../../../Library/StdDriver/src/clk.c:474:5
	cmp	r2, #3
	beq	.LBB20_18
.Ltmp643:
@ %bb.17:                               @   in Loop: Header=BB20_10 Depth=1
	@DEBUG_VALUE: CLK_SetSCLK:u32HIRCSTB <- $r8
	@DEBUG_VALUE: CLK_SetSCLK:u32ClkSrc <- $r0
	cmp.w	r1, #-1
	sub.w	r2, r2, #4
.Ltmp644:
	@DEBUG_VALUE: CLK_SetSCLK:u32TimeOutCount <- $r2
	ble	.LBB20_10
.Ltmp645:
.LBB20_18:
	@DEBUG_VALUE: CLK_SetSCLK:u32HIRCSTB <- $r8
	@DEBUG_VALUE: CLK_SetSCLK:u32ClkSrc <- $r0
	.loc	9 0 5                           @ ../../../../Library/StdDriver/src/clk.c:0:5
	movw	r6, #16460
	movs	r2, #7
	movt	r6, #16388
	.loc	9 480 25 is_stmt 1              @ ../../../../Library/StdDriver/src/clk.c:480:25
	ldr	r1, [r6]
	.loc	9 480 59 is_stmt 0              @ ../../../../Library/StdDriver/src/clk.c:480:59
	bfi	r1, r2, #0, #4
	.loc	9 480 17                        @ ../../../../Library/StdDriver/src/clk.c:480:17
	str	r1, [r6]
	.loc	9 483 26 is_stmt 1              @ ../../../../Library/StdDriver/src/clk.c:483:26
	ldr.w	r1, [r4, #1020]
	.loc	9 483 34 is_stmt 0              @ ../../../../Library/StdDriver/src/clk.c:483:34
	bic	r1, r1, #7
	.loc	9 483 64                        @ ../../../../Library/StdDriver/src/clk.c:483:64
	orrs	r0, r1
.Ltmp646:
	@DEBUG_VALUE: CLK_SetSCLK:u32ClkSrc <- [DW_OP_LLVM_entry_value 1] $r0
	.loc	9 483 18                        @ ../../../../Library/StdDriver/src/clk.c:483:18
	str.w	r0, [r4, #1020]
	.loc	9 486 5 is_stmt 1               @ ../../../../Library/StdDriver/src/clk.c:486:5
	bl	SystemCoreClockUpdate
.Ltmp647:
	.loc	9 489 9                         @ ../../../../Library/StdDriver/src/clk.c:489:9
	ldr	r0, [r7]
	movw	r1, #38144
	movt	r1, #2746
.Ltmp648:
	.loc	9 489 9 is_stmt 0               @ ../../../../Library/StdDriver/src/clk.c:489:9
	cmp	r0, r1
	bhi	.LBB20_20
.Ltmp649:
@ %bb.19:
	@DEBUG_VALUE: CLK_SetSCLK:u32HIRCSTB <- $r8
	@DEBUG_VALUE: CLK_SetSCLK:u32ClkSrc <- [DW_OP_LLVM_entry_value 1] $r0
	.loc	9 491 28 is_stmt 1              @ ../../../../Library/StdDriver/src/clk.c:491:28
	ldr	r0, [r5, #-4]
	.loc	9 491 60 is_stmt 0              @ ../../../../Library/StdDriver/src/clk.c:491:60
	orr	r0, r0, #1
	.loc	9 491 20                        @ ../../../../Library/StdDriver/src/clk.c:491:20
	str	r0, [r5, #-4]
.Ltmp650:
	.loc	9 494 23 is_stmt 1              @ ../../../../Library/StdDriver/src/clk.c:494:23
	ldr	r0, [r7]
.Ltmp651:
.LBB20_20:
	@DEBUG_VALUE: CLK_SetSCLK:u32HIRCSTB <- $r8
	@DEBUG_VALUE: CLK_SetSCLK:u32ClkSrc <- [DW_OP_LLVM_entry_value 1] $r0
	@DEBUG_VALUE: CLK_SetSCLK:u32TimeOutCount <- $r0
	.loc	9 0 0 is_stmt 0                 @ ../../../../Library/StdDriver/src/clk.c:0:0
	mov	r1, r0
.Ltmp652:
	.p2align	2
.LBB20_21:                              @ =>This Inner Loop Header: Depth=1
	@DEBUG_VALUE: CLK_SetSCLK:u32HIRCSTB <- $r8
	@DEBUG_VALUE: CLK_SetSCLK:u32ClkSrc <- [DW_OP_LLVM_entry_value 1] $r0
	@DEBUG_VALUE: CLK_SetSCLK:u32TimeOutCount <- $r1
	.loc	9 496 17 is_stmt 1              @ ../../../../Library/StdDriver/src/clk.c:496:17
	ldr	r2, [r5]
.Ltmp653:
	@DEBUG_VALUE: CLK_SetSCLK:u32TimeOutCount <- [DW_OP_constu 1, DW_OP_minus, DW_OP_stack_value] $r1
	.loc	9 496 5 is_stmt 0               @ ../../../../Library/StdDriver/src/clk.c:496:5
	cbz	r1, .LBB20_29
.Ltmp654:
@ %bb.22:                               @   in Loop: Header=BB20_21 Depth=1
	@DEBUG_VALUE: CLK_SetSCLK:u32HIRCSTB <- $r8
	@DEBUG_VALUE: CLK_SetSCLK:u32TimeOutCount <- [DW_OP_constu 1, DW_OP_minus, DW_OP_stack_value] $r1
	@DEBUG_VALUE: CLK_SetSCLK:u32ClkSrc <- [DW_OP_LLVM_entry_value 1] $r0
	cmp	r2, #0
	bpl	.LBB20_29
.Ltmp655:
@ %bb.23:                               @   in Loop: Header=BB20_21 Depth=1
	@DEBUG_VALUE: CLK_SetSCLK:u32HIRCSTB <- $r8
	@DEBUG_VALUE: CLK_SetSCLK:u32TimeOutCount <- [DW_OP_constu 1, DW_OP_minus, DW_OP_stack_value] $r1
	@DEBUG_VALUE: CLK_SetSCLK:u32ClkSrc <- [DW_OP_LLVM_entry_value 1] $r0
	@DEBUG_VALUE: CLK_SetSCLK:u32TimeOutCount <- [DW_OP_constu 1, DW_OP_minus, DW_OP_stack_value] $r1
	.loc	9 496 17                        @ ../../../../Library/StdDriver/src/clk.c:496:17
	ldr	r2, [r5]
.Ltmp656:
	@DEBUG_VALUE: CLK_SetSCLK:u32TimeOutCount <- [DW_OP_constu 2, DW_OP_minus, DW_OP_stack_value] $r1
	.loc	9 496 5                         @ ../../../../Library/StdDriver/src/clk.c:496:5
	cmp	r1, #1
	beq	.LBB20_29
.Ltmp657:
@ %bb.24:                               @   in Loop: Header=BB20_21 Depth=1
	@DEBUG_VALUE: CLK_SetSCLK:u32HIRCSTB <- $r8
	@DEBUG_VALUE: CLK_SetSCLK:u32TimeOutCount <- [DW_OP_constu 2, DW_OP_minus, DW_OP_stack_value] $r1
	@DEBUG_VALUE: CLK_SetSCLK:u32ClkSrc <- [DW_OP_LLVM_entry_value 1] $r0
	cmp.w	r2, #-1
	bgt	.LBB20_29
.Ltmp658:
@ %bb.25:                               @   in Loop: Header=BB20_21 Depth=1
	@DEBUG_VALUE: CLK_SetSCLK:u32HIRCSTB <- $r8
	@DEBUG_VALUE: CLK_SetSCLK:u32TimeOutCount <- [DW_OP_constu 2, DW_OP_minus, DW_OP_stack_value] $r1
	@DEBUG_VALUE: CLK_SetSCLK:u32ClkSrc <- [DW_OP_LLVM_entry_value 1] $r0
	@DEBUG_VALUE: CLK_SetSCLK:u32TimeOutCount <- [DW_OP_constu 2, DW_OP_minus, DW_OP_stack_value] $r1
	.loc	9 496 17                        @ ../../../../Library/StdDriver/src/clk.c:496:17
	ldr	r2, [r5]
.Ltmp659:
	@DEBUG_VALUE: CLK_SetSCLK:u32TimeOutCount <- [DW_OP_constu 3, DW_OP_minus, DW_OP_stack_value] $r1
	.loc	9 496 5                         @ ../../../../Library/StdDriver/src/clk.c:496:5
	cmp	r1, #2
	beq	.LBB20_29
.Ltmp660:
@ %bb.26:                               @   in Loop: Header=BB20_21 Depth=1
	@DEBUG_VALUE: CLK_SetSCLK:u32HIRCSTB <- $r8
	@DEBUG_VALUE: CLK_SetSCLK:u32TimeOutCount <- [DW_OP_constu 3, DW_OP_minus, DW_OP_stack_value] $r1
	@DEBUG_VALUE: CLK_SetSCLK:u32ClkSrc <- [DW_OP_LLVM_entry_value 1] $r0
	cmp.w	r2, #-1
	bgt	.LBB20_29
.Ltmp661:
@ %bb.27:                               @   in Loop: Header=BB20_21 Depth=1
	@DEBUG_VALUE: CLK_SetSCLK:u32HIRCSTB <- $r8
	@DEBUG_VALUE: CLK_SetSCLK:u32TimeOutCount <- [DW_OP_constu 3, DW_OP_minus, DW_OP_stack_value] $r1
	@DEBUG_VALUE: CLK_SetSCLK:u32ClkSrc <- [DW_OP_LLVM_entry_value 1] $r0
	@DEBUG_VALUE: CLK_SetSCLK:u32TimeOutCount <- [DW_OP_constu 3, DW_OP_minus, DW_OP_stack_value] $r1
	.loc	9 496 17                        @ ../../../../Library/StdDriver/src/clk.c:496:17
	ldr	r2, [r5]
.Ltmp662:
	@DEBUG_VALUE: CLK_SetSCLK:u32TimeOutCount <- undef
	.loc	9 496 5                         @ ../../../../Library/StdDriver/src/clk.c:496:5
	cmp	r1, #3
	beq	.LBB20_29
.Ltmp663:
@ %bb.28:                               @   in Loop: Header=BB20_21 Depth=1
	@DEBUG_VALUE: CLK_SetSCLK:u32HIRCSTB <- $r8
	@DEBUG_VALUE: CLK_SetSCLK:u32ClkSrc <- [DW_OP_LLVM_entry_value 1] $r0
	cmp.w	r2, #-1
	sub.w	r1, r1, #4
.Ltmp664:
	@DEBUG_VALUE: CLK_SetSCLK:u32TimeOutCount <- $r1
	ble	.LBB20_21
.Ltmp665:
.LBB20_29:
	@DEBUG_VALUE: CLK_SetSCLK:u32HIRCSTB <- $r8
	@DEBUG_VALUE: CLK_SetSCLK:u32ClkSrc <- [DW_OP_LLVM_entry_value 1] $r0
	.loc	9 0 5                           @ ../../../../Library/StdDriver/src/clk.c:0:5
	movw	r1, #41281
	movt	r1, #2395
	.loc	9 502 9 is_stmt 1               @ ../../../../Library/StdDriver/src/clk.c:502:9
	cmp	r0, r1
	blo	.LBB20_31
.Ltmp666:
@ %bb.30:
	@DEBUG_VALUE: CLK_SetSCLK:u32HIRCSTB <- $r8
	@DEBUG_VALUE: CLK_SetSCLK:u32ClkSrc <- [DW_OP_LLVM_entry_value 1] $r0
	.loc	9 504 29                        @ ../../../../Library/StdDriver/src/clk.c:504:29
	ldr	r0, [r6]
	movs	r1, #7
	.loc	9 504 63 is_stmt 0              @ ../../../../Library/StdDriver/src/clk.c:504:63
	bfi	r0, r1, #0, #4
	b	.LBB20_40
.Ltmp667:
.LBB20_31:
	@DEBUG_VALUE: CLK_SetSCLK:u32HIRCSTB <- $r8
	@DEBUG_VALUE: CLK_SetSCLK:u32ClkSrc <- [DW_OP_LLVM_entry_value 1] $r0
	.loc	9 0 63                          @ ../../../../Library/StdDriver/src/clk.c:0:63
	movw	r1, #27456
	movt	r1, #2029
	.loc	9 506 14 is_stmt 1              @ ../../../../Library/StdDriver/src/clk.c:506:14
	cmp	r0, r1
	blo	.LBB20_33
.Ltmp668:
@ %bb.32:
	@DEBUG_VALUE: CLK_SetSCLK:u32HIRCSTB <- $r8
	@DEBUG_VALUE: CLK_SetSCLK:u32ClkSrc <- [DW_OP_LLVM_entry_value 1] $r0
	.loc	9 508 29                        @ ../../../../Library/StdDriver/src/clk.c:508:29
	ldr	r0, [r6]
	movs	r1, #6
	.loc	9 508 63 is_stmt 0              @ ../../../../Library/StdDriver/src/clk.c:508:63
	bfi	r0, r1, #0, #4
	b	.LBB20_40
.Ltmp669:
.LBB20_33:
	@DEBUG_VALUE: CLK_SetSCLK:u32HIRCSTB <- $r8
	@DEBUG_VALUE: CLK_SetSCLK:u32ClkSrc <- [DW_OP_LLVM_entry_value 1] $r0
	.loc	9 0 63                          @ ../../../../Library/StdDriver/src/clk.c:0:63
	movw	r1, #42944
	movt	r1, #1571
	.loc	9 510 14 is_stmt 1              @ ../../../../Library/StdDriver/src/clk.c:510:14
	cmp	r0, r1
	blo	.LBB20_35
.Ltmp670:
@ %bb.34:
	@DEBUG_VALUE: CLK_SetSCLK:u32HIRCSTB <- $r8
	@DEBUG_VALUE: CLK_SetSCLK:u32ClkSrc <- [DW_OP_LLVM_entry_value 1] $r0
	.loc	9 512 29                        @ ../../../../Library/StdDriver/src/clk.c:512:29
	ldr	r0, [r6]
	movs	r1, #5
	.loc	9 512 63 is_stmt 0              @ ../../../../Library/StdDriver/src/clk.c:512:63
	bfi	r0, r1, #0, #4
	b	.LBB20_40
.Ltmp671:
.LBB20_35:
	@DEBUG_VALUE: CLK_SetSCLK:u32HIRCSTB <- $r8
	@DEBUG_VALUE: CLK_SetSCLK:u32ClkSrc <- [DW_OP_LLVM_entry_value 1] $r0
	.loc	9 0 63                          @ ../../../../Library/StdDriver/src/clk.c:0:63
	movw	r1, #29121
	movt	r1, #1205
	.loc	9 514 14 is_stmt 1              @ ../../../../Library/StdDriver/src/clk.c:514:14
	cmp	r0, r1
	blo	.LBB20_37
.Ltmp672:
@ %bb.36:
	@DEBUG_VALUE: CLK_SetSCLK:u32HIRCSTB <- $r8
	@DEBUG_VALUE: CLK_SetSCLK:u32ClkSrc <- [DW_OP_LLVM_entry_value 1] $r0
	.loc	9 516 29                        @ ../../../../Library/StdDriver/src/clk.c:516:29
	ldr	r0, [r6]
	movs	r1, #4
	.loc	9 516 63 is_stmt 0              @ ../../../../Library/StdDriver/src/clk.c:516:63
	bfi	r0, r1, #0, #4
	b	.LBB20_40
.Ltmp673:
.LBB20_37:
	@DEBUG_VALUE: CLK_SetSCLK:u32HIRCSTB <- $r8
	@DEBUG_VALUE: CLK_SetSCLK:u32ClkSrc <- [DW_OP_LLVM_entry_value 1] $r0
	.loc	9 0 63                          @ ../../../../Library/StdDriver/src/clk.c:0:63
	movw	r1, #46913
	movt	r1, #808
	.loc	9 518 14 is_stmt 1              @ ../../../../Library/StdDriver/src/clk.c:518:14
	cmp	r0, r1
	blo	.LBB20_39
.Ltmp674:
@ %bb.38:
	@DEBUG_VALUE: CLK_SetSCLK:u32HIRCSTB <- $r8
	@DEBUG_VALUE: CLK_SetSCLK:u32ClkSrc <- [DW_OP_LLVM_entry_value 1] $r0
	.loc	9 520 29                        @ ../../../../Library/StdDriver/src/clk.c:520:29
	ldr	r0, [r6]
	movs	r1, #3
	.loc	9 520 63 is_stmt 0              @ ../../../../Library/StdDriver/src/clk.c:520:63
	bfi	r0, r1, #0, #4
	b	.LBB20_40
.Ltmp675:
.LBB20_39:
	@DEBUG_VALUE: CLK_SetSCLK:u32HIRCSTB <- $r8
	@DEBUG_VALUE: CLK_SetSCLK:u32ClkSrc <- [DW_OP_LLVM_entry_value 1] $r0
	.loc	9 0 0                           @ ../../../../Library/StdDriver/src/clk.c:0:0
	ldr	r1, [r6]
	movw	r2, #47745
	movt	r2, #396
.Ltmp676:
	.loc	9 522 14 is_stmt 1              @ ../../../../Library/StdDriver/src/clk.c:522:14
	cmp	r0, r2
.Ltmp677:
	.loc	9 0 0 is_stmt 0                 @ ../../../../Library/StdDriver/src/clk.c:0:0
	bic	r0, r1, #15
.Ltmp678:
	.loc	9 528 63 is_stmt 1              @ ../../../../Library/StdDriver/src/clk.c:528:63
	ite	lo
	orrlo	r0, r0, #1
.Ltmp679:
	.loc	9 524 63                        @ ../../../../Library/StdDriver/src/clk.c:524:63
	orrhs	r0, r0, #2
.Ltmp680:
.LBB20_40:
	@DEBUG_VALUE: CLK_SetSCLK:u32HIRCSTB <- $r8
	@DEBUG_VALUE: CLK_SetSCLK:u32ClkSrc <- [DW_OP_LLVM_entry_value 1] $r0
	.loc	9 0 0 is_stmt 0                 @ ../../../../Library/StdDriver/src/clk.c:0:0
	str	r0, [r6]
.Ltmp681:
	.loc	9 532 9 is_stmt 1               @ ../../../../Library/StdDriver/src/clk.c:532:9
	cmp.w	r8, #0
.Ltmp682:
	.loc	9 534 21                        @ ../../../../Library/StdDriver/src/clk.c:534:21
	ittt	eq
	ldreq	r0, [r4, #-4]
	biceq	r0, r0, #8
	streq	r0, [r4, #-4]
.Ltmp683:
	.loc	9 536 1                         @ ../../../../Library/StdDriver/src/clk.c:536:1
	pop.w	{r4, r5, r6, r7, r8, pc}
.Ltmp684:
.Lfunc_end20:
	.size	CLK_SetSCLK, .Lfunc_end20-CLK_SetSCLK
	.cfi_endproc
	.cantunwind
	.fnend
                                        @ -- End function
	.section	.text.CLK_SetModuleClock,"ax",%progbits
	.hidden	CLK_SetModuleClock              @ -- Begin function CLK_SetModuleClock
	.globl	CLK_SetModuleClock
	.p2align	2
	.type	CLK_SetModuleClock,%function
	.code	16                              @ @CLK_SetModuleClock
	.thumb_func
CLK_SetModuleClock:
.Lfunc_begin21:
	.loc	9 794 0                         @ ../../../../Library/StdDriver/src/clk.c:794:0
	.fnstart
	.cfi_startproc
@ %bb.0:
	@DEBUG_VALUE: CLK_SetModuleClock:u32ClkSrc <- $r2
	@DEBUG_VALUE: CLK_SetModuleClock:u32ClkDiv <- $r3
	.save	{r4, r5, r6, lr}
	push	{r4, r5, r6, lr}
	.cfi_def_cfa_offset 16
	.cfi_offset lr, -4
	.cfi_offset r6, -8
	.cfi_offset r5, -12
	.cfi_offset r4, -16
	movw	r12, #4776
.Ltmp685:
	.loc	9 798 22 prologue_end           @ ../../../../Library/StdDriver/src/clk.c:798:22
	eor	r4, r1, #1376256
	movt	r12, #16384
.Ltmp686:
	@DEBUG_VALUE: CLK_SetModuleClock:u32Div <- 0
	@DEBUG_VALUE: CLK_SetModuleClock:u32Sel <- 0
	@DEBUG_VALUE: CLK_SetModuleClock:u64ModuleIdx <- [DW_OP_LLVM_fragment 0 32] $r0
	@DEBUG_VALUE: CLK_SetModuleClock:u64ModuleIdx <- [DW_OP_LLVM_fragment 32 32] $r1
	@DEBUG_VALUE: CLK_SetModuleClock:u32ClkDiv <- $r3
	.loc	9 796 32                        @ ../../../../Library/StdDriver/src/clk.c:796:32
	ldr.w	lr, [r12]
.Ltmp687:
	@DEBUG_VALUE: CLK_SetModuleClock:u32RTCCKEN <- [DW_OP_constu 1, DW_OP_and, DW_OP_stack_value] $lr
	.loc	9 798 22                        @ ../../../../Library/StdDriver/src/clk.c:798:22
	orrs	r4, r0
.Ltmp688:
	@DEBUG_VALUE: CLK_SetModuleClock:u32ClkSrc <- $r2
	.loc	9 798 9 is_stmt 0               @ ../../../../Library/StdDriver/src/clk.c:798:9
	bne	.LBB21_3
.Ltmp689:
@ %bb.1:
	@DEBUG_VALUE: CLK_SetModuleClock:u32ClkDiv <- $r3
	@DEBUG_VALUE: CLK_SetModuleClock:u32ClkSrc <- $r2
	@DEBUG_VALUE: CLK_SetModuleClock:u64ModuleIdx <- [DW_OP_LLVM_fragment 32 32] $r1
	@DEBUG_VALUE: CLK_SetModuleClock:u64ModuleIdx <- [DW_OP_LLVM_fragment 0 32] $r0
	@DEBUG_VALUE: CLK_SetModuleClock:u32RTCCKEN <- [DW_OP_constu 1, DW_OP_and, DW_OP_stack_value] $lr
	@DEBUG_VALUE: CLK_SetModuleClock:u32Sel <- 0
	@DEBUG_VALUE: CLK_SetModuleClock:u32Div <- 0
	.loc	9 800 13 is_stmt 1              @ ../../../../Library/StdDriver/src/clk.c:800:13
	lsls.w	r0, lr, #31
.Ltmp690:
	@DEBUG_VALUE: CLK_SetModuleClock:u32RTCCKEN <- $r0
	.loc	9 0 13 is_stmt 0                @ ../../../../Library/StdDriver/src/clk.c:0:13
	movw	r0, #28928
.Ltmp691:
	movt	r0, #16425
	.loc	9 800 13                        @ ../../../../Library/StdDriver/src/clk.c:800:13
	bne	.LBB21_7
.Ltmp692:
@ %bb.2:
	@DEBUG_VALUE: CLK_SetModuleClock:u32ClkDiv <- $r3
	@DEBUG_VALUE: CLK_SetModuleClock:u32ClkSrc <- $r2
	@DEBUG_VALUE: CLK_SetModuleClock:u64ModuleIdx <- [DW_OP_LLVM_fragment 32 32] $r1
	@DEBUG_VALUE: CLK_SetModuleClock:u32Sel <- 0
	@DEBUG_VALUE: CLK_SetModuleClock:u32Div <- 0
	.loc	9 802 25 is_stmt 1              @ ../../../../Library/StdDriver/src/clk.c:802:25
	ldr.w	r1, [r12]
.Ltmp693:
	orr	r1, r1, #1
	str.w	r1, [r12]
.Ltmp694:
	.loc	9 806 29                        @ ../../../../Library/StdDriver/src/clk.c:806:29
	ldr	r1, [r0]
	.loc	9 806 36 is_stmt 0              @ ../../../../Library/StdDriver/src/clk.c:806:36
	bic	r1, r1, #128
	.loc	9 806 66                        @ ../../../../Library/StdDriver/src/clk.c:806:66
	orrs	r1, r2
	.loc	9 806 21                        @ ../../../../Library/StdDriver/src/clk.c:806:21
	str	r1, [r0]
.Ltmp695:
	.loc	9 810 25 is_stmt 1              @ ../../../../Library/StdDriver/src/clk.c:810:25
	ldr.w	r0, [r12]
	bic	r0, r0, #1
	str.w	r0, [r12]
.Ltmp696:
	.loc	9 833 1                         @ ../../../../Library/StdDriver/src/clk.c:833:1
	pop	{r4, r5, r6, pc}
.Ltmp697:
.LBB21_3:
	@DEBUG_VALUE: CLK_SetModuleClock:u32ClkDiv <- $r3
	@DEBUG_VALUE: CLK_SetModuleClock:u32ClkSrc <- $r2
	@DEBUG_VALUE: CLK_SetModuleClock:u64ModuleIdx <- [DW_OP_LLVM_fragment 32 32] $r1
	@DEBUG_VALUE: CLK_SetModuleClock:u64ModuleIdx <- [DW_OP_LLVM_fragment 0 32] $r0
	@DEBUG_VALUE: CLK_SetModuleClock:u32RTCCKEN <- [DW_OP_constu 1, DW_OP_and, DW_OP_stack_value] $lr
	@DEBUG_VALUE: CLK_SetModuleClock:u32Sel <- 0
	@DEBUG_VALUE: CLK_SetModuleClock:u32Div <- 0
	.loc	9 816 13                        @ ../../../../Library/StdDriver/src/clk.c:816:13
	mov	r4, r0
	lsrl	r4, r5, #15
	uxtb.w	lr, r4
.Ltmp698:
	.loc	9 816 13 is_stmt 0              @ ../../../../Library/StdDriver/src/clk.c:816:13
	cmp.w	lr, #0
	beq	.LBB21_5
.Ltmp699:
@ %bb.4:
	@DEBUG_VALUE: CLK_SetModuleClock:u32ClkDiv <- $r3
	@DEBUG_VALUE: CLK_SetModuleClock:u32ClkSrc <- $r2
	@DEBUG_VALUE: CLK_SetModuleClock:u64ModuleIdx <- [DW_OP_LLVM_fragment 32 32] $r1
	@DEBUG_VALUE: CLK_SetModuleClock:u64ModuleIdx <- [DW_OP_LLVM_fragment 0 32] $r0
	@DEBUG_VALUE: CLK_SetModuleClock:u32Sel <- 0
	@DEBUG_VALUE: CLK_SetModuleClock:u32Div <- 0
	.loc	9 819 92 is_stmt 1              @ ../../../../Library/StdDriver/src/clk.c:819:92
	mov	r5, r1
	mov	r4, r0
	lsrl	r4, r5, #29
	.loc	9 821 90                        @ ../../../../Library/StdDriver/src/clk.c:821:90
	and	r6, r0, #31
	.loc	9 819 92                        @ ../../../../Library/StdDriver/src/clk.c:819:92
	and	r4, r4, #1020
	.loc	9 819 51 is_stmt 0              @ ../../../../Library/StdDriver/src/clk.c:819:51
	add	r4, r12
.Ltmp700:
	@DEBUG_VALUE: CLK_SetModuleClock:u32Div <- [DW_OP_plus_uconst 600, DW_OP_stack_value] $r4
	.loc	9 821 28 is_stmt 1              @ ../../../../Library/StdDriver/src/clk.c:821:28
	ldr.w	r5, [r4, #600]
	.loc	9 821 87 is_stmt 0              @ ../../../../Library/StdDriver/src/clk.c:821:87
	lsl.w	r6, lr, r6
	.loc	9 821 40                        @ ../../../../Library/StdDriver/src/clk.c:821:40
	bic.w	r6, r5, r6
	.loc	9 821 135                       @ ../../../../Library/StdDriver/src/clk.c:821:135
	orrs	r3, r6
.Ltmp701:
	@DEBUG_VALUE: CLK_SetModuleClock:u32ClkDiv <- [DW_OP_LLVM_entry_value 1] $r3
	.loc	9 821 25                        @ ../../../../Library/StdDriver/src/clk.c:821:25
	str.w	r3, [r4, #600]
.Ltmp702:
.LBB21_5:
	@DEBUG_VALUE: CLK_SetModuleClock:u32ClkSrc <- $r2
	@DEBUG_VALUE: CLK_SetModuleClock:u64ModuleIdx <- [DW_OP_LLVM_fragment 32 32] $r1
	@DEBUG_VALUE: CLK_SetModuleClock:u64ModuleIdx <- [DW_OP_LLVM_fragment 0 32] $r0
	@DEBUG_VALUE: CLK_SetModuleClock:u32Sel <- 0
	.loc	9 825 13 is_stmt 1              @ ../../../../Library/StdDriver/src/clk.c:825:13
	mov	r4, r0
	lsrl	r4, r3, #23
	uxtb	r3, r4
.Ltmp703:
	.loc	9 825 13 is_stmt 0              @ ../../../../Library/StdDriver/src/clk.c:825:13
	cmp	r3, #0
.Ltmp704:
	.loc	9 833 1 is_stmt 1               @ ../../../../Library/StdDriver/src/clk.c:833:1
	it	eq
	popeq	{r4, r5, r6, pc}
.Ltmp705:
.LBB21_6:
	@DEBUG_VALUE: CLK_SetModuleClock:u32ClkSrc <- $r2
	@DEBUG_VALUE: CLK_SetModuleClock:u64ModuleIdx <- [DW_OP_LLVM_fragment 32 32] $r1
	@DEBUG_VALUE: CLK_SetModuleClock:u64ModuleIdx <- [DW_OP_LLVM_fragment 0 32] $r0
	@DEBUG_VALUE: CLK_SetModuleClock:u32Sel <- 0
	.loc	9 0 1 is_stmt 0                 @ ../../../../Library/StdDriver/src/clk.c:0:1
	mov.w	r6, #1020
.Ltmp706:
	.loc	9 828 92 is_stmt 1              @ ../../../../Library/StdDriver/src/clk.c:828:92
	and.w	r1, r6, r1, lsr #5
.Ltmp707:
	.loc	9 828 51 is_stmt 0              @ ../../../../Library/StdDriver/src/clk.c:828:51
	add.w	r6, r12, #344
	orrs	r1, r6
.Ltmp708:
	@DEBUG_VALUE: CLK_SetModuleClock:u32Sel <- $r1
	.loc	9 830 90 is_stmt 1              @ ../../../../Library/StdDriver/src/clk.c:830:90
	ubfx	r0, r0, #5, #5
.Ltmp709:
	.loc	9 830 28 is_stmt 0              @ ../../../../Library/StdDriver/src/clk.c:830:28
	ldr	r6, [r1]
	.loc	9 830 87                        @ ../../../../Library/StdDriver/src/clk.c:830:87
	lsl.w	r0, r3, r0
	.loc	9 830 40                        @ ../../../../Library/StdDriver/src/clk.c:830:40
	bic.w	r0, r6, r0
	.loc	9 830 135                       @ ../../../../Library/StdDriver/src/clk.c:830:135
	orrs	r0, r2
	.loc	9 830 25                        @ ../../../../Library/StdDriver/src/clk.c:830:25
	str	r0, [r1]
.Ltmp710:
	.loc	9 833 1 is_stmt 1               @ ../../../../Library/StdDriver/src/clk.c:833:1
	pop	{r4, r5, r6, pc}
.Ltmp711:
.LBB21_7:
	@DEBUG_VALUE: CLK_SetModuleClock:u32ClkDiv <- $r3
	@DEBUG_VALUE: CLK_SetModuleClock:u32ClkSrc <- $r2
	@DEBUG_VALUE: CLK_SetModuleClock:u64ModuleIdx <- [DW_OP_LLVM_fragment 32 32] $r1
	@DEBUG_VALUE: CLK_SetModuleClock:u32Sel <- 0
	@DEBUG_VALUE: CLK_SetModuleClock:u32Div <- 0
	.loc	9 806 29                        @ ../../../../Library/StdDriver/src/clk.c:806:29
	ldr	r1, [r0]
.Ltmp712:
	.loc	9 806 36 is_stmt 0              @ ../../../../Library/StdDriver/src/clk.c:806:36
	bic	r1, r1, #128
	.loc	9 806 66                        @ ../../../../Library/StdDriver/src/clk.c:806:66
	orrs	r1, r2
	.loc	9 806 21                        @ ../../../../Library/StdDriver/src/clk.c:806:21
	str	r1, [r0]
.Ltmp713:
	.loc	9 833 1 is_stmt 1               @ ../../../../Library/StdDriver/src/clk.c:833:1
	pop	{r4, r5, r6, pc}
.Ltmp714:
.Lfunc_end21:
	.size	CLK_SetModuleClock, .Lfunc_end21-CLK_SetModuleClock
	.cfi_endproc
	.cantunwind
	.fnend
                                        @ -- End function
	.section	.text.CLK_SetSysTickClockSrc,"ax",%progbits
	.hidden	CLK_SetSysTickClockSrc          @ -- Begin function CLK_SetSysTickClockSrc
	.globl	CLK_SetSysTickClockSrc
	.p2align	2
	.type	CLK_SetSysTickClockSrc,%function
	.code	16                              @ @CLK_SetSysTickClockSrc
	.thumb_func
CLK_SetSysTickClockSrc:
.Lfunc_begin22:
	.loc	9 848 0                         @ ../../../../Library/StdDriver/src/clk.c:848:0
	.fnstart
	.cfi_startproc
@ %bb.0:
	@DEBUG_VALUE: CLK_SetSysTickClockSrc:u32ClkSrc <- $r0
	movw	r1, #5204
	movt	r1, #16384
.Ltmp715:
	.loc	9 849 24 prologue_end           @ ../../../../Library/StdDriver/src/clk.c:849:24
	ldr	r2, [r1]
	@DEBUG_VALUE: CLK_SetSysTickClockSrc:u32ClkSrc <- $r0
	.loc	9 849 30 is_stmt 0              @ ../../../../Library/StdDriver/src/clk.c:849:30
	bic	r2, r2, #7
	.loc	9 849 55                        @ ../../../../Library/StdDriver/src/clk.c:849:55
	orrs	r0, r2
.Ltmp716:
	@DEBUG_VALUE: CLK_SetSysTickClockSrc:u32ClkSrc <- [DW_OP_LLVM_entry_value 1] $r0
	.loc	9 849 16                        @ ../../../../Library/StdDriver/src/clk.c:849:16
	str	r0, [r1]
	.loc	9 850 1 is_stmt 1               @ ../../../../Library/StdDriver/src/clk.c:850:1
	bx	lr
.Ltmp717:
.Lfunc_end22:
	.size	CLK_SetSysTickClockSrc, .Lfunc_end22-CLK_SetSysTickClockSrc
	.cfi_endproc
	.cantunwind
	.fnend
                                        @ -- End function
	.section	.text.CLK_EnableXtalRC,"ax",%progbits
	.hidden	CLK_EnableXtalRC                @ -- Begin function CLK_EnableXtalRC
	.globl	CLK_EnableXtalRC
	.p2align	2
	.type	CLK_EnableXtalRC,%function
	.code	16                              @ @CLK_EnableXtalRC
	.thumb_func
CLK_EnableXtalRC:
.Lfunc_begin23:
	.loc	9 866 0                         @ ../../../../Library/StdDriver/src/clk.c:866:0
	.fnstart
	.cfi_startproc
@ %bb.0:
	@DEBUG_VALUE: CLK_EnableXtalRC:u32ClkMask <- $r0
	@DEBUG_VALUE: CLK_EnableXtalRC:u32ClkMask <- $r0
	movw	r1, #4776
.Ltmp718:
	.loc	9 868 9 prologue_end            @ ../../../../Library/StdDriver/src/clk.c:868:9
	cmp	r0, #2
	movt	r1, #16384
	bne	.LBB23_11
.Ltmp719:
@ %bb.1:
	@DEBUG_VALUE: CLK_EnableXtalRC:u32ClkMask <- $r0
	@DEBUG_VALUE: CLK_EnableModuleClock:u64ModuleIdx <- 5910974510923776
	@DEBUG_VALUE: CLK_EnableModuleClock:u32TmpVal <- 1
	@DEBUG_VALUE: CLK_EnableModuleClock:u32TmpAddr <- 1073746600
	@DEBUG_VALUE: CLK_EnableModuleClock:u32Ret <- 1
	.loc	9 1034 38                       @ ../../../../Library/StdDriver/src/clk.c:1034:38
	ldr	r2, [r1]
	movs	r3, #2
.Ltmp720:
	@DEBUG_VALUE: CLK_WaitModuleClockReady:u32TimeOutCnt <- undef
	@DEBUG_VALUE: CLK_WaitModuleClockReady:u32TmpAddr <- 1073746600
	orr	r2, r2, #1
	str	r2, [r1]
.Ltmp721:
	@DEBUG_VALUE: CLK_WaitModuleClockReady:u32Ret <- 1
	@DEBUG_VALUE: CLK_WaitModuleClockReady:u32TmpAddr <- 0
	@DEBUG_VALUE: CLK_WaitModuleClockReady:u64ModuleIdx <- 5910974510923776
	.loc	9 1304 30                       @ ../../../../Library/StdDriver/src/clk.c:1304:30
	movw	r2, :lower16:SystemCoreClock
	movt	r2, :upper16:SystemCoreClock
	ldr	r2, [r2]
	.loc	9 1310 5                        @ ../../../../Library/StdDriver/src/clk.c:1310:5
	sub.w	r2, r3, r2, lsr #1
.Ltmp722:
	.p2align	2
.LBB23_2:                               @ =>This Inner Loop Header: Depth=1
	@DEBUG_VALUE: CLK_EnableXtalRC:u32ClkMask <- $r0
	@DEBUG_VALUE: CLK_WaitModuleClockReady:u64ModuleIdx <- 5910974510923776
	@DEBUG_VALUE: CLK_WaitModuleClockReady:u32TmpAddr <- 0
	@DEBUG_VALUE: CLK_WaitModuleClockReady:u32Ret <- 1
	@DEBUG_VALUE: CLK_EnableModuleClock:u32Ret <- 1
	@DEBUG_VALUE: CLK_EnableModuleClock:u32TmpAddr <- 1073746600
	@DEBUG_VALUE: CLK_EnableModuleClock:u32TmpVal <- 1
	@DEBUG_VALUE: CLK_EnableModuleClock:u64ModuleIdx <- 5910974510923776
	@DEBUG_VALUE: CLK_WaitModuleClockReady:u32TimeOutCnt <- undef
	.loc	9 1310 13 is_stmt 0             @ ../../../../Library/StdDriver/src/clk.c:1310:13
	ldr	r3, [r1]
.Ltmp723:
	@DEBUG_VALUE: CLK_WaitModuleClockReady:u32TimeOutCnt <- [DW_OP_constu 1, DW_OP_minus, DW_OP_stack_value] undef
	.loc	9 1310 5                        @ ../../../../Library/StdDriver/src/clk.c:1310:5
	cmp	r3, #0
	bmi	.LBB23_10
.Ltmp724:
@ %bb.3:                                @   in Loop: Header=BB23_2 Depth=1
	@DEBUG_VALUE: CLK_EnableXtalRC:u32ClkMask <- $r0
	@DEBUG_VALUE: CLK_WaitModuleClockReady:u64ModuleIdx <- 5910974510923776
	@DEBUG_VALUE: CLK_WaitModuleClockReady:u32TmpAddr <- 0
	@DEBUG_VALUE: CLK_WaitModuleClockReady:u32Ret <- 1
	@DEBUG_VALUE: CLK_EnableModuleClock:u32Ret <- 1
	@DEBUG_VALUE: CLK_EnableModuleClock:u32TmpAddr <- 1073746600
	@DEBUG_VALUE: CLK_EnableModuleClock:u32TmpVal <- 1
	@DEBUG_VALUE: CLK_EnableModuleClock:u64ModuleIdx <- 5910974510923776
	cmp	r2, #1
	beq	.LBB23_10
.Ltmp725:
@ %bb.4:                                @   in Loop: Header=BB23_2 Depth=1
	@DEBUG_VALUE: CLK_EnableXtalRC:u32ClkMask <- $r0
	@DEBUG_VALUE: CLK_WaitModuleClockReady:u64ModuleIdx <- 5910974510923776
	@DEBUG_VALUE: CLK_WaitModuleClockReady:u32TmpAddr <- 0
	@DEBUG_VALUE: CLK_WaitModuleClockReady:u32Ret <- 1
	@DEBUG_VALUE: CLK_EnableModuleClock:u32Ret <- 1
	@DEBUG_VALUE: CLK_EnableModuleClock:u32TmpAddr <- 1073746600
	@DEBUG_VALUE: CLK_EnableModuleClock:u32TmpVal <- 1
	@DEBUG_VALUE: CLK_EnableModuleClock:u64ModuleIdx <- 5910974510923776
	@DEBUG_VALUE: CLK_WaitModuleClockReady:u32TimeOutCnt <- [DW_OP_constu 1, DW_OP_minus, DW_OP_stack_value] undef
	.loc	9 1310 13                       @ ../../../../Library/StdDriver/src/clk.c:1310:13
	ldr	r3, [r1]
.Ltmp726:
	@DEBUG_VALUE: CLK_WaitModuleClockReady:u32TimeOutCnt <- [DW_OP_constu 2, DW_OP_minus, DW_OP_stack_value] undef
	.loc	9 1310 5                        @ ../../../../Library/StdDriver/src/clk.c:1310:5
	cmp	r3, #0
	bmi	.LBB23_10
.Ltmp727:
@ %bb.5:                                @   in Loop: Header=BB23_2 Depth=1
	@DEBUG_VALUE: CLK_EnableXtalRC:u32ClkMask <- $r0
	@DEBUG_VALUE: CLK_WaitModuleClockReady:u64ModuleIdx <- 5910974510923776
	@DEBUG_VALUE: CLK_WaitModuleClockReady:u32TmpAddr <- 0
	@DEBUG_VALUE: CLK_WaitModuleClockReady:u32Ret <- 1
	@DEBUG_VALUE: CLK_EnableModuleClock:u32Ret <- 1
	@DEBUG_VALUE: CLK_EnableModuleClock:u32TmpAddr <- 1073746600
	@DEBUG_VALUE: CLK_EnableModuleClock:u32TmpVal <- 1
	@DEBUG_VALUE: CLK_EnableModuleClock:u64ModuleIdx <- 5910974510923776
	cbz	r2, .LBB23_10
.Ltmp728:
@ %bb.6:                                @   in Loop: Header=BB23_2 Depth=1
	@DEBUG_VALUE: CLK_EnableXtalRC:u32ClkMask <- $r0
	@DEBUG_VALUE: CLK_WaitModuleClockReady:u64ModuleIdx <- 5910974510923776
	@DEBUG_VALUE: CLK_WaitModuleClockReady:u32TmpAddr <- 0
	@DEBUG_VALUE: CLK_WaitModuleClockReady:u32Ret <- 1
	@DEBUG_VALUE: CLK_EnableModuleClock:u32Ret <- 1
	@DEBUG_VALUE: CLK_EnableModuleClock:u32TmpAddr <- 1073746600
	@DEBUG_VALUE: CLK_EnableModuleClock:u32TmpVal <- 1
	@DEBUG_VALUE: CLK_EnableModuleClock:u64ModuleIdx <- 5910974510923776
	@DEBUG_VALUE: CLK_WaitModuleClockReady:u32TimeOutCnt <- [DW_OP_constu 2, DW_OP_minus, DW_OP_stack_value] undef
	.loc	9 1310 13                       @ ../../../../Library/StdDriver/src/clk.c:1310:13
	ldr	r3, [r1]
.Ltmp729:
	@DEBUG_VALUE: CLK_WaitModuleClockReady:u32TimeOutCnt <- [DW_OP_constu 3, DW_OP_minus, DW_OP_stack_value] undef
	.loc	9 1310 5                        @ ../../../../Library/StdDriver/src/clk.c:1310:5
	cmp	r3, #0
	bmi	.LBB23_10
.Ltmp730:
@ %bb.7:                                @   in Loop: Header=BB23_2 Depth=1
	@DEBUG_VALUE: CLK_EnableXtalRC:u32ClkMask <- $r0
	@DEBUG_VALUE: CLK_WaitModuleClockReady:u64ModuleIdx <- 5910974510923776
	@DEBUG_VALUE: CLK_WaitModuleClockReady:u32TmpAddr <- 0
	@DEBUG_VALUE: CLK_WaitModuleClockReady:u32Ret <- 1
	@DEBUG_VALUE: CLK_EnableModuleClock:u32Ret <- 1
	@DEBUG_VALUE: CLK_EnableModuleClock:u32TmpAddr <- 1073746600
	@DEBUG_VALUE: CLK_EnableModuleClock:u32TmpVal <- 1
	@DEBUG_VALUE: CLK_EnableModuleClock:u64ModuleIdx <- 5910974510923776
	adds	r3, r2, #1
	beq	.LBB23_10
.Ltmp731:
@ %bb.8:                                @   in Loop: Header=BB23_2 Depth=1
	@DEBUG_VALUE: CLK_EnableXtalRC:u32ClkMask <- $r0
	@DEBUG_VALUE: CLK_WaitModuleClockReady:u64ModuleIdx <- 5910974510923776
	@DEBUG_VALUE: CLK_WaitModuleClockReady:u32TmpAddr <- 0
	@DEBUG_VALUE: CLK_WaitModuleClockReady:u32Ret <- 1
	@DEBUG_VALUE: CLK_EnableModuleClock:u32Ret <- 1
	@DEBUG_VALUE: CLK_EnableModuleClock:u32TmpAddr <- 1073746600
	@DEBUG_VALUE: CLK_EnableModuleClock:u32TmpVal <- 1
	@DEBUG_VALUE: CLK_EnableModuleClock:u64ModuleIdx <- 5910974510923776
	@DEBUG_VALUE: CLK_WaitModuleClockReady:u32TimeOutCnt <- [DW_OP_constu 3, DW_OP_minus, DW_OP_stack_value] undef
	.loc	9 1310 13                       @ ../../../../Library/StdDriver/src/clk.c:1310:13
	ldr	r3, [r1]
.Ltmp732:
	@DEBUG_VALUE: CLK_WaitModuleClockReady:u32TimeOutCnt <- [DW_OP_constu 4, DW_OP_minus, DW_OP_stack_value] undef
	.loc	9 1310 5                        @ ../../../../Library/StdDriver/src/clk.c:1310:5
	cmp	r3, #0
	bmi	.LBB23_10
.Ltmp733:
@ %bb.9:                                @   in Loop: Header=BB23_2 Depth=1
	@DEBUG_VALUE: CLK_EnableXtalRC:u32ClkMask <- $r0
	@DEBUG_VALUE: CLK_WaitModuleClockReady:u64ModuleIdx <- 5910974510923776
	@DEBUG_VALUE: CLK_WaitModuleClockReady:u32TmpAddr <- 0
	@DEBUG_VALUE: CLK_WaitModuleClockReady:u32Ret <- 1
	@DEBUG_VALUE: CLK_EnableModuleClock:u32Ret <- 1
	@DEBUG_VALUE: CLK_EnableModuleClock:u32TmpAddr <- 1073746600
	@DEBUG_VALUE: CLK_EnableModuleClock:u32TmpVal <- 1
	@DEBUG_VALUE: CLK_EnableModuleClock:u64ModuleIdx <- 5910974510923776
	adds	r3, r2, #2
	add.w	r2, r2, #4
	bne	.LBB23_2
.Ltmp734:
.LBB23_10:
	@DEBUG_VALUE: CLK_EnableXtalRC:u32ClkMask <- $r0
	@DEBUG_VALUE: CLK_EnableModuleClock:u32Ret <- undef
	.loc	9 0 5                           @ ../../../../Library/StdDriver/src/clk.c:0:5
	movw	r12, #28928
	movs	r2, #7
	movt	r12, #16425
	.loc	9 872 29 is_stmt 1              @ ../../../../Library/StdDriver/src/clk.c:872:29
	ldr.w	r3, [r12]
	.loc	9 872 60 is_stmt 0              @ ../../../../Library/StdDriver/src/clk.c:872:60
	bfi	r3, r2, #1, #4
	.loc	9 872 21                        @ ../../../../Library/StdDriver/src/clk.c:872:21
	str.w	r3, [r12]
.Ltmp735:
	@DEBUG_VALUE: CLK_DisableModuleClock:u32TmpAddr <- 1073746600
	@DEBUG_VALUE: CLK_DisableModuleClock:u32TmpVal <- -2
	@DEBUG_VALUE: CLK_DisableModuleClock:u64ModuleIdx <- 5910974510923776
	.loc	9 1176 38 is_stmt 1             @ ../../../../Library/StdDriver/src/clk.c:1176:38
	ldr	r2, [r1]
	bic	r2, r2, #1
	str	r2, [r1]
.Ltmp736:
.LBB23_11:
	@DEBUG_VALUE: CLK_EnableXtalRC:u32ClkMask <- $r0
	.loc	9 0 38 is_stmt 0                @ ../../../../Library/StdDriver/src/clk.c:0:38
	movw	r2, #64856
	movt	r2, #65535
	.loc	9 879 17 is_stmt 1              @ ../../../../Library/StdDriver/src/clk.c:879:17
	ldr	r3, [r1, r2]
	orrs	r0, r3
.Ltmp737:
	@DEBUG_VALUE: CLK_EnableXtalRC:u32ClkMask <- [DW_OP_LLVM_entry_value 1] $r0
	str	r0, [r1, r2]
	.loc	9 880 1                         @ ../../../../Library/StdDriver/src/clk.c:880:1
	bx	lr
.Ltmp738:
.Lfunc_end23:
	.size	CLK_EnableXtalRC, .Lfunc_end23-CLK_EnableXtalRC
	.cfi_endproc
	.cantunwind
	.fnend
                                        @ -- End function
	.section	.text.CLK_EnableModuleClock,"ax",%progbits
	.hidden	CLK_EnableModuleClock           @ -- Begin function CLK_EnableModuleClock
	.globl	CLK_EnableModuleClock
	.p2align	2
	.type	CLK_EnableModuleClock,%function
	.code	16                              @ @CLK_EnableModuleClock
	.thumb_func
CLK_EnableModuleClock:
.Lfunc_begin24:
	.loc	9 1025 0                        @ ../../../../Library/StdDriver/src/clk.c:1025:0
	.fnstart
	.cfi_startproc
@ %bb.0:
	.save	{r4, r5, r7, lr}
	push	{r4, r5, r7, lr}
	.cfi_def_cfa_offset 16
	.cfi_offset lr, -4
	.cfi_offset r7, -8
	.cfi_offset r5, -12
	.cfi_offset r4, -16
	mov	r2, r0
.Ltmp739:
	@DEBUG_VALUE: CLK_EnableModuleClock:u32Ret <- 1
	@DEBUG_VALUE: CLK_EnableModuleClock:u32TmpAddr <- 0
	@DEBUG_VALUE: CLK_EnableModuleClock:u32TmpVal <- 0
	@DEBUG_VALUE: CLK_EnableModuleClock:u64ModuleIdx <- [DW_OP_LLVM_fragment 0 32] $r2
	@DEBUG_VALUE: CLK_EnableModuleClock:u64ModuleIdx <- [DW_OP_LLVM_fragment 32 32] $r1
	movw	lr, #4608
.Ltmp740:
	.loc	9 1030 25 prologue_end          @ ../../../../Library/StdDriver/src/clk.c:1030:25
	ubfx	r12, r0, #10, #5
	.loc	9 1032 49                       @ ../../../../Library/StdDriver/src/clk.c:1032:49
	ubfx	r3, r1, #15, #8
.Ltmp741:
	.loc	9 1037 39                       @ ../../../../Library/StdDriver/src/clk.c:1037:39
	eor	r0, r1, #491520
	eor	r4, r2, #16384
	movt	lr, #16384
.Ltmp742:
	@DEBUG_VALUE: CLK_EnableModuleClock:u32TmpAddr <- undef
	orrs	r0, r4
	mov.w	r0, #1
.Ltmp743:
	.loc	9 1034 38                       @ ../../../../Library/StdDriver/src/clk.c:1034:38
	ldr.w	r5, [lr, r3, lsl #2]
	.loc	9 1030 22                       @ ../../../../Library/StdDriver/src/clk.c:1030:22
	lsl.w	r4, r0, r12
.Ltmp744:
	@DEBUG_VALUE: CLK_EnableModuleClock:u32TmpVal <- $r4
	.loc	9 1034 38                       @ ../../../../Library/StdDriver/src/clk.c:1034:38
	orr.w	r5, r5, r4
	str.w	r5, [lr, r3, lsl #2]
.Ltmp745:
	.loc	9 1037 39                       @ ../../../../Library/StdDriver/src/clk.c:1037:39
	itttt	ne
	eorne	r3, r1, #262144
	eorne	r3, r3, #230400
	eorne	r2, r2, #8388608
.Ltmp746:
	orrsne.w	r2, r2, r3
	bne	.LBB24_2
.Ltmp747:
@ %bb.1:
	@DEBUG_VALUE: CLK_EnableModuleClock:u32TmpVal <- $r4
	@DEBUG_VALUE: CLK_EnableModuleClock:u64ModuleIdx <- [DW_OP_LLVM_fragment 32 32] $r1
	@DEBUG_VALUE: CLK_EnableModuleClock:u32Ret <- 1
	@DEBUG_VALUE: CLK_EnableModuleClock:u32Ret <- $r0
	.loc	9 1044 5                        @ ../../../../Library/StdDriver/src/clk.c:1044:5
	pop	{r4, r5, r7, pc}
.Ltmp748:
.LBB24_2:
	@DEBUG_VALUE: CLK_EnableModuleClock:u32TmpVal <- $r4
	@DEBUG_VALUE: CLK_EnableModuleClock:u64ModuleIdx <- [DW_OP_LLVM_fragment 32 32] $r1
	@DEBUG_VALUE: CLK_EnableModuleClock:u32Ret <- 1
	.loc	9 1304 30                       @ ../../../../Library/StdDriver/src/clk.c:1304:30
	movw	r0, :lower16:SystemCoreClock
	mov.w	r2, #1020
	movt	r0, :upper16:SystemCoreClock
	ldr	r3, [r0]
	and.w	r0, r2, r1, lsr #13
.Ltmp749:
	@DEBUG_VALUE: CLK_WaitModuleClockReady:u32Ret <- 1
	@DEBUG_VALUE: CLK_WaitModuleClockReady:u32TmpAddr <- 0
	@DEBUG_VALUE: CLK_WaitModuleClockReady:u64ModuleIdx <- [DW_OP_LLVM_fragment 32 32] undef
	@DEBUG_VALUE: CLK_WaitModuleClockReady:u64ModuleIdx <- [DW_OP_LLVM_fragment 0 32] undef
	.loc	9 1304 46 is_stmt 0             @ ../../../../Library/StdDriver/src/clk.c:1304:46
	lsrs	r1, r3, #1
.Ltmp750:
	@DEBUG_VALUE: CLK_WaitModuleClockReady:u32TimeOutCnt <- $r1
	@DEBUG_VALUE: CLK_WaitModuleClockReady:u32TmpAddr <- [DW_OP_plus_uconst 1073746432, DW_OP_stack_value] $r0
	.loc	9 0 46                          @ ../../../../Library/StdDriver/src/clk.c:0:46
	b	.LBB24_8
.Ltmp751:
	.p2align	2
.LBB24_3:                               @   in Loop: Header=BB24_8 Depth=1
	@DEBUG_VALUE: CLK_WaitModuleClockReady:u32TimeOutCnt <- [DW_OP_constu 1, DW_OP_minus, DW_OP_stack_value] $r1
	@DEBUG_VALUE: CLK_WaitModuleClockReady:u32Ret <- 1
	@DEBUG_VALUE: CLK_WaitModuleClockReady:u32TimeOutCnt <- [DW_OP_constu 2, DW_OP_minus, DW_OP_stack_value] $r1
	.loc	9 1312 13 is_stmt 1             @ ../../../../Library/StdDriver/src/clk.c:1312:13
	cmp	r1, #2
	itt	eq
	moveq	r0, #0
.Ltmp752:
	@DEBUG_VALUE: CLK_EnableModuleClock:u32Ret <- $r0
	.loc	9 1044 5                        @ ../../../../Library/StdDriver/src/clk.c:1044:5
	popeq	{r4, r5, r7, pc}
.Ltmp753:
.LBB24_4:                               @   in Loop: Header=BB24_8 Depth=1
	@DEBUG_VALUE: CLK_WaitModuleClockReady:u32TimeOutCnt <- [DW_OP_constu 2, DW_OP_minus, DW_OP_stack_value] $r1
	@DEBUG_VALUE: CLK_EnableModuleClock:u32Ret <- $r0
	@DEBUG_VALUE: CLK_WaitModuleClockReady:u32Ret <- 1
	@DEBUG_VALUE: CLK_WaitModuleClockReady:u32TimeOutCnt <- [DW_OP_constu 2, DW_OP_minus, DW_OP_stack_value] $r1
	.loc	9 1310 13                       @ ../../../../Library/StdDriver/src/clk.c:1310:13
	ldr.w	r2, [r0, lr]
	.loc	9 1310 5 is_stmt 0              @ ../../../../Library/StdDriver/src/clk.c:1310:5
	cmp	r2, #0
	itt	mi
	movmi	r0, #1
.Ltmp754:
	@DEBUG_VALUE: CLK_EnableModuleClock:u32Ret <- $r0
	.loc	9 1044 5 is_stmt 1              @ ../../../../Library/StdDriver/src/clk.c:1044:5
	popmi	{r4, r5, r7, pc}
.Ltmp755:
.LBB24_5:                               @   in Loop: Header=BB24_8 Depth=1
	@DEBUG_VALUE: CLK_WaitModuleClockReady:u32TimeOutCnt <- [DW_OP_constu 2, DW_OP_minus, DW_OP_stack_value] $r1
	@DEBUG_VALUE: CLK_EnableModuleClock:u32Ret <- $r0
	@DEBUG_VALUE: CLK_WaitModuleClockReady:u32Ret <- 1
	@DEBUG_VALUE: CLK_WaitModuleClockReady:u32TimeOutCnt <- [DW_OP_constu 3, DW_OP_minus, DW_OP_stack_value] $r1
	.loc	9 1312 13                       @ ../../../../Library/StdDriver/src/clk.c:1312:13
	cmp	r1, #3
	itt	eq
	moveq	r0, #0
.Ltmp756:
	@DEBUG_VALUE: CLK_EnableModuleClock:u32Ret <- $r0
	.loc	9 1044 5                        @ ../../../../Library/StdDriver/src/clk.c:1044:5
	popeq	{r4, r5, r7, pc}
.Ltmp757:
.LBB24_6:                               @   in Loop: Header=BB24_8 Depth=1
	@DEBUG_VALUE: CLK_WaitModuleClockReady:u32TimeOutCnt <- [DW_OP_constu 3, DW_OP_minus, DW_OP_stack_value] $r1
	@DEBUG_VALUE: CLK_EnableModuleClock:u32Ret <- $r0
	@DEBUG_VALUE: CLK_WaitModuleClockReady:u32Ret <- 1
	@DEBUG_VALUE: CLK_WaitModuleClockReady:u32TimeOutCnt <- [DW_OP_constu 3, DW_OP_minus, DW_OP_stack_value] $r1
	.loc	9 1310 13                       @ ../../../../Library/StdDriver/src/clk.c:1310:13
	ldr.w	r2, [r0, lr]
	.loc	9 1310 5 is_stmt 0              @ ../../../../Library/StdDriver/src/clk.c:1310:5
	cmp	r2, #0
	itt	mi
	movmi	r0, #1
.Ltmp758:
	@DEBUG_VALUE: CLK_EnableModuleClock:u32Ret <- $r0
	.loc	9 1044 5 is_stmt 1              @ ../../../../Library/StdDriver/src/clk.c:1044:5
	popmi	{r4, r5, r7, pc}
.Ltmp759:
.LBB24_7:                               @   in Loop: Header=BB24_8 Depth=1
	@DEBUG_VALUE: CLK_WaitModuleClockReady:u32TimeOutCnt <- [DW_OP_constu 3, DW_OP_minus, DW_OP_stack_value] $r1
	@DEBUG_VALUE: CLK_EnableModuleClock:u32Ret <- $r0
	@DEBUG_VALUE: CLK_WaitModuleClockReady:u32Ret <- 1
	.loc	9 1312 13                       @ ../../../../Library/StdDriver/src/clk.c:1312:13
	subs	r1, #4
.Ltmp760:
	@DEBUG_VALUE: CLK_WaitModuleClockReady:u32TimeOutCnt <- $r1
	.loc	9 0 13 is_stmt 0                @ ../../../../Library/StdDriver/src/clk.c:0:13
	itt	eq
	moveq	r0, #0
.Ltmp761:
	@DEBUG_VALUE: CLK_EnableModuleClock:u32Ret <- $r0
	.loc	9 1044 5 is_stmt 1              @ ../../../../Library/StdDriver/src/clk.c:1044:5
	popeq	{r4, r5, r7, pc}
.Ltmp762:
.LBB24_8:                               @ =>This Inner Loop Header: Depth=1
	@DEBUG_VALUE: CLK_WaitModuleClockReady:u32TimeOutCnt <- $r1
	@DEBUG_VALUE: CLK_WaitModuleClockReady:u32Ret <- 1
	@DEBUG_VALUE: CLK_WaitModuleClockReady:u32TimeOutCnt <- $r1
	.loc	9 1310 13                       @ ../../../../Library/StdDriver/src/clk.c:1310:13
	ldr.w	r2, [r0, lr]
	.loc	9 1310 5 is_stmt 0              @ ../../../../Library/StdDriver/src/clk.c:1310:5
	cmp	r2, #0
	bmi	.LBB24_11
.Ltmp763:
@ %bb.9:                                @   in Loop: Header=BB24_8 Depth=1
	@DEBUG_VALUE: CLK_WaitModuleClockReady:u32TimeOutCnt <- $r1
	@DEBUG_VALUE: CLK_WaitModuleClockReady:u32Ret <- 1
	@DEBUG_VALUE: CLK_WaitModuleClockReady:u32TimeOutCnt <- [DW_OP_constu 1, DW_OP_minus, DW_OP_stack_value] $r1
	.loc	9 1312 13 is_stmt 1             @ ../../../../Library/StdDriver/src/clk.c:1312:13
	cmp	r1, #1
	beq	.LBB24_12
.Ltmp764:
@ %bb.10:                               @   in Loop: Header=BB24_8 Depth=1
	@DEBUG_VALUE: CLK_WaitModuleClockReady:u32TimeOutCnt <- [DW_OP_constu 1, DW_OP_minus, DW_OP_stack_value] $r1
	@DEBUG_VALUE: CLK_WaitModuleClockReady:u32Ret <- 1
	@DEBUG_VALUE: CLK_WaitModuleClockReady:u32TimeOutCnt <- [DW_OP_constu 1, DW_OP_minus, DW_OP_stack_value] $r1
	.loc	9 1310 13                       @ ../../../../Library/StdDriver/src/clk.c:1310:13
	ldr.w	r2, [r0, lr]
	.loc	9 1310 5 is_stmt 0              @ ../../../../Library/StdDriver/src/clk.c:1310:5
	cmp	r2, #0
	bpl	.LBB24_3
.Ltmp765:
.LBB24_11:
	.loc	9 0 5                           @ ../../../../Library/StdDriver/src/clk.c:0:5
	movs	r0, #1
.Ltmp766:
	@DEBUG_VALUE: CLK_EnableModuleClock:u32Ret <- $r0
	.loc	9 1044 5 is_stmt 1              @ ../../../../Library/StdDriver/src/clk.c:1044:5
	pop	{r4, r5, r7, pc}
.Ltmp767:
.LBB24_12:
	.loc	9 0 5 is_stmt 0                 @ ../../../../Library/StdDriver/src/clk.c:0:5
	movs	r0, #0
.Ltmp768:
	@DEBUG_VALUE: CLK_EnableModuleClock:u32Ret <- $r0
	.loc	9 1044 5                        @ ../../../../Library/StdDriver/src/clk.c:1044:5
	pop	{r4, r5, r7, pc}
.Ltmp769:
.Lfunc_end24:
	.size	CLK_EnableModuleClock, .Lfunc_end24-CLK_EnableModuleClock
	.cfi_endproc
	.cantunwind
	.fnend
                                        @ -- End function
	.section	.text.CLK_DisableModuleClock,"ax",%progbits
	.hidden	CLK_DisableModuleClock          @ -- Begin function CLK_DisableModuleClock
	.globl	CLK_DisableModuleClock
	.p2align	2
	.type	CLK_DisableModuleClock,%function
	.code	16                              @ @CLK_DisableModuleClock
	.thumb_func
CLK_DisableModuleClock:
.Lfunc_begin25:
	.loc	9 1169 0 is_stmt 1              @ ../../../../Library/StdDriver/src/clk.c:1169:0
	.fnstart
	.cfi_startproc
@ %bb.0:
	@DEBUG_VALUE: CLK_DisableModuleClock:u64ModuleIdx <- [DW_OP_LLVM_fragment 32 32] $r1
	@DEBUG_VALUE: CLK_DisableModuleClock:u64ModuleIdx <- [DW_OP_LLVM_fragment 0 32] $r0
	@DEBUG_VALUE: CLK_DisableModuleClock:u32TmpVal <- 0
	@DEBUG_VALUE: CLK_DisableModuleClock:u32TmpAddr <- 0
	.loc	9 1174 49 prologue_end          @ ../../../../Library/StdDriver/src/clk.c:1174:49
	ubfx	r1, r1, #15, #8
.Ltmp770:
	.loc	9 0 49 is_stmt 0                @ ../../../../Library/StdDriver/src/clk.c:0:49
	movw	r2, #4608
	mov.w	r12, #1
	.loc	9 1172 26 is_stmt 1             @ ../../../../Library/StdDriver/src/clk.c:1172:26
	ubfx	r0, r0, #10, #5
.Ltmp771:
	.loc	9 0 26 is_stmt 0                @ ../../../../Library/StdDriver/src/clk.c:0:26
	movt	r2, #16384
.Ltmp772:
	@DEBUG_VALUE: CLK_DisableModuleClock:u32TmpAddr <- undef
	.loc	9 1176 38 is_stmt 1             @ ../../../../Library/StdDriver/src/clk.c:1176:38
	ldr.w	r3, [r2, r1, lsl #2]
	.loc	9 1172 23                       @ ../../../../Library/StdDriver/src/clk.c:1172:23
	lsl.w	r0, r12, r0
.Ltmp773:
	@DEBUG_VALUE: CLK_DisableModuleClock:u32TmpVal <- undef
	.loc	9 1176 38                       @ ../../../../Library/StdDriver/src/clk.c:1176:38
	bic.w	r0, r3, r0
	str.w	r0, [r2, r1, lsl #2]
	.loc	9 1177 1                        @ ../../../../Library/StdDriver/src/clk.c:1177:1
	bx	lr
.Ltmp774:
.Lfunc_end25:
	.size	CLK_DisableModuleClock, .Lfunc_end25-CLK_DisableModuleClock
	.cfi_endproc
	.cantunwind
	.fnend
                                        @ -- End function
	.section	.text.CLK_DisableXtalRC,"ax",%progbits
	.hidden	CLK_DisableXtalRC               @ -- Begin function CLK_DisableXtalRC
	.globl	CLK_DisableXtalRC
	.p2align	2
	.type	CLK_DisableXtalRC,%function
	.code	16                              @ @CLK_DisableXtalRC
	.thumb_func
CLK_DisableXtalRC:
.Lfunc_begin26:
	.loc	9 898 0                         @ ../../../../Library/StdDriver/src/clk.c:898:0
	.fnstart
	.cfi_startproc
@ %bb.0:
	@DEBUG_VALUE: CLK_DisableXtalRC:u32ClkMask <- $r0
	movw	r1, #4096
	movt	r1, #16384
.Ltmp775:
	.loc	9 899 17 prologue_end           @ ../../../../Library/StdDriver/src/clk.c:899:17
	ldr	r2, [r1]
	@DEBUG_VALUE: CLK_DisableXtalRC:u32ClkMask <- $r0
	bic.w	r0, r2, r0
.Ltmp776:
	@DEBUG_VALUE: CLK_DisableXtalRC:u32ClkMask <- [DW_OP_LLVM_entry_value 1] $r0
	str	r0, [r1]
	.loc	9 900 1                         @ ../../../../Library/StdDriver/src/clk.c:900:1
	bx	lr
.Ltmp777:
.Lfunc_end26:
	.size	CLK_DisableXtalRC, .Lfunc_end26-CLK_DisableXtalRC
	.cfi_endproc
	.cantunwind
	.fnend
                                        @ -- End function
	.section	.text.CLK_WaitModuleClockReady,"ax",%progbits
