	.text
	.syntax unified
	.eabi_attribute	67, "2.09"	@ Tag_conformance
	.cpu	cortex-m55
	.eabi_attribute	6, 21	@ Tag_CPU_arch
	.eabi_attribute	7, 77	@ Tag_CPU_arch_profile
	.eabi_attribute	8, 0	@ Tag_ARM_ISA_use
	.eabi_attribute	9, 3	@ Tag_THUMB_ISA_use
	.fpu	fpv5-d16
	.eabi_attribute	36, 1	@ Tag_FP_HP_extension
	.eabi_attribute	48, 2	@ Tag_MVE_arch
	.eabi_attribute	46, 1	@ Tag_DSP_extension
	.eabi_attribute	34, 1	@ Tag_CPU_unaligned_access
	.eabi_attribute	17, 1	@ Tag_ABI_PCS_GOT_use
	.eabi_attribute	20, 2	@ Tag_ABI_FP_denormal
	.eabi_attribute	21, 0	@ Tag_ABI_FP_exceptions
	.eabi_attribute	23, 1	@ Tag_ABI_FP_number_model
	.eabi_attribute	24, 1	@ Tag_ABI_align_needed
	.eabi_attribute	25, 1	@ Tag_ABI_align_preserved
	.eabi_attribute	28, 1	@ Tag_ABI_VFP_args
	.eabi_attribute	38, 1	@ Tag_ABI_FP_16bit_format
	.eabi_attribute	18, 2	@ Tag_ABI_PCS_wchar_t
	.eabi_attribute	26, 1	@ Tag_ABI_enum_size
	.eabi_attribute	14, 0	@ Tag_ABI_PCS_R9_use
	.file	"ethosu_pmu.c"
	.file	1 "C:\\Users\\CYCHEN38\\OpenNuvoton\\firmware\\M55M1BSP\\SampleCode\\MachineLearning\\ObjectDetection_FreeRTOS_yoloxn\\KEIL" "../../../../Library/StdDriver/src/npu/ethosu55_interface.h"
	.file	2 "C:\\Users\\CYCHEN38\\OpenNuvoton\\firmware\\M55M1BSP\\SampleCode\\MachineLearning\\ObjectDetection_FreeRTOS_yoloxn\\KEIL" "../../../../Library/StdDriver/src/npu/ethosu_pmu.c"
	.file	3 "C:\\Users\\CYCHEN38\\OpenNuvoton\\firmware\\M55M1BSP\\SampleCode\\MachineLearning\\ObjectDetection_FreeRTOS_yoloxn\\KEIL" "../../../../Library/StdDriver/inc/npu/ethosu_driver.h"
	.file	4 "C:\\Users\\CYCHEN38\\OpenNuvoton\\firmware\\M55M1BSP\\SampleCode\\MachineLearning\\ObjectDetection_FreeRTOS_yoloxn\\KEIL" "../../../../Library/StdDriver/inc/npu\\pmu_ethosu.h"
	.file	5 "C:\\" "Keil_v5\\ARM\\ARMCLANG\\Bin\\..\\include\\stdint.h"
	.section	.text.ETHOSU_PMU_Enable,"ax",%progbits
	.hidden	ETHOSU_PMU_Enable               @ -- Begin function ETHOSU_PMU_Enable
	.globl	ETHOSU_PMU_Enable
	.p2align	2
	.type	ETHOSU_PMU_Enable,%function
	.code	16                              @ @ETHOSU_PMU_Enable
	.thumb_func
ETHOSU_PMU_Enable:
.Lfunc_begin0:
	.loc	2 91 0                          @ ../../../../Library/StdDriver/src/npu/ethosu_pmu.c:91:0
	.fnstart
	.cfi_sections .debug_frame
	.cfi_startproc
@ %bb.0:
	@DEBUG_VALUE: ETHOSU_PMU_Enable:drv <- $r0
	.save	{r4, lr}
	push	{r4, lr}
	.cfi_def_cfa_offset 8
	.cfi_offset lr, -4
	.cfi_offset r4, -8
	mov	r4, r0
.Ltmp0:
	@DEBUG_VALUE: ETHOSU_PMU_Enable:pmcr <- [DW_OP_LLVM_fragment 16 16] 0
	@DEBUG_VALUE: ETHOSU_PMU_Enable:pmcr <- [DW_OP_LLVM_fragment 0 16] 1
	@DEBUG_VALUE: ETHOSU_PMU_Enable:drv <- $r4
	.loc	2 95 5 prologue_end             @ ../../../../Library/StdDriver/src/npu/ethosu_pmu.c:95:5
	bl	ethosu_request_power
.Ltmp1:
	.loc	2 96 10                         @ ../../../../Library/StdDriver/src/npu/ethosu_pmu.c:96:10
	ldr	r0, [r4]
	movs	r1, #1
	.loc	2 96 15 is_stmt 0               @ ../../../../Library/StdDriver/src/npu/ethosu_pmu.c:96:15
	ldr	r0, [r0]
	.loc	2 96 30                         @ ../../../../Library/StdDriver/src/npu/ethosu_pmu.c:96:30
	str.w	r1, [r0, #384]
	.loc	2 97 1 is_stmt 1                @ ../../../../Library/StdDriver/src/npu/ethosu_pmu.c:97:1
	pop	{r4, pc}
.Ltmp2:
.Lfunc_end0:
	.size	ETHOSU_PMU_Enable, .Lfunc_end0-ETHOSU_PMU_Enable
	.cfi_endproc
	.cantunwind
	.fnend
                                        @ -- End function
	.section	.text.ETHOSU_PMU_Disable,"ax",%progbits
	.hidden	ETHOSU_PMU_Disable              @ -- Begin function ETHOSU_PMU_Disable
	.globl	ETHOSU_PMU_Disable
	.p2align	2
	.type	ETHOSU_PMU_Disable,%function
	.code	16                              @ @ETHOSU_PMU_Disable
	.thumb_func
ETHOSU_PMU_Disable:
.Lfunc_begin1:
	.loc	2 100 0                         @ ../../../../Library/StdDriver/src/npu/ethosu_pmu.c:100:0
	.fnstart
	.cfi_startproc
@ %bb.0:
	@DEBUG_VALUE: ETHOSU_PMU_Disable:drv <- $r0
	@DEBUG_VALUE: ETHOSU_PMU_Disable:drv <- $r0
	.loc	2 102 10 prologue_end           @ ../../../../Library/StdDriver/src/npu/ethosu_pmu.c:102:10
	ldr	r1, [r0]
	movs	r2, #0
	.loc	2 102 15 is_stmt 0              @ ../../../../Library/StdDriver/src/npu/ethosu_pmu.c:102:15
	ldr	r1, [r1]
	.loc	2 102 30                        @ ../../../../Library/StdDriver/src/npu/ethosu_pmu.c:102:30
	str.w	r2, [r1, #384]
.Ltmp3:
	.loc	2 103 5 is_stmt 1               @ ../../../../Library/StdDriver/src/npu/ethosu_pmu.c:103:5
	b	ethosu_release_power
.Ltmp4:
.Lfunc_end1:
	.size	ETHOSU_PMU_Disable, .Lfunc_end1-ETHOSU_PMU_Disable
	.cfi_endproc
	.file	6 "C:\\Users\\CYCHEN38\\OpenNuvoton\\firmware\\M55M1BSP\\SampleCode\\MachineLearning\\ObjectDetection_FreeRTOS_yoloxn\\KEIL" "../../../../Library/StdDriver/src/npu/ethosu_device.h"
	.file	7 "C:\\" "Keil_v5\\ARM\\ARMCLANG\\Bin\\..\\include\\stddef.h"
	.cantunwind
	.fnend
                                        @ -- End function
	.section	.text.ETHOSU_PMU_Get_NumEventCounters,"ax",%progbits
	.hidden	ETHOSU_PMU_Get_NumEventCounters @ -- Begin function ETHOSU_PMU_Get_NumEventCounters
	.globl	ETHOSU_PMU_Get_NumEventCounters
	.p2align	2
	.type	ETHOSU_PMU_Get_NumEventCounters,%function
	.code	16                              @ @ETHOSU_PMU_Get_NumEventCounters
	.thumb_func
ETHOSU_PMU_Get_NumEventCounters:
.Lfunc_begin2:
	.loc	2 107 0                         @ ../../../../Library/StdDriver/src/npu/ethosu_pmu.c:107:0
	.fnstart
	.cfi_startproc
@ %bb.0:
	.loc	2 108 5 prologue_end            @ ../../../../Library/StdDriver/src/npu/ethosu_pmu.c:108:5
	movs	r0, #4
	bx	lr
.Ltmp5:
.Lfunc_end2:
	.size	ETHOSU_PMU_Get_NumEventCounters, .Lfunc_end2-ETHOSU_PMU_Get_NumEventCounters
	.cfi_endproc
	.cantunwind
	.fnend
                                        @ -- End function
	.section	.text.ETHOSU_PMU_Set_EVTYPER,"ax",%progbits
	.hidden	ETHOSU_PMU_Set_EVTYPER          @ -- Begin function ETHOSU_PMU_Set_EVTYPER
	.globl	ETHOSU_PMU_Set_EVTYPER
	.p2align	2
	.type	ETHOSU_PMU_Set_EVTYPER,%function
	.code	16                              @ @ETHOSU_PMU_Set_EVTYPER
	.thumb_func
ETHOSU_PMU_Set_EVTYPER:
.Lfunc_begin3:
	.loc	2 112 0                         @ ../../../../Library/StdDriver/src/npu/ethosu_pmu.c:112:0
	.fnstart
	.cfi_startproc
@ %bb.0:
	@DEBUG_VALUE: ETHOSU_PMU_Set_EVTYPER:drv <- $r0
	@DEBUG_VALUE: ETHOSU_PMU_Set_EVTYPER:num <- $r1
	@DEBUG_VALUE: ETHOSU_PMU_Set_EVTYPER:num <- $r1
	@DEBUG_VALUE: ETHOSU_PMU_Set_EVTYPER:type <- $r2
	@DEBUG_VALUE: ETHOSU_PMU_Set_EVTYPER:type <- $r2
	.loc	2 113 5 prologue_end            @ ../../../../Library/StdDriver/src/npu/ethosu_pmu.c:113:5
	cmp	r1, #4
	@DEBUG_VALUE: ETHOSU_PMU_Set_EVTYPER:drv <- $r0
	bhs	.LBB3_2
.Ltmp6:
@ %bb.1:
	@DEBUG_VALUE: ETHOSU_PMU_Set_EVTYPER:type <- $r2
	@DEBUG_VALUE: ETHOSU_PMU_Set_EVTYPER:num <- $r1
	@DEBUG_VALUE: ETHOSU_PMU_Set_EVTYPER:drv <- $r0
	@DEBUG_VALUE: pmu_event_value:event <- $r2
	@DEBUG_VALUE: pmu_event_value:a <- [DW_OP_LLVM_convert 8 7, DW_OP_LLVM_convert 32 7, DW_OP_stack_value] $r2
	.loc	2 76 35                         @ ../../../../Library/StdDriver/src/npu/ethosu_pmu.c:76:35
	cmp	r2, #73
	iteee	hi
	movhi.w	r2, #-1
.Ltmp7:
	@DEBUG_VALUE: ETHOSU_PMU_Set_EVTYPER:type <- [DW_OP_LLVM_entry_value 1] $r2
	.loc	2 78 16                         @ ../../../../Library/StdDriver/src/npu/ethosu_pmu.c:78:16
	movwls	r3, :lower16:eventbyid
	movtls	r3, :upper16:eventbyid
	ldrhls.w	r2, [r3, r2, lsl #1]
.Ltmp8:
	@DEBUG_VALUE: ETHOSU_PMU_Set_EVTYPER:val <- $r2
	.loc	2 116 10                        @ ../../../../Library/StdDriver/src/npu/ethosu_pmu.c:116:10
	ldr	r0, [r0]
.Ltmp9:
	@DEBUG_VALUE: ETHOSU_PMU_Set_EVTYPER:drv <- [DW_OP_LLVM_entry_value 1] $r0
	.loc	2 116 15 is_stmt 0              @ ../../../../Library/StdDriver/src/npu/ethosu_pmu.c:116:15
	ldr	r0, [r0]
	.loc	2 116 35                        @ ../../../../Library/StdDriver/src/npu/ethosu_pmu.c:116:35
	add.w	r0, r0, r1, lsl #2
	.loc	2 116 40                        @ ../../../../Library/StdDriver/src/npu/ethosu_pmu.c:116:40
	str.w	r2, [r0, #896]
	.loc	2 117 1 is_stmt 1               @ ../../../../Library/StdDriver/src/npu/ethosu_pmu.c:117:1
	bx	lr
.Ltmp10:
.LBB3_2:
	@DEBUG_VALUE: ETHOSU_PMU_Set_EVTYPER:type <- $r2
	@DEBUG_VALUE: ETHOSU_PMU_Set_EVTYPER:num <- $r1
	@DEBUG_VALUE: ETHOSU_PMU_Set_EVTYPER:drv <- $r0
	.loc	2 113 5                         @ ../../../../Library/StdDriver/src/npu/ethosu_pmu.c:113:5
	movw	r0, :lower16:.L.str
.Ltmp11:
	@DEBUG_VALUE: ETHOSU_PMU_Set_EVTYPER:drv <- [DW_OP_LLVM_entry_value 1] $r0
	movw	r1, :lower16:.L.str.1
.Ltmp12:
	@DEBUG_VALUE: ETHOSU_PMU_Set_EVTYPER:num <- [DW_OP_LLVM_entry_value 1] $r1
	movt	r0, :upper16:.L.str
	movs	r2, #113
.Ltmp13:
	@DEBUG_VALUE: ETHOSU_PMU_Set_EVTYPER:type <- [DW_OP_LLVM_entry_value 1] $r2
	movt	r1, :upper16:.L.str.1
	bl	__aeabi_assert
.Ltmp14:
.Lfunc_end3:
	.size	ETHOSU_PMU_Set_EVTYPER, .Lfunc_end3-ETHOSU_PMU_Set_EVTYPER
	.cfi_endproc
	.cantunwind
	.fnend
                                        @ -- End function
	.section	.text.ETHOSU_PMU_Get_EVTYPER,"ax",%progbits
	.hidden	ETHOSU_PMU_Get_EVTYPER          @ -- Begin function ETHOSU_PMU_Get_EVTYPER
	.globl	ETHOSU_PMU_Get_EVTYPER
	.p2align	2
	.type	ETHOSU_PMU_Get_EVTYPER,%function
	.code	16                              @ @ETHOSU_PMU_Get_EVTYPER
	.thumb_func
ETHOSU_PMU_Get_EVTYPER:
.Lfunc_begin4:
	.loc	2 120 0                         @ ../../../../Library/StdDriver/src/npu/ethosu_pmu.c:120:0
	.fnstart
	.cfi_startproc
@ %bb.0:
	@DEBUG_VALUE: ETHOSU_PMU_Get_EVTYPER:drv <- $r0
	@DEBUG_VALUE: ETHOSU_PMU_Get_EVTYPER:num <- $r1
	@DEBUG_VALUE: ETHOSU_PMU_Get_EVTYPER:num <- $r1
	.save	{r7, lr}
	push	{r7, lr}
	.cfi_def_cfa_offset 8
	.cfi_offset lr, -4
	.cfi_offset r7, -8
	.pad	#8
	sub	sp, #8
	.cfi_def_cfa_offset 16
.Ltmp15:
	.loc	2 121 5 prologue_end            @ ../../../../Library/StdDriver/src/npu/ethosu_pmu.c:121:5
	cmp	r1, #4
	@DEBUG_VALUE: ETHOSU_PMU_Get_EVTYPER:drv <- $r0
	bhs.w	.LBB4_79
.Ltmp16:
@ %bb.1:
	@DEBUG_VALUE: ETHOSU_PMU_Get_EVTYPER:num <- $r1
	@DEBUG_VALUE: ETHOSU_PMU_Get_EVTYPER:drv <- $r0
	.loc	2 122 44                        @ ../../../../Library/StdDriver/src/npu/ethosu_pmu.c:122:44
	ldr	r0, [r0]
.Ltmp17:
	@DEBUG_VALUE: ETHOSU_PMU_Get_EVTYPER:drv <- [DW_OP_LLVM_entry_value 1] $r0
	.loc	2 122 49 is_stmt 0              @ ../../../../Library/StdDriver/src/npu/ethosu_pmu.c:122:49
	ldr	r0, [r0]
	.loc	2 122 69                        @ ../../../../Library/StdDriver/src/npu/ethosu_pmu.c:122:69
	add.w	r0, r0, r1, lsl #2
	ldr.w	r2, [r0, #896]
.Ltmp18:
	@DEBUG_VALUE: pmu_event_type:id <- $r2
	@DEBUG_VALUE: ETHOSU_PMU_Get_EVTYPER:val <- $r2
	.loc	2 61 5 is_stmt 1                @ ../../../../Library/StdDriver/src/npu/ethosu_pmu.c:61:5
	lsrs	r0, r2, #1
	cmp	r0, #216
	bhi.w	.LBB4_40
.Ltmp19:
@ %bb.2:
	@DEBUG_VALUE: ETHOSU_PMU_Get_EVTYPER:val <- $r2
	@DEBUG_VALUE: pmu_event_type:id <- $r2
	@DEBUG_VALUE: ETHOSU_PMU_Get_EVTYPER:num <- $r1
	@DEBUG_VALUE: ETHOSU_PMU_Get_EVTYPER:drv <- [DW_OP_LLVM_entry_value 1] $r0
	.loc	2 0 5 is_stmt 0                 @ ../../../../Library/StdDriver/src/npu/ethosu_pmu.c:0:5
	add.w	r1, r0, r2, lsl #2
.Ltmp20:
	@DEBUG_VALUE: ETHOSU_PMU_Get_EVTYPER:num <- [DW_OP_LLVM_entry_value 1] $r1
	movs	r0, #0
.LCPI4_2:
	tbh	[pc, r2, lsl #1]
.Ltmp21:
@ %bb.3:
.LJTI4_0:
	.short	(.LBB4_41-(.LCPI4_2+4))/2
	.short	(.LBB4_40-(.LCPI4_2+4))/2
	.short	(.LBB4_40-(.LCPI4_2+4))/2
	.short	(.LBB4_40-(.LCPI4_2+4))/2
	.short	(.LBB4_40-(.LCPI4_2+4))/2
	.short	(.LBB4_40-(.LCPI4_2+4))/2
	.short	(.LBB4_40-(.LCPI4_2+4))/2
	.short	(.LBB4_40-(.LCPI4_2+4))/2
	.short	(.LBB4_40-(.LCPI4_2+4))/2
	.short	(.LBB4_40-(.LCPI4_2+4))/2
	.short	(.LBB4_40-(.LCPI4_2+4))/2
	.short	(.LBB4_40-(.LCPI4_2+4))/2
	.short	(.LBB4_40-(.LCPI4_2+4))/2
	.short	(.LBB4_40-(.LCPI4_2+4))/2
	.short	(.LBB4_40-(.LCPI4_2+4))/2
	.short	(.LBB4_40-(.LCPI4_2+4))/2
	.short	(.LBB4_40-(.LCPI4_2+4))/2
	.short	(.LBB4_4-(.LCPI4_2+4))/2
	.short	(.LBB4_40-(.LCPI4_2+4))/2
	.short	(.LBB4_40-(.LCPI4_2+4))/2
	.short	(.LBB4_40-(.LCPI4_2+4))/2
	.short	(.LBB4_40-(.LCPI4_2+4))/2
	.short	(.LBB4_40-(.LCPI4_2+4))/2
	.short	(.LBB4_40-(.LCPI4_2+4))/2
	.short	(.LBB4_40-(.LCPI4_2+4))/2
	.short	(.LBB4_40-(.LCPI4_2+4))/2
	.short	(.LBB4_40-(.LCPI4_2+4))/2
	.short	(.LBB4_40-(.LCPI4_2+4))/2
	.short	(.LBB4_40-(.LCPI4_2+4))/2
	.short	(.LBB4_40-(.LCPI4_2+4))/2
	.short	(.LBB4_40-(.LCPI4_2+4))/2
	.short	(.LBB4_40-(.LCPI4_2+4))/2
	.short	(.LBB4_5-(.LCPI4_2+4))/2
	.short	(.LBB4_6-(.LCPI4_2+4))/2
	.short	(.LBB4_7-(.LCPI4_2+4))/2
	.short	(.LBB4_42-(.LCPI4_2+4))/2
	.short	(.LBB4_40-(.LCPI4_2+4))/2
	.short	(.LBB4_40-(.LCPI4_2+4))/2
	.short	(.LBB4_40-(.LCPI4_2+4))/2
	.short	(.LBB4_40-(.LCPI4_2+4))/2
	.short	(.LBB4_40-(.LCPI4_2+4))/2
	.short	(.LBB4_40-(.LCPI4_2+4))/2
	.short	(.LBB4_40-(.LCPI4_2+4))/2
	.short	(.LBB4_40-(.LCPI4_2+4))/2
	.short	(.LBB4_40-(.LCPI4_2+4))/2
	.short	(.LBB4_40-(.LCPI4_2+4))/2
	.short	(.LBB4_40-(.LCPI4_2+4))/2
	.short	(.LBB4_40-(.LCPI4_2+4))/2
	.short	(.LBB4_43-(.LCPI4_2+4))/2
	.short	(.LBB4_8-(.LCPI4_2+4))/2
	.short	(.LBB4_44-(.LCPI4_2+4))/2
	.short	(.LBB4_9-(.LCPI4_2+4))/2
	.short	(.LBB4_45-(.LCPI4_2+4))/2
	.short	(.LBB4_46-(.LCPI4_2+4))/2
	.short	(.LBB4_47-(.LCPI4_2+4))/2
	.short	(.LBB4_10-(.LCPI4_2+4))/2
	.short	(.LBB4_48-(.LCPI4_2+4))/2
	.short	(.LBB4_49-(.LCPI4_2+4))/2
	.short	(.LBB4_11-(.LCPI4_2+4))/2
	.short	(.LBB4_40-(.LCPI4_2+4))/2
	.short	(.LBB4_40-(.LCPI4_2+4))/2
	.short	(.LBB4_40-(.LCPI4_2+4))/2
	.short	(.LBB4_40-(.LCPI4_2+4))/2
	.short	(.LBB4_40-(.LCPI4_2+4))/2
	.short	(.LBB4_50-(.LCPI4_2+4))/2
	.short	(.LBB4_12-(.LCPI4_2+4))/2
	.short	(.LBB4_51-(.LCPI4_2+4))/2
	.short	(.LBB4_13-(.LCPI4_2+4))/2
	.short	(.LBB4_14-(.LCPI4_2+4))/2
	.short	(.LBB4_52-(.LCPI4_2+4))/2
	.short	(.LBB4_15-(.LCPI4_2+4))/2
	.short	(.LBB4_53-(.LCPI4_2+4))/2
	.short	(.LBB4_16-(.LCPI4_2+4))/2
	.short	(.LBB4_40-(.LCPI4_2+4))/2
	.short	(.LBB4_40-(.LCPI4_2+4))/2
	.short	(.LBB4_40-(.LCPI4_2+4))/2
	.short	(.LBB4_40-(.LCPI4_2+4))/2
	.short	(.LBB4_40-(.LCPI4_2+4))/2
	.short	(.LBB4_40-(.LCPI4_2+4))/2
	.short	(.LBB4_40-(.LCPI4_2+4))/2
	.short	(.LBB4_17-(.LCPI4_2+4))/2
	.short	(.LBB4_18-(.LCPI4_2+4))/2
	.short	(.LBB4_19-(.LCPI4_2+4))/2
	.short	(.LBB4_20-(.LCPI4_2+4))/2
	.short	(.LBB4_54-(.LCPI4_2+4))/2
	.short	(.LBB4_21-(.LCPI4_2+4))/2
	.short	(.LBB4_22-(.LCPI4_2+4))/2
	.short	(.LBB4_23-(.LCPI4_2+4))/2
	.short	(.LBB4_55-(.LCPI4_2+4))/2
	.short	(.LBB4_56-(.LCPI4_2+4))/2
	.short	(.LBB4_24-(.LCPI4_2+4))/2
	.short	(.LBB4_57-(.LCPI4_2+4))/2
	.short	(.LBB4_40-(.LCPI4_2+4))/2
	.short	(.LBB4_40-(.LCPI4_2+4))/2
	.short	(.LBB4_40-(.LCPI4_2+4))/2
	.short	(.LBB4_40-(.LCPI4_2+4))/2
	.short	(.LBB4_40-(.LCPI4_2+4))/2
	.short	(.LBB4_40-(.LCPI4_2+4))/2
	.short	(.LBB4_40-(.LCPI4_2+4))/2
	.short	(.LBB4_40-(.LCPI4_2+4))/2
	.short	(.LBB4_40-(.LCPI4_2+4))/2
	.short	(.LBB4_40-(.LCPI4_2+4))/2
	.short	(.LBB4_40-(.LCPI4_2+4))/2
	.short	(.LBB4_40-(.LCPI4_2+4))/2
	.short	(.LBB4_40-(.LCPI4_2+4))/2
	.short	(.LBB4_40-(.LCPI4_2+4))/2
	.short	(.LBB4_40-(.LCPI4_2+4))/2
	.short	(.LBB4_40-(.LCPI4_2+4))/2
	.short	(.LBB4_40-(.LCPI4_2+4))/2
	.short	(.LBB4_40-(.LCPI4_2+4))/2
	.short	(.LBB4_40-(.LCPI4_2+4))/2
	.short	(.LBB4_40-(.LCPI4_2+4))/2
	.short	(.LBB4_40-(.LCPI4_2+4))/2
	.short	(.LBB4_40-(.LCPI4_2+4))/2
	.short	(.LBB4_40-(.LCPI4_2+4))/2
	.short	(.LBB4_40-(.LCPI4_2+4))/2
	.short	(.LBB4_40-(.LCPI4_2+4))/2
	.short	(.LBB4_40-(.LCPI4_2+4))/2
	.short	(.LBB4_40-(.LCPI4_2+4))/2
	.short	(.LBB4_40-(.LCPI4_2+4))/2
	.short	(.LBB4_40-(.LCPI4_2+4))/2
	.short	(.LBB4_40-(.LCPI4_2+4))/2
	.short	(.LBB4_40-(.LCPI4_2+4))/2
	.short	(.LBB4_40-(.LCPI4_2+4))/2
	.short	(.LBB4_40-(.LCPI4_2+4))/2
	.short	(.LBB4_40-(.LCPI4_2+4))/2
	.short	(.LBB4_40-(.LCPI4_2+4))/2
	.short	(.LBB4_40-(.LCPI4_2+4))/2
	.short	(.LBB4_25-(.LCPI4_2+4))/2
	.short	(.LBB4_26-(.LCPI4_2+4))/2
	.short	(.LBB4_27-(.LCPI4_2+4))/2
	.short	(.LBB4_58-(.LCPI4_2+4))/2
	.short	(.LBB4_59-(.LCPI4_2+4))/2
	.short	(.LBB4_28-(.LCPI4_2+4))/2
	.short	(.LBB4_29-(.LCPI4_2+4))/2
	.short	(.LBB4_60-(.LCPI4_2+4))/2
	.short	(.LBB4_61-(.LCPI4_2+4))/2
	.short	(.LBB4_62-(.LCPI4_2+4))/2
	.short	(.LBB4_40-(.LCPI4_2+4))/2
	.short	(.LBB4_40-(.LCPI4_2+4))/2
	.short	(.LBB4_63-(.LCPI4_2+4))/2
	.short	(.LBB4_40-(.LCPI4_2+4))/2
	.short	(.LBB4_30-(.LCPI4_2+4))/2
	.short	(.LBB4_31-(.LCPI4_2+4))/2
	.short	(.LBB4_40-(.LCPI4_2+4))/2
	.short	(.LBB4_40-(.LCPI4_2+4))/2
	.short	(.LBB4_40-(.LCPI4_2+4))/2
	.short	(.LBB4_40-(.LCPI4_2+4))/2
	.short	(.LBB4_40-(.LCPI4_2+4))/2
	.short	(.LBB4_40-(.LCPI4_2+4))/2
	.short	(.LBB4_40-(.LCPI4_2+4))/2
	.short	(.LBB4_40-(.LCPI4_2+4))/2
	.short	(.LBB4_40-(.LCPI4_2+4))/2
	.short	(.LBB4_40-(.LCPI4_2+4))/2
	.short	(.LBB4_40-(.LCPI4_2+4))/2
	.short	(.LBB4_40-(.LCPI4_2+4))/2
	.short	(.LBB4_40-(.LCPI4_2+4))/2
	.short	(.LBB4_40-(.LCPI4_2+4))/2
	.short	(.LBB4_40-(.LCPI4_2+4))/2
	.short	(.LBB4_40-(.LCPI4_2+4))/2
	.short	(.LBB4_64-(.LCPI4_2+4))/2
	.short	(.LBB4_65-(.LCPI4_2+4))/2
	.short	(.LBB4_32-(.LCPI4_2+4))/2
	.short	(.LBB4_66-(.LCPI4_2+4))/2
	.short	(.LBB4_67-(.LCPI4_2+4))/2
	.short	(.LBB4_33-(.LCPI4_2+4))/2
	.short	(.LBB4_68-(.LCPI4_2+4))/2
	.short	(.LBB4_40-(.LCPI4_2+4))/2
	.short	(.LBB4_40-(.LCPI4_2+4))/2
	.short	(.LBB4_40-(.LCPI4_2+4))/2
	.short	(.LBB4_40-(.LCPI4_2+4))/2
	.short	(.LBB4_40-(.LCPI4_2+4))/2
	.short	(.LBB4_40-(.LCPI4_2+4))/2
	.short	(.LBB4_40-(.LCPI4_2+4))/2
	.short	(.LBB4_40-(.LCPI4_2+4))/2
	.short	(.LBB4_40-(.LCPI4_2+4))/2
	.short	(.LBB4_69-(.LCPI4_2+4))/2
	.short	(.LBB4_34-(.LCPI4_2+4))/2
	.short	(.LBB4_40-(.LCPI4_2+4))/2
	.short	(.LBB4_40-(.LCPI4_2+4))/2
	.short	(.LBB4_40-(.LCPI4_2+4))/2
	.short	(.LBB4_40-(.LCPI4_2+4))/2
	.short	(.LBB4_40-(.LCPI4_2+4))/2
	.short	(.LBB4_40-(.LCPI4_2+4))/2
	.short	(.LBB4_40-(.LCPI4_2+4))/2
	.short	(.LBB4_40-(.LCPI4_2+4))/2
	.short	(.LBB4_40-(.LCPI4_2+4))/2
	.short	(.LBB4_40-(.LCPI4_2+4))/2
	.short	(.LBB4_40-(.LCPI4_2+4))/2
	.short	(.LBB4_40-(.LCPI4_2+4))/2
	.short	(.LBB4_40-(.LCPI4_2+4))/2
	.short	(.LBB4_40-(.LCPI4_2+4))/2
	.short	(.LBB4_40-(.LCPI4_2+4))/2
	.short	(.LBB4_40-(.LCPI4_2+4))/2
	.short	(.LBB4_40-(.LCPI4_2+4))/2
	.short	(.LBB4_40-(.LCPI4_2+4))/2
	.short	(.LBB4_40-(.LCPI4_2+4))/2
	.short	(.LBB4_40-(.LCPI4_2+4))/2
	.short	(.LBB4_40-(.LCPI4_2+4))/2
	.short	(.LBB4_40-(.LCPI4_2+4))/2
	.short	(.LBB4_40-(.LCPI4_2+4))/2
	.short	(.LBB4_40-(.LCPI4_2+4))/2
	.short	(.LBB4_40-(.LCPI4_2+4))/2
	.short	(.LBB4_40-(.LCPI4_2+4))/2
	.short	(.LBB4_40-(.LCPI4_2+4))/2
	.short	(.LBB4_40-(.LCPI4_2+4))/2
	.short	(.LBB4_40-(.LCPI4_2+4))/2
	.short	(.LBB4_40-(.LCPI4_2+4))/2
	.short	(.LBB4_40-(.LCPI4_2+4))/2
	.short	(.LBB4_40-(.LCPI4_2+4))/2
	.short	(.LBB4_40-(.LCPI4_2+4))/2
	.short	(.LBB4_40-(.LCPI4_2+4))/2
	.short	(.LBB4_40-(.LCPI4_2+4))/2
	.short	(.LBB4_40-(.LCPI4_2+4))/2
	.short	(.LBB4_40-(.LCPI4_2+4))/2
	.short	(.LBB4_40-(.LCPI4_2+4))/2
	.short	(.LBB4_40-(.LCPI4_2+4))/2
	.short	(.LBB4_40-(.LCPI4_2+4))/2
	.short	(.LBB4_40-(.LCPI4_2+4))/2
	.short	(.LBB4_40-(.LCPI4_2+4))/2
	.short	(.LBB4_40-(.LCPI4_2+4))/2
	.short	(.LBB4_40-(.LCPI4_2+4))/2
	.short	(.LBB4_40-(.LCPI4_2+4))/2
	.short	(.LBB4_40-(.LCPI4_2+4))/2
	.short	(.LBB4_40-(.LCPI4_2+4))/2
	.short	(.LBB4_40-(.LCPI4_2+4))/2
	.short	(.LBB4_40-(.LCPI4_2+4))/2
	.short	(.LBB4_40-(.LCPI4_2+4))/2
	.short	(.LBB4_40-(.LCPI4_2+4))/2
	.short	(.LBB4_40-(.LCPI4_2+4))/2
	.short	(.LBB4_40-(.LCPI4_2+4))/2
	.short	(.LBB4_40-(.LCPI4_2+4))/2
	.short	(.LBB4_40-(.LCPI4_2+4))/2
	.short	(.LBB4_40-(.LCPI4_2+4))/2
	.short	(.LBB4_40-(.LCPI4_2+4))/2
	.short	(.LBB4_40-(.LCPI4_2+4))/2
	.short	(.LBB4_40-(.LCPI4_2+4))/2
	.short	(.LBB4_40-(.LCPI4_2+4))/2
	.short	(.LBB4_40-(.LCPI4_2+4))/2
	.short	(.LBB4_40-(.LCPI4_2+4))/2
	.short	(.LBB4_40-(.LCPI4_2+4))/2
	.short	(.LBB4_40-(.LCPI4_2+4))/2
	.short	(.LBB4_40-(.LCPI4_2+4))/2
	.short	(.LBB4_40-(.LCPI4_2+4))/2
	.short	(.LBB4_40-(.LCPI4_2+4))/2
	.short	(.LBB4_40-(.LCPI4_2+4))/2
	.short	(.LBB4_40-(.LCPI4_2+4))/2
	.short	(.LBB4_40-(.LCPI4_2+4))/2
	.short	(.LBB4_40-(.LCPI4_2+4))/2
	.short	(.LBB4_40-(.LCPI4_2+4))/2
	.short	(.LBB4_40-(.LCPI4_2+4))/2
	.short	(.LBB4_40-(.LCPI4_2+4))/2
	.short	(.LBB4_40-(.LCPI4_2+4))/2
	.short	(.LBB4_40-(.LCPI4_2+4))/2
	.short	(.LBB4_40-(.LCPI4_2+4))/2
	.short	(.LBB4_40-(.LCPI4_2+4))/2
	.short	(.LBB4_40-(.LCPI4_2+4))/2
	.short	(.LBB4_40-(.LCPI4_2+4))/2
	.short	(.LBB4_40-(.LCPI4_2+4))/2
	.short	(.LBB4_40-(.LCPI4_2+4))/2
	.short	(.LBB4_40-(.LCPI4_2+4))/2
	.short	(.LBB4_40-(.LCPI4_2+4))/2
	.short	(.LBB4_40-(.LCPI4_2+4))/2
	.short	(.LBB4_40-(.LCPI4_2+4))/2
	.short	(.LBB4_40-(.LCPI4_2+4))/2
	.short	(.LBB4_40-(.LCPI4_2+4))/2
	.short	(.LBB4_40-(.LCPI4_2+4))/2
	.short	(.LBB4_40-(.LCPI4_2+4))/2
	.short	(.LBB4_40-(.LCPI4_2+4))/2
	.short	(.LBB4_40-(.LCPI4_2+4))/2
	.short	(.LBB4_40-(.LCPI4_2+4))/2
	.short	(.LBB4_40-(.LCPI4_2+4))/2
	.short	(.LBB4_40-(.LCPI4_2+4))/2
	.short	(.LBB4_40-(.LCPI4_2+4))/2
	.short	(.LBB4_40-(.LCPI4_2+4))/2
	.short	(.LBB4_40-(.LCPI4_2+4))/2
	.short	(.LBB4_40-(.LCPI4_2+4))/2
	.short	(.LBB4_40-(.LCPI4_2+4))/2
	.short	(.LBB4_40-(.LCPI4_2+4))/2
	.short	(.LBB4_40-(.LCPI4_2+4))/2
	.short	(.LBB4_40-(.LCPI4_2+4))/2
	.short	(.LBB4_40-(.LCPI4_2+4))/2
	.short	(.LBB4_40-(.LCPI4_2+4))/2
	.short	(.LBB4_40-(.LCPI4_2+4))/2
	.short	(.LBB4_40-(.LCPI4_2+4))/2
	.short	(.LBB4_40-(.LCPI4_2+4))/2
	.short	(.LBB4_40-(.LCPI4_2+4))/2
	.short	(.LBB4_40-(.LCPI4_2+4))/2
	.short	(.LBB4_40-(.LCPI4_2+4))/2
	.short	(.LBB4_40-(.LCPI4_2+4))/2
	.short	(.LBB4_40-(.LCPI4_2+4))/2
	.short	(.LBB4_40-(.LCPI4_2+4))/2
	.short	(.LBB4_40-(.LCPI4_2+4))/2
	.short	(.LBB4_40-(.LCPI4_2+4))/2
	.short	(.LBB4_40-(.LCPI4_2+4))/2
	.short	(.LBB4_40-(.LCPI4_2+4))/2
	.short	(.LBB4_40-(.LCPI4_2+4))/2
	.short	(.LBB4_40-(.LCPI4_2+4))/2
	.short	(.LBB4_40-(.LCPI4_2+4))/2
	.short	(.LBB4_40-(.LCPI4_2+4))/2
	.short	(.LBB4_40-(.LCPI4_2+4))/2
	.short	(.LBB4_40-(.LCPI4_2+4))/2
	.short	(.LBB4_40-(.LCPI4_2+4))/2
	.short	(.LBB4_40-(.LCPI4_2+4))/2
	.short	(.LBB4_40-(.LCPI4_2+4))/2
	.short	(.LBB4_40-(.LCPI4_2+4))/2
	.short	(.LBB4_40-(.LCPI4_2+4))/2
	.short	(.LBB4_40-(.LCPI4_2+4))/2
	.short	(.LBB4_40-(.LCPI4_2+4))/2
	.short	(.LBB4_40-(.LCPI4_2+4))/2
	.short	(.LBB4_40-(.LCPI4_2+4))/2
	.short	(.LBB4_40-(.LCPI4_2+4))/2
	.short	(.LBB4_40-(.LCPI4_2+4))/2
	.short	(.LBB4_40-(.LCPI4_2+4))/2
	.short	(.LBB4_40-(.LCPI4_2+4))/2
	.short	(.LBB4_40-(.LCPI4_2+4))/2
	.short	(.LBB4_40-(.LCPI4_2+4))/2
	.short	(.LBB4_40-(.LCPI4_2+4))/2
	.short	(.LBB4_40-(.LCPI4_2+4))/2
	.short	(.LBB4_40-(.LCPI4_2+4))/2
	.short	(.LBB4_40-(.LCPI4_2+4))/2
	.short	(.LBB4_40-(.LCPI4_2+4))/2
	.short	(.LBB4_40-(.LCPI4_2+4))/2
	.short	(.LBB4_40-(.LCPI4_2+4))/2
	.short	(.LBB4_40-(.LCPI4_2+4))/2
	.short	(.LBB4_40-(.LCPI4_2+4))/2
	.short	(.LBB4_40-(.LCPI4_2+4))/2
	.short	(.LBB4_40-(.LCPI4_2+4))/2
	.short	(.LBB4_40-(.LCPI4_2+4))/2
	.short	(.LBB4_40-(.LCPI4_2+4))/2
	.short	(.LBB4_40-(.LCPI4_2+4))/2
	.short	(.LBB4_40-(.LCPI4_2+4))/2
	.short	(.LBB4_40-(.LCPI4_2+4))/2
	.short	(.LBB4_40-(.LCPI4_2+4))/2
	.short	(.LBB4_40-(.LCPI4_2+4))/2
	.short	(.LBB4_40-(.LCPI4_2+4))/2
	.short	(.LBB4_40-(.LCPI4_2+4))/2
	.short	(.LBB4_40-(.LCPI4_2+4))/2
	.short	(.LBB4_40-(.LCPI4_2+4))/2
	.short	(.LBB4_40-(.LCPI4_2+4))/2
	.short	(.LBB4_40-(.LCPI4_2+4))/2
	.short	(.LBB4_40-(.LCPI4_2+4))/2
	.short	(.LBB4_40-(.LCPI4_2+4))/2
	.short	(.LBB4_40-(.LCPI4_2+4))/2
	.short	(.LBB4_40-(.LCPI4_2+4))/2
	.short	(.LBB4_40-(.LCPI4_2+4))/2
	.short	(.LBB4_40-(.LCPI4_2+4))/2
	.short	(.LBB4_40-(.LCPI4_2+4))/2
	.short	(.LBB4_40-(.LCPI4_2+4))/2
	.short	(.LBB4_40-(.LCPI4_2+4))/2
	.short	(.LBB4_40-(.LCPI4_2+4))/2
	.short	(.LBB4_40-(.LCPI4_2+4))/2
	.short	(.LBB4_40-(.LCPI4_2+4))/2
	.short	(.LBB4_40-(.LCPI4_2+4))/2
	.short	(.LBB4_40-(.LCPI4_2+4))/2
	.short	(.LBB4_40-(.LCPI4_2+4))/2
	.short	(.LBB4_40-(.LCPI4_2+4))/2
	.short	(.LBB4_40-(.LCPI4_2+4))/2
	.short	(.LBB4_40-(.LCPI4_2+4))/2
	.short	(.LBB4_40-(.LCPI4_2+4))/2
	.short	(.LBB4_40-(.LCPI4_2+4))/2
	.short	(.LBB4_40-(.LCPI4_2+4))/2
	.short	(.LBB4_40-(.LCPI4_2+4))/2
	.short	(.LBB4_40-(.LCPI4_2+4))/2
	.short	(.LBB4_40-(.LCPI4_2+4))/2
	.short	(.LBB4_40-(.LCPI4_2+4))/2
	.short	(.LBB4_40-(.LCPI4_2+4))/2
	.short	(.LBB4_40-(.LCPI4_2+4))/2
	.short	(.LBB4_40-(.LCPI4_2+4))/2
	.short	(.LBB4_40-(.LCPI4_2+4))/2
	.short	(.LBB4_40-(.LCPI4_2+4))/2
	.short	(.LBB4_40-(.LCPI4_2+4))/2
	.short	(.LBB4_40-(.LCPI4_2+4))/2
	.short	(.LBB4_40-(.LCPI4_2+4))/2
	.short	(.LBB4_40-(.LCPI4_2+4))/2
	.short	(.LBB4_40-(.LCPI4_2+4))/2
	.short	(.LBB4_40-(.LCPI4_2+4))/2
	.short	(.LBB4_40-(.LCPI4_2+4))/2
	.short	(.LBB4_40-(.LCPI4_2+4))/2
	.short	(.LBB4_40-(.LCPI4_2+4))/2
	.short	(.LBB4_40-(.LCPI4_2+4))/2
	.short	(.LBB4_40-(.LCPI4_2+4))/2
	.short	(.LBB4_40-(.LCPI4_2+4))/2
	.short	(.LBB4_40-(.LCPI4_2+4))/2
	.short	(.LBB4_70-(.LCPI4_2+4))/2
	.short	(.LBB4_71-(.LCPI4_2+4))/2
	.short	(.LBB4_72-(.LCPI4_2+4))/2
	.short	(.LBB4_73-(.LCPI4_2+4))/2
	.short	(.LBB4_35-(.LCPI4_2+4))/2
	.short	(.LBB4_74-(.LCPI4_2+4))/2
	.short	(.LBB4_36-(.LCPI4_2+4))/2
	.short	(.LBB4_75-(.LCPI4_2+4))/2
	.short	(.LBB4_76-(.LCPI4_2+4))/2
	.short	(.LBB4_37-(.LCPI4_2+4))/2
	.short	(.LBB4_40-(.LCPI4_2+4))/2
	.short	(.LBB4_40-(.LCPI4_2+4))/2
	.short	(.LBB4_77-(.LCPI4_2+4))/2
	.short	(.LBB4_40-(.LCPI4_2+4))/2
	.short	(.LBB4_78-(.LCPI4_2+4))/2
	.short	(.LBB4_38-(.LCPI4_2+4))/2
	.short	(.LBB4_40-(.LCPI4_2+4))/2
	.short	(.LBB4_40-(.LCPI4_2+4))/2
	.short	(.LBB4_40-(.LCPI4_2+4))/2
	.short	(.LBB4_40-(.LCPI4_2+4))/2
	.short	(.LBB4_40-(.LCPI4_2+4))/2
	.short	(.LBB4_40-(.LCPI4_2+4))/2
	.short	(.LBB4_40-(.LCPI4_2+4))/2
	.short	(.LBB4_40-(.LCPI4_2+4))/2
	.short	(.LBB4_40-(.LCPI4_2+4))/2
	.short	(.LBB4_40-(.LCPI4_2+4))/2
	.short	(.LBB4_40-(.LCPI4_2+4))/2
	.short	(.LBB4_40-(.LCPI4_2+4))/2
	.short	(.LBB4_40-(.LCPI4_2+4))/2
	.short	(.LBB4_40-(.LCPI4_2+4))/2
	.short	(.LBB4_40-(.LCPI4_2+4))/2
	.short	(.LBB4_40-(.LCPI4_2+4))/2
	.short	(.LBB4_40-(.LCPI4_2+4))/2
	.short	(.LBB4_40-(.LCPI4_2+4))/2
	.short	(.LBB4_40-(.LCPI4_2+4))/2
	.short	(.LBB4_40-(.LCPI4_2+4))/2
	.short	(.LBB4_40-(.LCPI4_2+4))/2
	.short	(.LBB4_40-(.LCPI4_2+4))/2
	.short	(.LBB4_40-(.LCPI4_2+4))/2
	.short	(.LBB4_40-(.LCPI4_2+4))/2
	.short	(.LBB4_40-(.LCPI4_2+4))/2
	.short	(.LBB4_40-(.LCPI4_2+4))/2
	.short	(.LBB4_40-(.LCPI4_2+4))/2
	.short	(.LBB4_40-(.LCPI4_2+4))/2
	.short	(.LBB4_40-(.LCPI4_2+4))/2
	.short	(.LBB4_40-(.LCPI4_2+4))/2
	.short	(.LBB4_40-(.LCPI4_2+4))/2
	.short	(.LBB4_40-(.LCPI4_2+4))/2
	.short	(.LBB4_40-(.LCPI4_2+4))/2
	.short	(.LBB4_39-(.LCPI4_2+4))/2
	.p2align	1
.LBB4_4:
.Ltmp22:
	@DEBUG_VALUE: ETHOSU_PMU_Get_EVTYPER:val <- $r2
	@DEBUG_VALUE: ETHOSU_PMU_Get_EVTYPER:num <- [DW_OP_LLVM_entry_value 1] $r1
	@DEBUG_VALUE: ETHOSU_PMU_Get_EVTYPER:drv <- [DW_OP_LLVM_entry_value 1] $r0
	movs	r0, #1
.Ltmp23:
	@DEBUG_VALUE: ETHOSU_PMU_Get_EVTYPER:type <- $r0
	.loc	2 125 5 is_stmt 1               @ ../../../../Library/StdDriver/src/npu/ethosu_pmu.c:125:5
	add	sp, #8
	pop	{r7, pc}
.Ltmp24:
.LBB4_5:
	@DEBUG_VALUE: ETHOSU_PMU_Get_EVTYPER:val <- $r2
	@DEBUG_VALUE: ETHOSU_PMU_Get_EVTYPER:num <- [DW_OP_LLVM_entry_value 1] $r1
	@DEBUG_VALUE: ETHOSU_PMU_Get_EVTYPER:drv <- [DW_OP_LLVM_entry_value 1] $r0
	.loc	2 0 5 is_stmt 0                 @ ../../../../Library/StdDriver/src/npu/ethosu_pmu.c:0:5
	movs	r0, #2
.Ltmp25:
	@DEBUG_VALUE: ETHOSU_PMU_Get_EVTYPER:type <- $r0
	.loc	2 125 5                         @ ../../../../Library/StdDriver/src/npu/ethosu_pmu.c:125:5
	add	sp, #8
	pop	{r7, pc}
.Ltmp26:
.LBB4_6:
	@DEBUG_VALUE: ETHOSU_PMU_Get_EVTYPER:val <- $r2
	@DEBUG_VALUE: ETHOSU_PMU_Get_EVTYPER:num <- [DW_OP_LLVM_entry_value 1] $r1
	@DEBUG_VALUE: ETHOSU_PMU_Get_EVTYPER:drv <- [DW_OP_LLVM_entry_value 1] $r0
	.loc	2 0 5                           @ ../../../../Library/StdDriver/src/npu/ethosu_pmu.c:0:5
	movs	r0, #3
.Ltmp27:
	@DEBUG_VALUE: ETHOSU_PMU_Get_EVTYPER:type <- $r0
	.loc	2 125 5                         @ ../../../../Library/StdDriver/src/npu/ethosu_pmu.c:125:5
	add	sp, #8
	pop	{r7, pc}
.Ltmp28:
.LBB4_7:
	@DEBUG_VALUE: ETHOSU_PMU_Get_EVTYPER:val <- $r2
	@DEBUG_VALUE: ETHOSU_PMU_Get_EVTYPER:num <- [DW_OP_LLVM_entry_value 1] $r1
	@DEBUG_VALUE: ETHOSU_PMU_Get_EVTYPER:drv <- [DW_OP_LLVM_entry_value 1] $r0
	.loc	2 0 5                           @ ../../../../Library/StdDriver/src/npu/ethosu_pmu.c:0:5
	movs	r0, #4
.Ltmp29:
	@DEBUG_VALUE: ETHOSU_PMU_Get_EVTYPER:type <- $r0
	.loc	2 125 5                         @ ../../../../Library/StdDriver/src/npu/ethosu_pmu.c:125:5
	add	sp, #8
	pop	{r7, pc}
.Ltmp30:
.LBB4_8:
	@DEBUG_VALUE: ETHOSU_PMU_Get_EVTYPER:val <- $r2
	@DEBUG_VALUE: ETHOSU_PMU_Get_EVTYPER:num <- [DW_OP_LLVM_entry_value 1] $r1
	@DEBUG_VALUE: ETHOSU_PMU_Get_EVTYPER:drv <- [DW_OP_LLVM_entry_value 1] $r0
	.loc	2 0 5                           @ ../../../../Library/StdDriver/src/npu/ethosu_pmu.c:0:5
	movs	r0, #7
.Ltmp31:
	@DEBUG_VALUE: ETHOSU_PMU_Get_EVTYPER:type <- $r0
	.loc	2 125 5                         @ ../../../../Library/StdDriver/src/npu/ethosu_pmu.c:125:5
	add	sp, #8
	pop	{r7, pc}
.Ltmp32:
.LBB4_9:
	@DEBUG_VALUE: ETHOSU_PMU_Get_EVTYPER:val <- $r2
	@DEBUG_VALUE: ETHOSU_PMU_Get_EVTYPER:num <- [DW_OP_LLVM_entry_value 1] $r1
	@DEBUG_VALUE: ETHOSU_PMU_Get_EVTYPER:drv <- [DW_OP_LLVM_entry_value 1] $r0
	.loc	2 0 5                           @ ../../../../Library/StdDriver/src/npu/ethosu_pmu.c:0:5
	movs	r0, #9
.Ltmp33:
	@DEBUG_VALUE: ETHOSU_PMU_Get_EVTYPER:type <- $r0
	.loc	2 125 5                         @ ../../../../Library/StdDriver/src/npu/ethosu_pmu.c:125:5
	add	sp, #8
	pop	{r7, pc}
.Ltmp34:
.LBB4_10:
	@DEBUG_VALUE: ETHOSU_PMU_Get_EVTYPER:val <- $r2
	@DEBUG_VALUE: ETHOSU_PMU_Get_EVTYPER:num <- [DW_OP_LLVM_entry_value 1] $r1
	@DEBUG_VALUE: ETHOSU_PMU_Get_EVTYPER:drv <- [DW_OP_LLVM_entry_value 1] $r0
	.loc	2 0 5                           @ ../../../../Library/StdDriver/src/npu/ethosu_pmu.c:0:5
	movs	r0, #13
.Ltmp35:
	@DEBUG_VALUE: ETHOSU_PMU_Get_EVTYPER:type <- $r0
	.loc	2 125 5                         @ ../../../../Library/StdDriver/src/npu/ethosu_pmu.c:125:5
	add	sp, #8
	pop	{r7, pc}
.Ltmp36:
.LBB4_11:
	@DEBUG_VALUE: ETHOSU_PMU_Get_EVTYPER:val <- $r2
	@DEBUG_VALUE: ETHOSU_PMU_Get_EVTYPER:num <- [DW_OP_LLVM_entry_value 1] $r1
	@DEBUG_VALUE: ETHOSU_PMU_Get_EVTYPER:drv <- [DW_OP_LLVM_entry_value 1] $r0
	.loc	2 0 5                           @ ../../../../Library/StdDriver/src/npu/ethosu_pmu.c:0:5
	movs	r0, #16
.Ltmp37:
	@DEBUG_VALUE: ETHOSU_PMU_Get_EVTYPER:type <- $r0
	.loc	2 125 5                         @ ../../../../Library/StdDriver/src/npu/ethosu_pmu.c:125:5
	add	sp, #8
	pop	{r7, pc}
.Ltmp38:
.LBB4_12:
	@DEBUG_VALUE: ETHOSU_PMU_Get_EVTYPER:val <- $r2
	@DEBUG_VALUE: ETHOSU_PMU_Get_EVTYPER:num <- [DW_OP_LLVM_entry_value 1] $r1
	@DEBUG_VALUE: ETHOSU_PMU_Get_EVTYPER:drv <- [DW_OP_LLVM_entry_value 1] $r0
	.loc	2 0 5                           @ ../../../../Library/StdDriver/src/npu/ethosu_pmu.c:0:5
	movs	r0, #18
.Ltmp39:
	@DEBUG_VALUE: ETHOSU_PMU_Get_EVTYPER:type <- $r0
	.loc	2 125 5                         @ ../../../../Library/StdDriver/src/npu/ethosu_pmu.c:125:5
	add	sp, #8
	pop	{r7, pc}
.Ltmp40:
.LBB4_13:
	@DEBUG_VALUE: ETHOSU_PMU_Get_EVTYPER:val <- $r2
	@DEBUG_VALUE: ETHOSU_PMU_Get_EVTYPER:num <- [DW_OP_LLVM_entry_value 1] $r1
	@DEBUG_VALUE: ETHOSU_PMU_Get_EVTYPER:drv <- [DW_OP_LLVM_entry_value 1] $r0
	.loc	2 0 5                           @ ../../../../Library/StdDriver/src/npu/ethosu_pmu.c:0:5
	movs	r0, #20
.Ltmp41:
	@DEBUG_VALUE: ETHOSU_PMU_Get_EVTYPER:type <- $r0
	.loc	2 125 5                         @ ../../../../Library/StdDriver/src/npu/ethosu_pmu.c:125:5
	add	sp, #8
	pop	{r7, pc}
.Ltmp42:
.LBB4_14:
	@DEBUG_VALUE: ETHOSU_PMU_Get_EVTYPER:val <- $r2
	@DEBUG_VALUE: ETHOSU_PMU_Get_EVTYPER:num <- [DW_OP_LLVM_entry_value 1] $r1
	@DEBUG_VALUE: ETHOSU_PMU_Get_EVTYPER:drv <- [DW_OP_LLVM_entry_value 1] $r0
	.loc	2 0 5                           @ ../../../../Library/StdDriver/src/npu/ethosu_pmu.c:0:5
	movs	r0, #21
.Ltmp43:
	@DEBUG_VALUE: ETHOSU_PMU_Get_EVTYPER:type <- $r0
	.loc	2 125 5                         @ ../../../../Library/StdDriver/src/npu/ethosu_pmu.c:125:5
	add	sp, #8
	pop	{r7, pc}
.Ltmp44:
.LBB4_15:
	@DEBUG_VALUE: ETHOSU_PMU_Get_EVTYPER:val <- $r2
	@DEBUG_VALUE: ETHOSU_PMU_Get_EVTYPER:num <- [DW_OP_LLVM_entry_value 1] $r1
	@DEBUG_VALUE: ETHOSU_PMU_Get_EVTYPER:drv <- [DW_OP_LLVM_entry_value 1] $r0
	.loc	2 0 5                           @ ../../../../Library/StdDriver/src/npu/ethosu_pmu.c:0:5
	movs	r0, #23
.Ltmp45:
	@DEBUG_VALUE: ETHOSU_PMU_Get_EVTYPER:type <- $r0
	.loc	2 125 5                         @ ../../../../Library/StdDriver/src/npu/ethosu_pmu.c:125:5
	add	sp, #8
	pop	{r7, pc}
.Ltmp46:
.LBB4_16:
	@DEBUG_VALUE: ETHOSU_PMU_Get_EVTYPER:val <- $r2
	@DEBUG_VALUE: ETHOSU_PMU_Get_EVTYPER:num <- [DW_OP_LLVM_entry_value 1] $r1
	@DEBUG_VALUE: ETHOSU_PMU_Get_EVTYPER:drv <- [DW_OP_LLVM_entry_value 1] $r0
	.loc	2 0 5                           @ ../../../../Library/StdDriver/src/npu/ethosu_pmu.c:0:5
	movs	r0, #25
.Ltmp47:
	@DEBUG_VALUE: ETHOSU_PMU_Get_EVTYPER:type <- $r0
	.loc	2 125 5                         @ ../../../../Library/StdDriver/src/npu/ethosu_pmu.c:125:5
	add	sp, #8
	pop	{r7, pc}
.Ltmp48:
.LBB4_17:
	@DEBUG_VALUE: ETHOSU_PMU_Get_EVTYPER:val <- $r2
	@DEBUG_VALUE: ETHOSU_PMU_Get_EVTYPER:num <- [DW_OP_LLVM_entry_value 1] $r1
	@DEBUG_VALUE: ETHOSU_PMU_Get_EVTYPER:drv <- [DW_OP_LLVM_entry_value 1] $r0
	.loc	2 0 5                           @ ../../../../Library/StdDriver/src/npu/ethosu_pmu.c:0:5
	movs	r0, #26
.Ltmp49:
	@DEBUG_VALUE: ETHOSU_PMU_Get_EVTYPER:type <- $r0
	.loc	2 125 5                         @ ../../../../Library/StdDriver/src/npu/ethosu_pmu.c:125:5
	add	sp, #8
	pop	{r7, pc}
.Ltmp50:
.LBB4_18:
	@DEBUG_VALUE: ETHOSU_PMU_Get_EVTYPER:val <- $r2
	@DEBUG_VALUE: ETHOSU_PMU_Get_EVTYPER:num <- [DW_OP_LLVM_entry_value 1] $r1
	@DEBUG_VALUE: ETHOSU_PMU_Get_EVTYPER:drv <- [DW_OP_LLVM_entry_value 1] $r0
	.loc	2 0 5                           @ ../../../../Library/StdDriver/src/npu/ethosu_pmu.c:0:5
	movs	r0, #27
.Ltmp51:
	@DEBUG_VALUE: ETHOSU_PMU_Get_EVTYPER:type <- $r0
	.loc	2 125 5                         @ ../../../../Library/StdDriver/src/npu/ethosu_pmu.c:125:5
	add	sp, #8
	pop	{r7, pc}
.Ltmp52:
.LBB4_19:
	@DEBUG_VALUE: ETHOSU_PMU_Get_EVTYPER:val <- $r2
	@DEBUG_VALUE: ETHOSU_PMU_Get_EVTYPER:num <- [DW_OP_LLVM_entry_value 1] $r1
	@DEBUG_VALUE: ETHOSU_PMU_Get_EVTYPER:drv <- [DW_OP_LLVM_entry_value 1] $r0
	.loc	2 0 5                           @ ../../../../Library/StdDriver/src/npu/ethosu_pmu.c:0:5
	movs	r0, #28
.Ltmp53:
	@DEBUG_VALUE: ETHOSU_PMU_Get_EVTYPER:type <- $r0
	.loc	2 125 5                         @ ../../../../Library/StdDriver/src/npu/ethosu_pmu.c:125:5
	add	sp, #8
	pop	{r7, pc}
.Ltmp54:
.LBB4_20:
	@DEBUG_VALUE: ETHOSU_PMU_Get_EVTYPER:val <- $r2
	@DEBUG_VALUE: ETHOSU_PMU_Get_EVTYPER:num <- [DW_OP_LLVM_entry_value 1] $r1
	@DEBUG_VALUE: ETHOSU_PMU_Get_EVTYPER:drv <- [DW_OP_LLVM_entry_value 1] $r0
	.loc	2 0 5                           @ ../../../../Library/StdDriver/src/npu/ethosu_pmu.c:0:5
	movs	r0, #29
.Ltmp55:
	@DEBUG_VALUE: ETHOSU_PMU_Get_EVTYPER:type <- $r0
	.loc	2 125 5                         @ ../../../../Library/StdDriver/src/npu/ethosu_pmu.c:125:5
	add	sp, #8
	pop	{r7, pc}
.Ltmp56:
.LBB4_21:
	@DEBUG_VALUE: ETHOSU_PMU_Get_EVTYPER:val <- $r2
	@DEBUG_VALUE: ETHOSU_PMU_Get_EVTYPER:num <- [DW_OP_LLVM_entry_value 1] $r1
	@DEBUG_VALUE: ETHOSU_PMU_Get_EVTYPER:drv <- [DW_OP_LLVM_entry_value 1] $r0
	.loc	2 0 5                           @ ../../../../Library/StdDriver/src/npu/ethosu_pmu.c:0:5
	movs	r0, #31
.Ltmp57:
	@DEBUG_VALUE: ETHOSU_PMU_Get_EVTYPER:type <- $r0
	.loc	2 125 5                         @ ../../../../Library/StdDriver/src/npu/ethosu_pmu.c:125:5
	add	sp, #8
	pop	{r7, pc}
.Ltmp58:
.LBB4_22:
	@DEBUG_VALUE: ETHOSU_PMU_Get_EVTYPER:val <- $r2
	@DEBUG_VALUE: ETHOSU_PMU_Get_EVTYPER:num <- [DW_OP_LLVM_entry_value 1] $r1
	@DEBUG_VALUE: ETHOSU_PMU_Get_EVTYPER:drv <- [DW_OP_LLVM_entry_value 1] $r0
	.loc	2 0 5                           @ ../../../../Library/StdDriver/src/npu/ethosu_pmu.c:0:5
	movs	r0, #32
.Ltmp59:
	@DEBUG_VALUE: ETHOSU_PMU_Get_EVTYPER:type <- $r0
	.loc	2 125 5                         @ ../../../../Library/StdDriver/src/npu/ethosu_pmu.c:125:5
	add	sp, #8
	pop	{r7, pc}
.Ltmp60:
.LBB4_23:
	@DEBUG_VALUE: ETHOSU_PMU_Get_EVTYPER:val <- $r2
	@DEBUG_VALUE: ETHOSU_PMU_Get_EVTYPER:num <- [DW_OP_LLVM_entry_value 1] $r1
	@DEBUG_VALUE: ETHOSU_PMU_Get_EVTYPER:drv <- [DW_OP_LLVM_entry_value 1] $r0
	.loc	2 0 5                           @ ../../../../Library/StdDriver/src/npu/ethosu_pmu.c:0:5
	movs	r0, #33
.Ltmp61:
	@DEBUG_VALUE: ETHOSU_PMU_Get_EVTYPER:type <- $r0
	.loc	2 125 5                         @ ../../../../Library/StdDriver/src/npu/ethosu_pmu.c:125:5
	add	sp, #8
	pop	{r7, pc}
.Ltmp62:
.LBB4_24:
	@DEBUG_VALUE: ETHOSU_PMU_Get_EVTYPER:val <- $r2
	@DEBUG_VALUE: ETHOSU_PMU_Get_EVTYPER:num <- [DW_OP_LLVM_entry_value 1] $r1
	@DEBUG_VALUE: ETHOSU_PMU_Get_EVTYPER:drv <- [DW_OP_LLVM_entry_value 1] $r0
	.loc	2 0 5                           @ ../../../../Library/StdDriver/src/npu/ethosu_pmu.c:0:5
	movs	r0, #36
.Ltmp63:
	@DEBUG_VALUE: ETHOSU_PMU_Get_EVTYPER:type <- $r0
	.loc	2 125 5                         @ ../../../../Library/StdDriver/src/npu/ethosu_pmu.c:125:5
	add	sp, #8
	pop	{r7, pc}
.Ltmp64:
.LBB4_25:
	@DEBUG_VALUE: ETHOSU_PMU_Get_EVTYPER:val <- $r2
	@DEBUG_VALUE: ETHOSU_PMU_Get_EVTYPER:num <- [DW_OP_LLVM_entry_value 1] $r1
	@DEBUG_VALUE: ETHOSU_PMU_Get_EVTYPER:drv <- [DW_OP_LLVM_entry_value 1] $r0
	.loc	2 0 5                           @ ../../../../Library/StdDriver/src/npu/ethosu_pmu.c:0:5
	movs	r0, #38
.Ltmp65:
	@DEBUG_VALUE: ETHOSU_PMU_Get_EVTYPER:type <- $r0
	.loc	2 125 5                         @ ../../../../Library/StdDriver/src/npu/ethosu_pmu.c:125:5
	add	sp, #8
	pop	{r7, pc}
.Ltmp66:
.LBB4_26:
	@DEBUG_VALUE: ETHOSU_PMU_Get_EVTYPER:val <- $r2
	@DEBUG_VALUE: ETHOSU_PMU_Get_EVTYPER:num <- [DW_OP_LLVM_entry_value 1] $r1
	@DEBUG_VALUE: ETHOSU_PMU_Get_EVTYPER:drv <- [DW_OP_LLVM_entry_value 1] $r0
	.loc	2 0 5                           @ ../../../../Library/StdDriver/src/npu/ethosu_pmu.c:0:5
	movs	r0, #39
.Ltmp67:
	@DEBUG_VALUE: ETHOSU_PMU_Get_EVTYPER:type <- $r0
	.loc	2 125 5                         @ ../../../../Library/StdDriver/src/npu/ethosu_pmu.c:125:5
	add	sp, #8
	pop	{r7, pc}
.Ltmp68:
.LBB4_27:
	@DEBUG_VALUE: ETHOSU_PMU_Get_EVTYPER:val <- $r2
	@DEBUG_VALUE: ETHOSU_PMU_Get_EVTYPER:num <- [DW_OP_LLVM_entry_value 1] $r1
	@DEBUG_VALUE: ETHOSU_PMU_Get_EVTYPER:drv <- [DW_OP_LLVM_entry_value 1] $r0
	.loc	2 0 5                           @ ../../../../Library/StdDriver/src/npu/ethosu_pmu.c:0:5
	movs	r0, #40
.Ltmp69:
	@DEBUG_VALUE: ETHOSU_PMU_Get_EVTYPER:type <- $r0
	.loc	2 125 5                         @ ../../../../Library/StdDriver/src/npu/ethosu_pmu.c:125:5
	add	sp, #8
	pop	{r7, pc}
.Ltmp70:
.LBB4_28:
	@DEBUG_VALUE: ETHOSU_PMU_Get_EVTYPER:val <- $r2
	@DEBUG_VALUE: ETHOSU_PMU_Get_EVTYPER:num <- [DW_OP_LLVM_entry_value 1] $r1
	@DEBUG_VALUE: ETHOSU_PMU_Get_EVTYPER:drv <- [DW_OP_LLVM_entry_value 1] $r0
	.loc	2 0 5                           @ ../../../../Library/StdDriver/src/npu/ethosu_pmu.c:0:5
	movs	r0, #43
.Ltmp71:
	@DEBUG_VALUE: ETHOSU_PMU_Get_EVTYPER:type <- $r0
	.loc	2 125 5                         @ ../../../../Library/StdDriver/src/npu/ethosu_pmu.c:125:5
	add	sp, #8
	pop	{r7, pc}
.Ltmp72:
.LBB4_29:
	@DEBUG_VALUE: ETHOSU_PMU_Get_EVTYPER:val <- $r2
	@DEBUG_VALUE: ETHOSU_PMU_Get_EVTYPER:num <- [DW_OP_LLVM_entry_value 1] $r1
	@DEBUG_VALUE: ETHOSU_PMU_Get_EVTYPER:drv <- [DW_OP_LLVM_entry_value 1] $r0
	.loc	2 0 5                           @ ../../../../Library/StdDriver/src/npu/ethosu_pmu.c:0:5
	movs	r0, #44
.Ltmp73:
	@DEBUG_VALUE: ETHOSU_PMU_Get_EVTYPER:type <- $r0
	.loc	2 125 5                         @ ../../../../Library/StdDriver/src/npu/ethosu_pmu.c:125:5
	add	sp, #8
	pop	{r7, pc}
.Ltmp74:
.LBB4_30:
	@DEBUG_VALUE: ETHOSU_PMU_Get_EVTYPER:val <- $r2
	@DEBUG_VALUE: ETHOSU_PMU_Get_EVTYPER:num <- [DW_OP_LLVM_entry_value 1] $r1
	@DEBUG_VALUE: ETHOSU_PMU_Get_EVTYPER:drv <- [DW_OP_LLVM_entry_value 1] $r0
	.loc	2 0 5                           @ ../../../../Library/StdDriver/src/npu/ethosu_pmu.c:0:5
	movs	r0, #49
.Ltmp75:
	@DEBUG_VALUE: ETHOSU_PMU_Get_EVTYPER:type <- $r0
	.loc	2 125 5                         @ ../../../../Library/StdDriver/src/npu/ethosu_pmu.c:125:5
	add	sp, #8
	pop	{r7, pc}
.Ltmp76:
.LBB4_31:
	@DEBUG_VALUE: ETHOSU_PMU_Get_EVTYPER:val <- $r2
	@DEBUG_VALUE: ETHOSU_PMU_Get_EVTYPER:num <- [DW_OP_LLVM_entry_value 1] $r1
	@DEBUG_VALUE: ETHOSU_PMU_Get_EVTYPER:drv <- [DW_OP_LLVM_entry_value 1] $r0
	.loc	2 0 5                           @ ../../../../Library/StdDriver/src/npu/ethosu_pmu.c:0:5
	movs	r0, #50
.Ltmp77:
	@DEBUG_VALUE: ETHOSU_PMU_Get_EVTYPER:type <- $r0
	.loc	2 125 5                         @ ../../../../Library/StdDriver/src/npu/ethosu_pmu.c:125:5
	add	sp, #8
	pop	{r7, pc}
.Ltmp78:
.LBB4_32:
	@DEBUG_VALUE: ETHOSU_PMU_Get_EVTYPER:val <- $r2
	@DEBUG_VALUE: ETHOSU_PMU_Get_EVTYPER:num <- [DW_OP_LLVM_entry_value 1] $r1
	@DEBUG_VALUE: ETHOSU_PMU_Get_EVTYPER:drv <- [DW_OP_LLVM_entry_value 1] $r0
	.loc	2 0 5                           @ ../../../../Library/StdDriver/src/npu/ethosu_pmu.c:0:5
	movs	r0, #53
.Ltmp79:
	@DEBUG_VALUE: ETHOSU_PMU_Get_EVTYPER:type <- $r0
	.loc	2 125 5                         @ ../../../../Library/StdDriver/src/npu/ethosu_pmu.c:125:5
	add	sp, #8
	pop	{r7, pc}
.Ltmp80:
.LBB4_33:
	@DEBUG_VALUE: ETHOSU_PMU_Get_EVTYPER:val <- $r2
	@DEBUG_VALUE: ETHOSU_PMU_Get_EVTYPER:num <- [DW_OP_LLVM_entry_value 1] $r1
	@DEBUG_VALUE: ETHOSU_PMU_Get_EVTYPER:drv <- [DW_OP_LLVM_entry_value 1] $r0
	.loc	2 0 5                           @ ../../../../Library/StdDriver/src/npu/ethosu_pmu.c:0:5
	movs	r0, #56
.Ltmp81:
	@DEBUG_VALUE: ETHOSU_PMU_Get_EVTYPER:type <- $r0
	.loc	2 125 5                         @ ../../../../Library/StdDriver/src/npu/ethosu_pmu.c:125:5
	add	sp, #8
	pop	{r7, pc}
.Ltmp82:
.LBB4_34:
	@DEBUG_VALUE: ETHOSU_PMU_Get_EVTYPER:val <- $r2
	@DEBUG_VALUE: ETHOSU_PMU_Get_EVTYPER:num <- [DW_OP_LLVM_entry_value 1] $r1
	@DEBUG_VALUE: ETHOSU_PMU_Get_EVTYPER:drv <- [DW_OP_LLVM_entry_value 1] $r0
	.loc	2 0 5                           @ ../../../../Library/StdDriver/src/npu/ethosu_pmu.c:0:5
	movs	r0, #59
.Ltmp83:
	@DEBUG_VALUE: ETHOSU_PMU_Get_EVTYPER:type <- $r0
	.loc	2 125 5                         @ ../../../../Library/StdDriver/src/npu/ethosu_pmu.c:125:5
	add	sp, #8
	pop	{r7, pc}
.Ltmp84:
.LBB4_35:
	@DEBUG_VALUE: ETHOSU_PMU_Get_EVTYPER:val <- $r2
	@DEBUG_VALUE: ETHOSU_PMU_Get_EVTYPER:num <- [DW_OP_LLVM_entry_value 1] $r1
	@DEBUG_VALUE: ETHOSU_PMU_Get_EVTYPER:drv <- [DW_OP_LLVM_entry_value 1] $r0
	.loc	2 0 5                           @ ../../../../Library/StdDriver/src/npu/ethosu_pmu.c:0:5
	movs	r0, #64
.Ltmp85:
	@DEBUG_VALUE: ETHOSU_PMU_Get_EVTYPER:type <- $r0
	.loc	2 125 5                         @ ../../../../Library/StdDriver/src/npu/ethosu_pmu.c:125:5
	add	sp, #8
	pop	{r7, pc}
.Ltmp86:
.LBB4_36:
	@DEBUG_VALUE: ETHOSU_PMU_Get_EVTYPER:val <- $r2
	@DEBUG_VALUE: ETHOSU_PMU_Get_EVTYPER:num <- [DW_OP_LLVM_entry_value 1] $r1
	@DEBUG_VALUE: ETHOSU_PMU_Get_EVTYPER:drv <- [DW_OP_LLVM_entry_value 1] $r0
	.loc	2 0 5                           @ ../../../../Library/StdDriver/src/npu/ethosu_pmu.c:0:5
	movs	r0, #66
.Ltmp87:
	@DEBUG_VALUE: ETHOSU_PMU_Get_EVTYPER:type <- $r0
	.loc	2 125 5                         @ ../../../../Library/StdDriver/src/npu/ethosu_pmu.c:125:5
	add	sp, #8
	pop	{r7, pc}
.Ltmp88:
.LBB4_37:
	@DEBUG_VALUE: ETHOSU_PMU_Get_EVTYPER:val <- $r2
	@DEBUG_VALUE: ETHOSU_PMU_Get_EVTYPER:num <- [DW_OP_LLVM_entry_value 1] $r1
	@DEBUG_VALUE: ETHOSU_PMU_Get_EVTYPER:drv <- [DW_OP_LLVM_entry_value 1] $r0
	.loc	2 0 5                           @ ../../../../Library/StdDriver/src/npu/ethosu_pmu.c:0:5
	movs	r0, #69
.Ltmp89:
	@DEBUG_VALUE: ETHOSU_PMU_Get_EVTYPER:type <- $r0
	.loc	2 125 5                         @ ../../../../Library/StdDriver/src/npu/ethosu_pmu.c:125:5
	add	sp, #8
	pop	{r7, pc}
.Ltmp90:
.LBB4_38:
	@DEBUG_VALUE: ETHOSU_PMU_Get_EVTYPER:val <- $r2
	@DEBUG_VALUE: ETHOSU_PMU_Get_EVTYPER:num <- [DW_OP_LLVM_entry_value 1] $r1
	@DEBUG_VALUE: ETHOSU_PMU_Get_EVTYPER:drv <- [DW_OP_LLVM_entry_value 1] $r0
	.loc	2 0 5                           @ ../../../../Library/StdDriver/src/npu/ethosu_pmu.c:0:5
	movs	r0, #72
.Ltmp91:
	@DEBUG_VALUE: ETHOSU_PMU_Get_EVTYPER:type <- $r0
	.loc	2 125 5                         @ ../../../../Library/StdDriver/src/npu/ethosu_pmu.c:125:5
	add	sp, #8
	pop	{r7, pc}
.Ltmp92:
.LBB4_39:
	@DEBUG_VALUE: ETHOSU_PMU_Get_EVTYPER:val <- $r2
	@DEBUG_VALUE: ETHOSU_PMU_Get_EVTYPER:num <- [DW_OP_LLVM_entry_value 1] $r1
	@DEBUG_VALUE: ETHOSU_PMU_Get_EVTYPER:drv <- [DW_OP_LLVM_entry_value 1] $r0
	.loc	2 0 5                           @ ../../../../Library/StdDriver/src/npu/ethosu_pmu.c:0:5
	movs	r0, #73
.Ltmp93:
	@DEBUG_VALUE: ETHOSU_PMU_Get_EVTYPER:type <- $r0
	.loc	2 125 5                         @ ../../../../Library/StdDriver/src/npu/ethosu_pmu.c:125:5
	add	sp, #8
	pop	{r7, pc}
.Ltmp94:
.LBB4_40:
	@DEBUG_VALUE: ETHOSU_PMU_Get_EVTYPER:val <- $r2
	@DEBUG_VALUE: pmu_event_type:id <- $r2
	@DEBUG_VALUE: ETHOSU_PMU_Get_EVTYPER:drv <- [DW_OP_LLVM_entry_value 1] $r0
	.loc	2 66 13 is_stmt 1               @ ../../../../Library/StdDriver/src/npu/ethosu_pmu.c:66:13
	adr	r0, .LCPI4_0
	mov.w	r12, #66
	add.w	r3, r0, #39
	movw	r0, :lower16:__stderr
	movt	r0, :upper16:__stderr
	adr	r1, .LCPI4_1
	str.w	r12, [sp]
	bl	__2fprintf
.Ltmp95:
	.loc	2 0 13 is_stmt 0                @ ../../../../Library/StdDriver/src/npu/ethosu_pmu.c:0:13
	movs	r0, #74
.Ltmp96:
.LBB4_41:
	@DEBUG_VALUE: ETHOSU_PMU_Get_EVTYPER:drv <- [DW_OP_LLVM_entry_value 1] $r0
	@DEBUG_VALUE: ETHOSU_PMU_Get_EVTYPER:type <- $r0
	.loc	2 125 5 is_stmt 1               @ ../../../../Library/StdDriver/src/npu/ethosu_pmu.c:125:5
	add	sp, #8
	pop	{r7, pc}
.Ltmp97:
.LBB4_42:
	@DEBUG_VALUE: ETHOSU_PMU_Get_EVTYPER:val <- $r2
	@DEBUG_VALUE: ETHOSU_PMU_Get_EVTYPER:num <- [DW_OP_LLVM_entry_value 1] $r1
	@DEBUG_VALUE: ETHOSU_PMU_Get_EVTYPER:drv <- [DW_OP_LLVM_entry_value 1] $r0
	.loc	2 0 5 is_stmt 0                 @ ../../../../Library/StdDriver/src/npu/ethosu_pmu.c:0:5
	movs	r0, #5
.Ltmp98:
	@DEBUG_VALUE: ETHOSU_PMU_Get_EVTYPER:type <- $r0
	.loc	2 125 5                         @ ../../../../Library/StdDriver/src/npu/ethosu_pmu.c:125:5
	add	sp, #8
	pop	{r7, pc}
.Ltmp99:
.LBB4_43:
	@DEBUG_VALUE: ETHOSU_PMU_Get_EVTYPER:val <- $r2
	@DEBUG_VALUE: ETHOSU_PMU_Get_EVTYPER:num <- [DW_OP_LLVM_entry_value 1] $r1
	@DEBUG_VALUE: ETHOSU_PMU_Get_EVTYPER:drv <- [DW_OP_LLVM_entry_value 1] $r0
	.loc	2 0 5                           @ ../../../../Library/StdDriver/src/npu/ethosu_pmu.c:0:5
	movs	r0, #6
.Ltmp100:
	@DEBUG_VALUE: ETHOSU_PMU_Get_EVTYPER:type <- $r0
	.loc	2 125 5                         @ ../../../../Library/StdDriver/src/npu/ethosu_pmu.c:125:5
	add	sp, #8
	pop	{r7, pc}
.Ltmp101:
.LBB4_44:
	@DEBUG_VALUE: ETHOSU_PMU_Get_EVTYPER:val <- $r2
	@DEBUG_VALUE: ETHOSU_PMU_Get_EVTYPER:num <- [DW_OP_LLVM_entry_value 1] $r1
	@DEBUG_VALUE: ETHOSU_PMU_Get_EVTYPER:drv <- [DW_OP_LLVM_entry_value 1] $r0
	.loc	2 0 5                           @ ../../../../Library/StdDriver/src/npu/ethosu_pmu.c:0:5
	movs	r0, #8
.Ltmp102:
	@DEBUG_VALUE: ETHOSU_PMU_Get_EVTYPER:type <- $r0
	.loc	2 125 5                         @ ../../../../Library/StdDriver/src/npu/ethosu_pmu.c:125:5
	add	sp, #8
	pop	{r7, pc}
.Ltmp103:
.LBB4_45:
	@DEBUG_VALUE: ETHOSU_PMU_Get_EVTYPER:val <- $r2
	@DEBUG_VALUE: ETHOSU_PMU_Get_EVTYPER:num <- [DW_OP_LLVM_entry_value 1] $r1
	@DEBUG_VALUE: ETHOSU_PMU_Get_EVTYPER:drv <- [DW_OP_LLVM_entry_value 1] $r0
	.loc	2 0 5                           @ ../../../../Library/StdDriver/src/npu/ethosu_pmu.c:0:5
	movs	r0, #10
.Ltmp104:
	@DEBUG_VALUE: ETHOSU_PMU_Get_EVTYPER:type <- $r0
	.loc	2 125 5                         @ ../../../../Library/StdDriver/src/npu/ethosu_pmu.c:125:5
	add	sp, #8
	pop	{r7, pc}
.Ltmp105:
.LBB4_46:
	@DEBUG_VALUE: ETHOSU_PMU_Get_EVTYPER:val <- $r2
	@DEBUG_VALUE: ETHOSU_PMU_Get_EVTYPER:num <- [DW_OP_LLVM_entry_value 1] $r1
	@DEBUG_VALUE: ETHOSU_PMU_Get_EVTYPER:drv <- [DW_OP_LLVM_entry_value 1] $r0
	.loc	2 0 5                           @ ../../../../Library/StdDriver/src/npu/ethosu_pmu.c:0:5
	movs	r0, #11
.Ltmp106:
	@DEBUG_VALUE: ETHOSU_PMU_Get_EVTYPER:type <- $r0
	.loc	2 125 5                         @ ../../../../Library/StdDriver/src/npu/ethosu_pmu.c:125:5
	add	sp, #8
	pop	{r7, pc}
.Ltmp107:
.LBB4_47:
	@DEBUG_VALUE: ETHOSU_PMU_Get_EVTYPER:val <- $r2
	@DEBUG_VALUE: ETHOSU_PMU_Get_EVTYPER:num <- [DW_OP_LLVM_entry_value 1] $r1
	@DEBUG_VALUE: ETHOSU_PMU_Get_EVTYPER:drv <- [DW_OP_LLVM_entry_value 1] $r0
	.loc	2 0 5                           @ ../../../../Library/StdDriver/src/npu/ethosu_pmu.c:0:5
	movs	r0, #12
.Ltmp108:
	@DEBUG_VALUE: ETHOSU_PMU_Get_EVTYPER:type <- $r0
	.loc	2 125 5                         @ ../../../../Library/StdDriver/src/npu/ethosu_pmu.c:125:5
	add	sp, #8
	pop	{r7, pc}
.Ltmp109:
.LBB4_48:
	@DEBUG_VALUE: ETHOSU_PMU_Get_EVTYPER:val <- $r2
	@DEBUG_VALUE: ETHOSU_PMU_Get_EVTYPER:num <- [DW_OP_LLVM_entry_value 1] $r1
	@DEBUG_VALUE: ETHOSU_PMU_Get_EVTYPER:drv <- [DW_OP_LLVM_entry_value 1] $r0
	.loc	2 0 5                           @ ../../../../Library/StdDriver/src/npu/ethosu_pmu.c:0:5
	movs	r0, #14
.Ltmp110:
	@DEBUG_VALUE: ETHOSU_PMU_Get_EVTYPER:type <- $r0
	.loc	2 125 5                         @ ../../../../Library/StdDriver/src/npu/ethosu_pmu.c:125:5
	add	sp, #8
	pop	{r7, pc}
.Ltmp111:
.LBB4_49:
	@DEBUG_VALUE: ETHOSU_PMU_Get_EVTYPER:val <- $r2
	@DEBUG_VALUE: ETHOSU_PMU_Get_EVTYPER:num <- [DW_OP_LLVM_entry_value 1] $r1
	@DEBUG_VALUE: ETHOSU_PMU_Get_EVTYPER:drv <- [DW_OP_LLVM_entry_value 1] $r0
	.loc	2 0 5                           @ ../../../../Library/StdDriver/src/npu/ethosu_pmu.c:0:5
	movs	r0, #15
.Ltmp112:
	@DEBUG_VALUE: ETHOSU_PMU_Get_EVTYPER:type <- $r0
	.loc	2 125 5                         @ ../../../../Library/StdDriver/src/npu/ethosu_pmu.c:125:5
	add	sp, #8
	pop	{r7, pc}
.Ltmp113:
.LBB4_50:
	@DEBUG_VALUE: ETHOSU_PMU_Get_EVTYPER:val <- $r2
	@DEBUG_VALUE: ETHOSU_PMU_Get_EVTYPER:num <- [DW_OP_LLVM_entry_value 1] $r1
	@DEBUG_VALUE: ETHOSU_PMU_Get_EVTYPER:drv <- [DW_OP_LLVM_entry_value 1] $r0
	.loc	2 0 5                           @ ../../../../Library/StdDriver/src/npu/ethosu_pmu.c:0:5
	movs	r0, #17
.Ltmp114:
	@DEBUG_VALUE: ETHOSU_PMU_Get_EVTYPER:type <- $r0
	.loc	2 125 5                         @ ../../../../Library/StdDriver/src/npu/ethosu_pmu.c:125:5
	add	sp, #8
	pop	{r7, pc}
.Ltmp115:
.LBB4_51:
	@DEBUG_VALUE: ETHOSU_PMU_Get_EVTYPER:val <- $r2
	@DEBUG_VALUE: ETHOSU_PMU_Get_EVTYPER:num <- [DW_OP_LLVM_entry_value 1] $r1
	@DEBUG_VALUE: ETHOSU_PMU_Get_EVTYPER:drv <- [DW_OP_LLVM_entry_value 1] $r0
	.loc	2 0 5                           @ ../../../../Library/StdDriver/src/npu/ethosu_pmu.c:0:5
	movs	r0, #19
.Ltmp116:
	@DEBUG_VALUE: ETHOSU_PMU_Get_EVTYPER:type <- $r0
	.loc	2 125 5                         @ ../../../../Library/StdDriver/src/npu/ethosu_pmu.c:125:5
	add	sp, #8
	pop	{r7, pc}
.Ltmp117:
.LBB4_52:
	@DEBUG_VALUE: ETHOSU_PMU_Get_EVTYPER:val <- $r2
	@DEBUG_VALUE: ETHOSU_PMU_Get_EVTYPER:num <- [DW_OP_LLVM_entry_value 1] $r1
	@DEBUG_VALUE: ETHOSU_PMU_Get_EVTYPER:drv <- [DW_OP_LLVM_entry_value 1] $r0
	.loc	2 0 5                           @ ../../../../Library/StdDriver/src/npu/ethosu_pmu.c:0:5
	movs	r0, #22
.Ltmp118:
	@DEBUG_VALUE: ETHOSU_PMU_Get_EVTYPER:type <- $r0
	.loc	2 125 5                         @ ../../../../Library/StdDriver/src/npu/ethosu_pmu.c:125:5
	add	sp, #8
	pop	{r7, pc}
.Ltmp119:
.LBB4_53:
	@DEBUG_VALUE: ETHOSU_PMU_Get_EVTYPER:val <- $r2
	@DEBUG_VALUE: ETHOSU_PMU_Get_EVTYPER:num <- [DW_OP_LLVM_entry_value 1] $r1
	@DEBUG_VALUE: ETHOSU_PMU_Get_EVTYPER:drv <- [DW_OP_LLVM_entry_value 1] $r0
	.loc	2 0 5                           @ ../../../../Library/StdDriver/src/npu/ethosu_pmu.c:0:5
	movs	r0, #24
.Ltmp120:
	@DEBUG_VALUE: ETHOSU_PMU_Get_EVTYPER:type <- $r0
	.loc	2 125 5                         @ ../../../../Library/StdDriver/src/npu/ethosu_pmu.c:125:5
	add	sp, #8
	pop	{r7, pc}
.Ltmp121:
.LBB4_54:
	@DEBUG_VALUE: ETHOSU_PMU_Get_EVTYPER:val <- $r2
	@DEBUG_VALUE: ETHOSU_PMU_Get_EVTYPER:num <- [DW_OP_LLVM_entry_value 1] $r1
	@DEBUG_VALUE: ETHOSU_PMU_Get_EVTYPER:drv <- [DW_OP_LLVM_entry_value 1] $r0
	.loc	2 0 5                           @ ../../../../Library/StdDriver/src/npu/ethosu_pmu.c:0:5
	movs	r0, #30
.Ltmp122:
	@DEBUG_VALUE: ETHOSU_PMU_Get_EVTYPER:type <- $r0
	.loc	2 125 5                         @ ../../../../Library/StdDriver/src/npu/ethosu_pmu.c:125:5
	add	sp, #8
	pop	{r7, pc}
.Ltmp123:
.LBB4_55:
	@DEBUG_VALUE: ETHOSU_PMU_Get_EVTYPER:val <- $r2
	@DEBUG_VALUE: ETHOSU_PMU_Get_EVTYPER:num <- [DW_OP_LLVM_entry_value 1] $r1
	@DEBUG_VALUE: ETHOSU_PMU_Get_EVTYPER:drv <- [DW_OP_LLVM_entry_value 1] $r0
	.loc	2 0 5                           @ ../../../../Library/StdDriver/src/npu/ethosu_pmu.c:0:5
	movs	r0, #34
.Ltmp124:
	@DEBUG_VALUE: ETHOSU_PMU_Get_EVTYPER:type <- $r0
	.loc	2 125 5                         @ ../../../../Library/StdDriver/src/npu/ethosu_pmu.c:125:5
	add	sp, #8
	pop	{r7, pc}
.Ltmp125:
.LBB4_56:
	@DEBUG_VALUE: ETHOSU_PMU_Get_EVTYPER:val <- $r2
	@DEBUG_VALUE: ETHOSU_PMU_Get_EVTYPER:num <- [DW_OP_LLVM_entry_value 1] $r1
	@DEBUG_VALUE: ETHOSU_PMU_Get_EVTYPER:drv <- [DW_OP_LLVM_entry_value 1] $r0
	.loc	2 0 5                           @ ../../../../Library/StdDriver/src/npu/ethosu_pmu.c:0:5
	movs	r0, #35
.Ltmp126:
	@DEBUG_VALUE: ETHOSU_PMU_Get_EVTYPER:type <- $r0
	.loc	2 125 5                         @ ../../../../Library/StdDriver/src/npu/ethosu_pmu.c:125:5
	add	sp, #8
	pop	{r7, pc}
.Ltmp127:
.LBB4_57:
	@DEBUG_VALUE: ETHOSU_PMU_Get_EVTYPER:val <- $r2
	@DEBUG_VALUE: ETHOSU_PMU_Get_EVTYPER:num <- [DW_OP_LLVM_entry_value 1] $r1
	@DEBUG_VALUE: ETHOSU_PMU_Get_EVTYPER:drv <- [DW_OP_LLVM_entry_value 1] $r0
	.loc	2 0 5                           @ ../../../../Library/StdDriver/src/npu/ethosu_pmu.c:0:5
	movs	r0, #37
.Ltmp128:
	@DEBUG_VALUE: ETHOSU_PMU_Get_EVTYPER:type <- $r0
	.loc	2 125 5                         @ ../../../../Library/StdDriver/src/npu/ethosu_pmu.c:125:5
	add	sp, #8
	pop	{r7, pc}
.Ltmp129:
.LBB4_58:
	@DEBUG_VALUE: ETHOSU_PMU_Get_EVTYPER:val <- $r2
	@DEBUG_VALUE: ETHOSU_PMU_Get_EVTYPER:num <- [DW_OP_LLVM_entry_value 1] $r1
	@DEBUG_VALUE: ETHOSU_PMU_Get_EVTYPER:drv <- [DW_OP_LLVM_entry_value 1] $r0
	.loc	2 0 5                           @ ../../../../Library/StdDriver/src/npu/ethosu_pmu.c:0:5
	movs	r0, #41
.Ltmp130:
	@DEBUG_VALUE: ETHOSU_PMU_Get_EVTYPER:type <- $r0
	.loc	2 125 5                         @ ../../../../Library/StdDriver/src/npu/ethosu_pmu.c:125:5
	add	sp, #8
	pop	{r7, pc}
.Ltmp131:
.LBB4_59:
	@DEBUG_VALUE: ETHOSU_PMU_Get_EVTYPER:val <- $r2
	@DEBUG_VALUE: ETHOSU_PMU_Get_EVTYPER:num <- [DW_OP_LLVM_entry_value 1] $r1
	@DEBUG_VALUE: ETHOSU_PMU_Get_EVTYPER:drv <- [DW_OP_LLVM_entry_value 1] $r0
	.loc	2 0 5                           @ ../../../../Library/StdDriver/src/npu/ethosu_pmu.c:0:5
	movs	r0, #42
.Ltmp132:
	@DEBUG_VALUE: ETHOSU_PMU_Get_EVTYPER:type <- $r0
	.loc	2 125 5                         @ ../../../../Library/StdDriver/src/npu/ethosu_pmu.c:125:5
	add	sp, #8
	pop	{r7, pc}
.Ltmp133:
.LBB4_60:
	@DEBUG_VALUE: ETHOSU_PMU_Get_EVTYPER:val <- $r2
	@DEBUG_VALUE: ETHOSU_PMU_Get_EVTYPER:num <- [DW_OP_LLVM_entry_value 1] $r1
	@DEBUG_VALUE: ETHOSU_PMU_Get_EVTYPER:drv <- [DW_OP_LLVM_entry_value 1] $r0
	.loc	2 0 5                           @ ../../../../Library/StdDriver/src/npu/ethosu_pmu.c:0:5
	movs	r0, #45
.Ltmp134:
	@DEBUG_VALUE: ETHOSU_PMU_Get_EVTYPER:type <- $r0
	.loc	2 125 5                         @ ../../../../Library/StdDriver/src/npu/ethosu_pmu.c:125:5
	add	sp, #8
	pop	{r7, pc}
.Ltmp135:
.LBB4_61:
	@DEBUG_VALUE: ETHOSU_PMU_Get_EVTYPER:val <- $r2
	@DEBUG_VALUE: ETHOSU_PMU_Get_EVTYPER:num <- [DW_OP_LLVM_entry_value 1] $r1
	@DEBUG_VALUE: ETHOSU_PMU_Get_EVTYPER:drv <- [DW_OP_LLVM_entry_value 1] $r0
	.loc	2 0 5                           @ ../../../../Library/StdDriver/src/npu/ethosu_pmu.c:0:5
	movs	r0, #46
.Ltmp136:
	@DEBUG_VALUE: ETHOSU_PMU_Get_EVTYPER:type <- $r0
	.loc	2 125 5                         @ ../../../../Library/StdDriver/src/npu/ethosu_pmu.c:125:5
	add	sp, #8
	pop	{r7, pc}
.Ltmp137:
.LBB4_62:
	@DEBUG_VALUE: ETHOSU_PMU_Get_EVTYPER:val <- $r2
	@DEBUG_VALUE: ETHOSU_PMU_Get_EVTYPER:num <- [DW_OP_LLVM_entry_value 1] $r1
	@DEBUG_VALUE: ETHOSU_PMU_Get_EVTYPER:drv <- [DW_OP_LLVM_entry_value 1] $r0
	.loc	2 0 5                           @ ../../../../Library/StdDriver/src/npu/ethosu_pmu.c:0:5
	movs	r0, #47
.Ltmp138:
	@DEBUG_VALUE: ETHOSU_PMU_Get_EVTYPER:type <- $r0
	.loc	2 125 5                         @ ../../../../Library/StdDriver/src/npu/ethosu_pmu.c:125:5
	add	sp, #8
	pop	{r7, pc}
.Ltmp139:
.LBB4_63:
	@DEBUG_VALUE: ETHOSU_PMU_Get_EVTYPER:val <- $r2
	@DEBUG_VALUE: ETHOSU_PMU_Get_EVTYPER:num <- [DW_OP_LLVM_entry_value 1] $r1
	@DEBUG_VALUE: ETHOSU_PMU_Get_EVTYPER:drv <- [DW_OP_LLVM_entry_value 1] $r0
	.loc	2 0 5                           @ ../../../../Library/StdDriver/src/npu/ethosu_pmu.c:0:5
	movs	r0, #48
.Ltmp140:
	@DEBUG_VALUE: ETHOSU_PMU_Get_EVTYPER:type <- $r0
	.loc	2 125 5                         @ ../../../../Library/StdDriver/src/npu/ethosu_pmu.c:125:5
	add	sp, #8
	pop	{r7, pc}
.Ltmp141:
.LBB4_64:
	@DEBUG_VALUE: ETHOSU_PMU_Get_EVTYPER:val <- $r2
	@DEBUG_VALUE: ETHOSU_PMU_Get_EVTYPER:num <- [DW_OP_LLVM_entry_value 1] $r1
	@DEBUG_VALUE: ETHOSU_PMU_Get_EVTYPER:drv <- [DW_OP_LLVM_entry_value 1] $r0
	.loc	2 0 5                           @ ../../../../Library/StdDriver/src/npu/ethosu_pmu.c:0:5
	movs	r0, #51
.Ltmp142:
	@DEBUG_VALUE: ETHOSU_PMU_Get_EVTYPER:type <- $r0
	.loc	2 125 5                         @ ../../../../Library/StdDriver/src/npu/ethosu_pmu.c:125:5
	add	sp, #8
	pop	{r7, pc}
.Ltmp143:
.LBB4_65:
	@DEBUG_VALUE: ETHOSU_PMU_Get_EVTYPER:val <- $r2
	@DEBUG_VALUE: ETHOSU_PMU_Get_EVTYPER:num <- [DW_OP_LLVM_entry_value 1] $r1
	@DEBUG_VALUE: ETHOSU_PMU_Get_EVTYPER:drv <- [DW_OP_LLVM_entry_value 1] $r0
	.loc	2 0 5                           @ ../../../../Library/StdDriver/src/npu/ethosu_pmu.c:0:5
	movs	r0, #52
.Ltmp144:
	@DEBUG_VALUE: ETHOSU_PMU_Get_EVTYPER:type <- $r0
	.loc	2 125 5                         @ ../../../../Library/StdDriver/src/npu/ethosu_pmu.c:125:5
	add	sp, #8
	pop	{r7, pc}
.Ltmp145:
.LBB4_66:
	@DEBUG_VALUE: ETHOSU_PMU_Get_EVTYPER:val <- $r2
	@DEBUG_VALUE: ETHOSU_PMU_Get_EVTYPER:num <- [DW_OP_LLVM_entry_value 1] $r1
	@DEBUG_VALUE: ETHOSU_PMU_Get_EVTYPER:drv <- [DW_OP_LLVM_entry_value 1] $r0
	.loc	2 0 5                           @ ../../../../Library/StdDriver/src/npu/ethosu_pmu.c:0:5
	movs	r0, #54
.Ltmp146:
	@DEBUG_VALUE: ETHOSU_PMU_Get_EVTYPER:type <- $r0
	.loc	2 125 5                         @ ../../../../Library/StdDriver/src/npu/ethosu_pmu.c:125:5
	add	sp, #8
	pop	{r7, pc}
.Ltmp147:
.LBB4_67:
	@DEBUG_VALUE: ETHOSU_PMU_Get_EVTYPER:val <- $r2
	@DEBUG_VALUE: ETHOSU_PMU_Get_EVTYPER:num <- [DW_OP_LLVM_entry_value 1] $r1
	@DEBUG_VALUE: ETHOSU_PMU_Get_EVTYPER:drv <- [DW_OP_LLVM_entry_value 1] $r0
	.loc	2 0 5                           @ ../../../../Library/StdDriver/src/npu/ethosu_pmu.c:0:5
	movs	r0, #55
.Ltmp148:
	@DEBUG_VALUE: ETHOSU_PMU_Get_EVTYPER:type <- $r0
	.loc	2 125 5                         @ ../../../../Library/StdDriver/src/npu/ethosu_pmu.c:125:5
	add	sp, #8
	pop	{r7, pc}
.Ltmp149:
.LBB4_68:
	@DEBUG_VALUE: ETHOSU_PMU_Get_EVTYPER:val <- $r2
	@DEBUG_VALUE: ETHOSU_PMU_Get_EVTYPER:num <- [DW_OP_LLVM_entry_value 1] $r1
	@DEBUG_VALUE: ETHOSU_PMU_Get_EVTYPER:drv <- [DW_OP_LLVM_entry_value 1] $r0
	.loc	2 0 5                           @ ../../../../Library/StdDriver/src/npu/ethosu_pmu.c:0:5
	movs	r0, #57
.Ltmp150:
	@DEBUG_VALUE: ETHOSU_PMU_Get_EVTYPER:type <- $r0
	.loc	2 125 5                         @ ../../../../Library/StdDriver/src/npu/ethosu_pmu.c:125:5
	add	sp, #8
	pop	{r7, pc}
.Ltmp151:
.LBB4_69:
	@DEBUG_VALUE: ETHOSU_PMU_Get_EVTYPER:val <- $r2
	@DEBUG_VALUE: ETHOSU_PMU_Get_EVTYPER:num <- [DW_OP_LLVM_entry_value 1] $r1
	@DEBUG_VALUE: ETHOSU_PMU_Get_EVTYPER:drv <- [DW_OP_LLVM_entry_value 1] $r0
	.loc	2 0 5                           @ ../../../../Library/StdDriver/src/npu/ethosu_pmu.c:0:5
	movs	r0, #58
.Ltmp152:
	@DEBUG_VALUE: ETHOSU_PMU_Get_EVTYPER:type <- $r0
	.loc	2 125 5                         @ ../../../../Library/StdDriver/src/npu/ethosu_pmu.c:125:5
	add	sp, #8
	pop	{r7, pc}
.Ltmp153:
.LBB4_70:
	@DEBUG_VALUE: ETHOSU_PMU_Get_EVTYPER:val <- $r2
	@DEBUG_VALUE: ETHOSU_PMU_Get_EVTYPER:num <- [DW_OP_LLVM_entry_value 1] $r1
	@DEBUG_VALUE: ETHOSU_PMU_Get_EVTYPER:drv <- [DW_OP_LLVM_entry_value 1] $r0
	.loc	2 0 5                           @ ../../../../Library/StdDriver/src/npu/ethosu_pmu.c:0:5
	movs	r0, #60
.Ltmp154:
	@DEBUG_VALUE: ETHOSU_PMU_Get_EVTYPER:type <- $r0
	.loc	2 125 5                         @ ../../../../Library/StdDriver/src/npu/ethosu_pmu.c:125:5
	add	sp, #8
	pop	{r7, pc}
.Ltmp155:
.LBB4_71:
	@DEBUG_VALUE: ETHOSU_PMU_Get_EVTYPER:val <- $r2
	@DEBUG_VALUE: ETHOSU_PMU_Get_EVTYPER:num <- [DW_OP_LLVM_entry_value 1] $r1
	@DEBUG_VALUE: ETHOSU_PMU_Get_EVTYPER:drv <- [DW_OP_LLVM_entry_value 1] $r0
	.loc	2 0 5                           @ ../../../../Library/StdDriver/src/npu/ethosu_pmu.c:0:5
	movs	r0, #61
.Ltmp156:
	@DEBUG_VALUE: ETHOSU_PMU_Get_EVTYPER:type <- $r0
	.loc	2 125 5                         @ ../../../../Library/StdDriver/src/npu/ethosu_pmu.c:125:5
	add	sp, #8
	pop	{r7, pc}
.Ltmp157:
.LBB4_72:
	@DEBUG_VALUE: ETHOSU_PMU_Get_EVTYPER:val <- $r2
	@DEBUG_VALUE: ETHOSU_PMU_Get_EVTYPER:num <- [DW_OP_LLVM_entry_value 1] $r1
	@DEBUG_VALUE: ETHOSU_PMU_Get_EVTYPER:drv <- [DW_OP_LLVM_entry_value 1] $r0
	.loc	2 0 5                           @ ../../../../Library/StdDriver/src/npu/ethosu_pmu.c:0:5
	movs	r0, #62
.Ltmp158:
	@DEBUG_VALUE: ETHOSU_PMU_Get_EVTYPER:type <- $r0
	.loc	2 125 5                         @ ../../../../Library/StdDriver/src/npu/ethosu_pmu.c:125:5
	add	sp, #8
	pop	{r7, pc}
.Ltmp159:
.LBB4_73:
	@DEBUG_VALUE: ETHOSU_PMU_Get_EVTYPER:val <- $r2
	@DEBUG_VALUE: ETHOSU_PMU_Get_EVTYPER:num <- [DW_OP_LLVM_entry_value 1] $r1
	@DEBUG_VALUE: ETHOSU_PMU_Get_EVTYPER:drv <- [DW_OP_LLVM_entry_value 1] $r0
	.loc	2 0 5                           @ ../../../../Library/StdDriver/src/npu/ethosu_pmu.c:0:5
	movs	r0, #63
.Ltmp160:
	@DEBUG_VALUE: ETHOSU_PMU_Get_EVTYPER:type <- $r0
	.loc	2 125 5                         @ ../../../../Library/StdDriver/src/npu/ethosu_pmu.c:125:5
	add	sp, #8
	pop	{r7, pc}
.Ltmp161:
.LBB4_74:
	@DEBUG_VALUE: ETHOSU_PMU_Get_EVTYPER:val <- $r2
	@DEBUG_VALUE: ETHOSU_PMU_Get_EVTYPER:num <- [DW_OP_LLVM_entry_value 1] $r1
	@DEBUG_VALUE: ETHOSU_PMU_Get_EVTYPER:drv <- [DW_OP_LLVM_entry_value 1] $r0
	.loc	2 0 5                           @ ../../../../Library/StdDriver/src/npu/ethosu_pmu.c:0:5
	movs	r0, #65
.Ltmp162:
	@DEBUG_VALUE: ETHOSU_PMU_Get_EVTYPER:type <- $r0
	.loc	2 125 5                         @ ../../../../Library/StdDriver/src/npu/ethosu_pmu.c:125:5
	add	sp, #8
	pop	{r7, pc}
.Ltmp163:
.LBB4_75:
	@DEBUG_VALUE: ETHOSU_PMU_Get_EVTYPER:val <- $r2
	@DEBUG_VALUE: ETHOSU_PMU_Get_EVTYPER:num <- [DW_OP_LLVM_entry_value 1] $r1
	@DEBUG_VALUE: ETHOSU_PMU_Get_EVTYPER:drv <- [DW_OP_LLVM_entry_value 1] $r0
	.loc	2 0 5                           @ ../../../../Library/StdDriver/src/npu/ethosu_pmu.c:0:5
	movs	r0, #67
.Ltmp164:
	@DEBUG_VALUE: ETHOSU_PMU_Get_EVTYPER:type <- $r0
	.loc	2 125 5                         @ ../../../../Library/StdDriver/src/npu/ethosu_pmu.c:125:5
	add	sp, #8
	pop	{r7, pc}
.Ltmp165:
.LBB4_76:
	@DEBUG_VALUE: ETHOSU_PMU_Get_EVTYPER:val <- $r2
	@DEBUG_VALUE: ETHOSU_PMU_Get_EVTYPER:num <- [DW_OP_LLVM_entry_value 1] $r1
	@DEBUG_VALUE: ETHOSU_PMU_Get_EVTYPER:drv <- [DW_OP_LLVM_entry_value 1] $r0
	.loc	2 0 5                           @ ../../../../Library/StdDriver/src/npu/ethosu_pmu.c:0:5
	movs	r0, #68
.Ltmp166:
	@DEBUG_VALUE: ETHOSU_PMU_Get_EVTYPER:type <- $r0
	.loc	2 125 5                         @ ../../../../Library/StdDriver/src/npu/ethosu_pmu.c:125:5
	add	sp, #8
	pop	{r7, pc}
.Ltmp167:
.LBB4_77:
	@DEBUG_VALUE: ETHOSU_PMU_Get_EVTYPER:val <- $r2
	@DEBUG_VALUE: ETHOSU_PMU_Get_EVTYPER:num <- [DW_OP_LLVM_entry_value 1] $r1
	@DEBUG_VALUE: ETHOSU_PMU_Get_EVTYPER:drv <- [DW_OP_LLVM_entry_value 1] $r0
	.loc	2 0 5                           @ ../../../../Library/StdDriver/src/npu/ethosu_pmu.c:0:5
	movs	r0, #70
.Ltmp168:
	@DEBUG_VALUE: ETHOSU_PMU_Get_EVTYPER:type <- $r0
	.loc	2 125 5                         @ ../../../../Library/StdDriver/src/npu/ethosu_pmu.c:125:5
	add	sp, #8
	pop	{r7, pc}
.Ltmp169:
.LBB4_78:
	@DEBUG_VALUE: ETHOSU_PMU_Get_EVTYPER:val <- $r2
	@DEBUG_VALUE: ETHOSU_PMU_Get_EVTYPER:num <- [DW_OP_LLVM_entry_value 1] $r1
	@DEBUG_VALUE: ETHOSU_PMU_Get_EVTYPER:drv <- [DW_OP_LLVM_entry_value 1] $r0
	.loc	2 0 5                           @ ../../../../Library/StdDriver/src/npu/ethosu_pmu.c:0:5
	movs	r0, #71
.Ltmp170:
	@DEBUG_VALUE: ETHOSU_PMU_Get_EVTYPER:type <- $r0
	.loc	2 125 5                         @ ../../../../Library/StdDriver/src/npu/ethosu_pmu.c:125:5
	add	sp, #8
	pop	{r7, pc}
.Ltmp171:
.LBB4_79:
	@DEBUG_VALUE: ETHOSU_PMU_Get_EVTYPER:num <- $r1
	@DEBUG_VALUE: ETHOSU_PMU_Get_EVTYPER:drv <- $r0
	.loc	2 121 5 is_stmt 1               @ ../../../../Library/StdDriver/src/npu/ethosu_pmu.c:121:5
	movw	r0, :lower16:.L.str
.Ltmp172:
	@DEBUG_VALUE: ETHOSU_PMU_Get_EVTYPER:drv <- [DW_OP_LLVM_entry_value 1] $r0
	movw	r1, :lower16:.L.str.1
.Ltmp173:
	@DEBUG_VALUE: ETHOSU_PMU_Get_EVTYPER:num <- [DW_OP_LLVM_entry_value 1] $r1
	movt	r0, :upper16:.L.str
	movs	r2, #121
	movt	r1, :upper16:.L.str.1
	bl	__aeabi_assert
.Ltmp174:
	.p2align	2
@ %bb.80:
	.loc	2 0 5 is_stmt 0                 @ ../../../../Library/StdDriver/src/npu/ethosu_pmu.c:0:5
.LCPI4_0:
.L.str.3:
	.asciz	"/../../../../Library/StdDriver/src/npu/ethosu_pmu.c"
.LCPI4_1:
.L.str.2:
	.asciz	"E: Unknown PMU event id: 0x%x (%s:%d)\n\000"
.Lfunc_end4:
	.size	ETHOSU_PMU_Get_EVTYPER, .Lfunc_end4-ETHOSU_PMU_Get_EVTYPER
	.cfi_endproc
	.cantunwind
	.fnend
                                        @ -- End function
	.section	.text.ETHOSU_PMU_CYCCNT_Reset,"ax",%progbits
	.hidden	ETHOSU_PMU_CYCCNT_Reset         @ -- Begin function ETHOSU_PMU_CYCCNT_Reset
	.globl	ETHOSU_PMU_CYCCNT_Reset
	.p2align	2
	.type	ETHOSU_PMU_CYCCNT_Reset,%function
	.code	16                              @ @ETHOSU_PMU_CYCCNT_Reset
	.thumb_func
ETHOSU_PMU_CYCCNT_Reset:
.Lfunc_begin5:
	.loc	2 129 0 is_stmt 1               @ ../../../../Library/StdDriver/src/npu/ethosu_pmu.c:129:0
	.fnstart
	.cfi_startproc
@ %bb.0:
	@DEBUG_VALUE: ETHOSU_PMU_CYCCNT_Reset:drv <- $r0
	@DEBUG_VALUE: ETHOSU_PMU_CYCCNT_Reset:drv <- $r0
	.loc	2 132 37 prologue_end           @ ../../../../Library/StdDriver/src/npu/ethosu_pmu.c:132:37
	ldr	r0, [r0]
.Ltmp175:
	@DEBUG_VALUE: ETHOSU_PMU_CYCCNT_Reset:drv <- [DW_OP_LLVM_entry_value 1] $r0
	.loc	2 132 42 is_stmt 0              @ ../../../../Library/StdDriver/src/npu/ethosu_pmu.c:132:42
	ldr	r0, [r0]
	.loc	2 132 52                        @ ../../../../Library/StdDriver/src/npu/ethosu_pmu.c:132:52
	ldr.w	r1, [r0, #384]
.Ltmp176:
	@DEBUG_VALUE: ETHOSU_PMU_CYCCNT_Reset:pmcr <- [DW_OP_constu 16, DW_OP_shr, DW_OP_LLVM_convert 32 7, DW_OP_LLVM_convert 16 7, DW_OP_stack_value, DW_OP_LLVM_fragment 16 16] $r1
	@DEBUG_VALUE: ETHOSU_PMU_CYCCNT_Reset:pmcr <- [DW_OP_constu 4, DW_OP_or, DW_OP_stack_value, DW_OP_LLVM_fragment 0 16] $r1
	.loc	2 134 5 is_stmt 1               @ ../../../../Library/StdDriver/src/npu/ethosu_pmu.c:134:5
	orr	r1, r1, #4
.Ltmp177:
	.loc	2 134 30 is_stmt 0              @ ../../../../Library/StdDriver/src/npu/ethosu_pmu.c:134:30
	str.w	r1, [r0, #384]
	.loc	2 135 1 is_stmt 1               @ ../../../../Library/StdDriver/src/npu/ethosu_pmu.c:135:1
	bx	lr
.Ltmp178:
.Lfunc_end5:
	.size	ETHOSU_PMU_CYCCNT_Reset, .Lfunc_end5-ETHOSU_PMU_CYCCNT_Reset
	.cfi_endproc
	.cantunwind
	.fnend
                                        @ -- End function
	.section	.text.ETHOSU_PMU_EVCNTR_ALL_Reset,"ax",%progbits
	.hidden	ETHOSU_PMU_EVCNTR_ALL_Reset     @ -- Begin function ETHOSU_PMU_EVCNTR_ALL_Reset
	.globl	ETHOSU_PMU_EVCNTR_ALL_Reset
	.p2align	2
	.type	ETHOSU_PMU_EVCNTR_ALL_Reset,%function
	.code	16                              @ @ETHOSU_PMU_EVCNTR_ALL_Reset
	.thumb_func
ETHOSU_PMU_EVCNTR_ALL_Reset:
.Lfunc_begin6:
	.loc	2 138 0                         @ ../../../../Library/StdDriver/src/npu/ethosu_pmu.c:138:0
	.fnstart
	.cfi_startproc
@ %bb.0:
	@DEBUG_VALUE: ETHOSU_PMU_EVCNTR_ALL_Reset:drv <- $r0
	@DEBUG_VALUE: ETHOSU_PMU_EVCNTR_ALL_Reset:drv <- $r0
	.loc	2 141 37 prologue_end           @ ../../../../Library/StdDriver/src/npu/ethosu_pmu.c:141:37
	ldr	r0, [r0]
.Ltmp179:
	@DEBUG_VALUE: ETHOSU_PMU_EVCNTR_ALL_Reset:drv <- [DW_OP_LLVM_entry_value 1] $r0
	.loc	2 141 42 is_stmt 0              @ ../../../../Library/StdDriver/src/npu/ethosu_pmu.c:141:42
	ldr	r0, [r0]
	.loc	2 141 52                        @ ../../../../Library/StdDriver/src/npu/ethosu_pmu.c:141:52
	ldr.w	r1, [r0, #384]
.Ltmp180:
	@DEBUG_VALUE: ETHOSU_PMU_EVCNTR_ALL_Reset:pmcr <- [DW_OP_constu 16, DW_OP_shr, DW_OP_LLVM_convert 32 7, DW_OP_LLVM_convert 16 7, DW_OP_stack_value, DW_OP_LLVM_fragment 16 16] $r1
	@DEBUG_VALUE: ETHOSU_PMU_EVCNTR_ALL_Reset:pmcr <- [DW_OP_constu 2, DW_OP_or, DW_OP_stack_value, DW_OP_LLVM_fragment 0 16] $r1
	.loc	2 143 5 is_stmt 1               @ ../../../../Library/StdDriver/src/npu/ethosu_pmu.c:143:5
	orr	r1, r1, #2
.Ltmp181:
	.loc	2 143 30 is_stmt 0              @ ../../../../Library/StdDriver/src/npu/ethosu_pmu.c:143:30
	str.w	r1, [r0, #384]
	.loc	2 144 1 is_stmt 1               @ ../../../../Library/StdDriver/src/npu/ethosu_pmu.c:144:1
	bx	lr
.Ltmp182:
.Lfunc_end6:
	.size	ETHOSU_PMU_EVCNTR_ALL_Reset, .Lfunc_end6-ETHOSU_PMU_EVCNTR_ALL_Reset
	.cfi_endproc
	.cantunwind
	.fnend
                                        @ -- End function
	.section	.text.ETHOSU_PMU_CNTR_Enable,"ax",%progbits
	.hidden	ETHOSU_PMU_CNTR_Enable          @ -- Begin function ETHOSU_PMU_CNTR_Enable
	.globl	ETHOSU_PMU_CNTR_Enable
	.p2align	2
	.type	ETHOSU_PMU_CNTR_Enable,%function
	.code	16                              @ @ETHOSU_PMU_CNTR_Enable
	.thumb_func
ETHOSU_PMU_CNTR_Enable:
.Lfunc_begin7:
	.loc	2 147 0                         @ ../../../../Library/StdDriver/src/npu/ethosu_pmu.c:147:0
	.fnstart
	.cfi_startproc
@ %bb.0:
	@DEBUG_VALUE: ETHOSU_PMU_CNTR_Enable:drv <- $r0
	@DEBUG_VALUE: ETHOSU_PMU_CNTR_Enable:drv <- $r0
	@DEBUG_VALUE: ETHOSU_PMU_CNTR_Enable:mask <- $r1
	.loc	2 149 10 prologue_end           @ ../../../../Library/StdDriver/src/npu/ethosu_pmu.c:149:10
	ldr	r0, [r0]
.Ltmp183:
	@DEBUG_VALUE: ETHOSU_PMU_CNTR_Enable:drv <- [DW_OP_LLVM_entry_value 1] $r0
	.loc	2 149 15 is_stmt 0              @ ../../../../Library/StdDriver/src/npu/ethosu_pmu.c:149:15
	ldr	r0, [r0]
	@DEBUG_VALUE: ETHOSU_PMU_CNTR_Enable:mask <- $r1
	.loc	2 149 36                        @ ../../../../Library/StdDriver/src/npu/ethosu_pmu.c:149:36
	str.w	r1, [r0, #388]
	.loc	2 150 1 is_stmt 1               @ ../../../../Library/StdDriver/src/npu/ethosu_pmu.c:150:1
	bx	lr
.Ltmp184:
.Lfunc_end7:
	.size	ETHOSU_PMU_CNTR_Enable, .Lfunc_end7-ETHOSU_PMU_CNTR_Enable
	.cfi_endproc
	.cantunwind
	.fnend
                                        @ -- End function
	.section	.text.ETHOSU_PMU_CNTR_Disable,"ax",%progbits
	.hidden	ETHOSU_PMU_CNTR_Disable         @ -- Begin function ETHOSU_PMU_CNTR_Disable
	.globl	ETHOSU_PMU_CNTR_Disable
	.p2align	2
	.type	ETHOSU_PMU_CNTR_Disable,%function
	.code	16                              @ @ETHOSU_PMU_CNTR_Disable
	.thumb_func
ETHOSU_PMU_CNTR_Disable:
.Lfunc_begin8:
	.loc	2 153 0                         @ ../../../../Library/StdDriver/src/npu/ethosu_pmu.c:153:0
	.fnstart
	.cfi_startproc
@ %bb.0:
	@DEBUG_VALUE: ETHOSU_PMU_CNTR_Disable:drv <- $r0
	@DEBUG_VALUE: ETHOSU_PMU_CNTR_Disable:drv <- $r0
	@DEBUG_VALUE: ETHOSU_PMU_CNTR_Disable:mask <- $r1
	.loc	2 155 10 prologue_end           @ ../../../../Library/StdDriver/src/npu/ethosu_pmu.c:155:10
	ldr	r0, [r0]
.Ltmp185:
	@DEBUG_VALUE: ETHOSU_PMU_CNTR_Disable:drv <- [DW_OP_LLVM_entry_value 1] $r0
	.loc	2 155 15 is_stmt 0              @ ../../../../Library/StdDriver/src/npu/ethosu_pmu.c:155:15
	ldr	r0, [r0]
	@DEBUG_VALUE: ETHOSU_PMU_CNTR_Disable:mask <- $r1
	.loc	2 155 36                        @ ../../../../Library/StdDriver/src/npu/ethosu_pmu.c:155:36
	str.w	r1, [r0, #392]
	.loc	2 156 1 is_stmt 1               @ ../../../../Library/StdDriver/src/npu/ethosu_pmu.c:156:1
	bx	lr
.Ltmp186:
.Lfunc_end8:
	.size	ETHOSU_PMU_CNTR_Disable, .Lfunc_end8-ETHOSU_PMU_CNTR_Disable
	.cfi_endproc
	.cantunwind
	.fnend
                                        @ -- End function
	.section	.text.ETHOSU_PMU_CNTR_Status,"ax",%progbits
	.hidden	ETHOSU_PMU_CNTR_Status          @ -- Begin function ETHOSU_PMU_CNTR_Status
	.globl	ETHOSU_PMU_CNTR_Status
	.p2align	2
	.type	ETHOSU_PMU_CNTR_Status,%function
	.code	16                              @ @ETHOSU_PMU_CNTR_Status
	.thumb_func
ETHOSU_PMU_CNTR_Status:
.Lfunc_begin9:
	.loc	2 159 0                         @ ../../../../Library/StdDriver/src/npu/ethosu_pmu.c:159:0
	.fnstart
	.cfi_startproc
@ %bb.0:
	@DEBUG_VALUE: ETHOSU_PMU_CNTR_Status:drv <- $r0
	@DEBUG_VALUE: ETHOSU_PMU_CNTR_Status:drv <- $r0
	.loc	2 160 32 prologue_end           @ ../../../../Library/StdDriver/src/npu/ethosu_pmu.c:160:32
	ldr	r0, [r0]
.Ltmp187:
	@DEBUG_VALUE: ETHOSU_PMU_CNTR_Status:drv <- [DW_OP_LLVM_entry_value 1] $r0
	.loc	2 160 37 is_stmt 0              @ ../../../../Library/StdDriver/src/npu/ethosu_pmu.c:160:37
	ldr	r0, [r0]
	.loc	2 160 53                        @ ../../../../Library/StdDriver/src/npu/ethosu_pmu.c:160:53
	ldr.w	r0, [r0, #388]
.Ltmp188:
	@DEBUG_VALUE: ETHOSU_PMU_CNTR_Status:pmcntenset <- $r0
	.loc	2 162 5 is_stmt 1               @ ../../../../Library/StdDriver/src/npu/ethosu_pmu.c:162:5
	bx	lr
.Ltmp189:
.Lfunc_end9:
	.size	ETHOSU_PMU_CNTR_Status, .Lfunc_end9-ETHOSU_PMU_CNTR_Status
	.cfi_endproc
	.cantunwind
	.fnend
                                        @ -- End function
	.section	.text.ETHOSU_PMU_Get_CCNTR,"ax",%progbits
	.hidden	ETHOSU_PMU_Get_CCNTR            @ -- Begin function ETHOSU_PMU_Get_CCNTR
	.globl	ETHOSU_PMU_Get_CCNTR
	.p2align	2
	.type	ETHOSU_PMU_Get_CCNTR,%function
	.code	16                              @ @ETHOSU_PMU_Get_CCNTR
	.thumb_func
ETHOSU_PMU_Get_CCNTR:
.Lfunc_begin10:
	.loc	2 166 0                         @ ../../../../Library/StdDriver/src/npu/ethosu_pmu.c:166:0
	.fnstart
	.cfi_startproc
@ %bb.0:
	@DEBUG_VALUE: ETHOSU_PMU_Get_CCNTR:drv <- $r0
	@DEBUG_VALUE: ETHOSU_PMU_Get_CCNTR:drv <- $r0
	.loc	2 167 28 prologue_end           @ ../../../../Library/StdDriver/src/npu/ethosu_pmu.c:167:28
	ldr	r0, [r0]
.Ltmp190:
	@DEBUG_VALUE: ETHOSU_PMU_Get_CCNTR:drv <- [DW_OP_LLVM_entry_value 1] $r0
	.loc	2 167 33 is_stmt 0              @ ../../../../Library/StdDriver/src/npu/ethosu_pmu.c:167:33
	ldr	r1, [r0]
	.loc	2 167 46                        @ ../../../../Library/StdDriver/src/npu/ethosu_pmu.c:167:46
	ldr.w	r0, [r1, #416]
.Ltmp191:
	@DEBUG_VALUE: ETHOSU_PMU_Get_CCNTR:val_lo <- undef
	.loc	2 168 46 is_stmt 1              @ ../../../../Library/StdDriver/src/npu/ethosu_pmu.c:168:46
	ldr.w	r1, [r1, #420]
	uxth	r1, r1
.Ltmp192:
	@DEBUG_VALUE: ETHOSU_PMU_Get_CCNTR:val <- [DW_OP_LLVM_fragment 32 32] $r1
	@DEBUG_VALUE: ETHOSU_PMU_Get_CCNTR:val <- [DW_OP_LLVM_fragment 0 32] $r0
	@DEBUG_VALUE: ETHOSU_PMU_Get_CCNTR:val_hi <- $r1
	.loc	2 172 5                         @ ../../../../Library/StdDriver/src/npu/ethosu_pmu.c:172:5
	bx	lr
.Ltmp193:
.Lfunc_end10:
	.size	ETHOSU_PMU_Get_CCNTR, .Lfunc_end10-ETHOSU_PMU_Get_CCNTR
	.cfi_endproc
	.cantunwind
	.fnend
                                        @ -- End function
	.section	.text.ETHOSU_PMU_Set_CCNTR,"ax",%progbits
	.hidden	ETHOSU_PMU_Set_CCNTR            @ -- Begin function ETHOSU_PMU_Set_CCNTR
	.globl	ETHOSU_PMU_Set_CCNTR
	.p2align	2
	.type	ETHOSU_PMU_Set_CCNTR,%function
	.code	16                              @ @ETHOSU_PMU_Set_CCNTR
	.thumb_func
ETHOSU_PMU_Set_CCNTR:
.Lfunc_begin11:
	.loc	2 176 0                         @ ../../../../Library/StdDriver/src/npu/ethosu_pmu.c:176:0
	.fnstart
	.cfi_startproc
@ %bb.0:
	@DEBUG_VALUE: ETHOSU_PMU_Set_CCNTR:drv <- $r0
	@DEBUG_VALUE: ETHOSU_PMU_Set_CCNTR:drv <- $r0
	@DEBUG_VALUE: ETHOSU_PMU_CNTR_Status:drv <- $r0
	@DEBUG_VALUE: ETHOSU_PMU_CNTR_Status:drv <- $r0
	@DEBUG_VALUE: ETHOSU_PMU_Set_CCNTR:val <- [DW_OP_LLVM_fragment 32 32] undef
	@DEBUG_VALUE: ETHOSU_PMU_Set_CCNTR:val <- [DW_OP_LLVM_fragment 0 32] undef
	.save	{r7, lr}
	push	{r7, lr}
	.cfi_def_cfa_offset 8
	.cfi_offset lr, -4
	.cfi_offset r7, -8
.Ltmp194:
	.loc	2 160 32 prologue_end           @ ../../../../Library/StdDriver/src/npu/ethosu_pmu.c:160:32
	ldr	r1, [r0]
	.loc	2 160 37 is_stmt 0              @ ../../../../Library/StdDriver/src/npu/ethosu_pmu.c:160:37
	ldr.w	lr, [r1]
	.loc	2 160 53                        @ ../../../../Library/StdDriver/src/npu/ethosu_pmu.c:160:53
	ldr.w	r12, [lr, #388]
.Ltmp195:
	@DEBUG_VALUE: ETHOSU_PMU_Set_CCNTR:active <- [DW_OP_constu 18446744071562067968, DW_OP_and, DW_OP_stack_value] $r12
	@DEBUG_VALUE: ETHOSU_PMU_CNTR_Status:pmcntenset <- $r12
	.loc	2 181 9 is_stmt 1               @ ../../../../Library/StdDriver/src/npu/ethosu_pmu.c:181:9
	cmp.w	r12, #-1
	bgt	.LBB11_2
.Ltmp196:
@ %bb.1:
	@DEBUG_VALUE: ETHOSU_PMU_Set_CCNTR:active <- [DW_OP_constu 18446744071562067968, DW_OP_and, DW_OP_stack_value] $r12
	@DEBUG_VALUE: ETHOSU_PMU_Set_CCNTR:drv <- $r0
	.loc	2 0 9 is_stmt 0                 @ ../../../../Library/StdDriver/src/npu/ethosu_pmu.c:0:9
	mov.w	r1, #-2147483648
.Ltmp197:
	@DEBUG_VALUE: ETHOSU_PMU_CNTR_Disable:mask <- -2147483648
	@DEBUG_VALUE: ETHOSU_PMU_CNTR_Disable:drv <- $r0
	.loc	2 155 36 is_stmt 1              @ ../../../../Library/StdDriver/src/npu/ethosu_pmu.c:155:36
	str.w	r1, [lr, #392]
.Ltmp198:
	.loc	2 186 10                        @ ../../../../Library/StdDriver/src/npu/ethosu_pmu.c:186:10
	ldr	r1, [r0]
	.loc	2 186 15 is_stmt 0              @ ../../../../Library/StdDriver/src/npu/ethosu_pmu.c:186:15
	ldr.w	lr, [r1]
.Ltmp199:
.LBB11_2:
	@DEBUG_VALUE: ETHOSU_PMU_Set_CCNTR:active <- [DW_OP_constu 18446744071562067968, DW_OP_and, DW_OP_stack_value] $r12
	@DEBUG_VALUE: ETHOSU_PMU_Set_CCNTR:drv <- $r0
	.loc	2 186 41                        @ ../../../../Library/StdDriver/src/npu/ethosu_pmu.c:186:41
	ldr.w	r1, [lr, #416]
	str.w	r2, [lr, #416]
	.loc	2 187 10 is_stmt 1              @ ../../../../Library/StdDriver/src/npu/ethosu_pmu.c:187:10
	ldr	r1, [r0]
	.loc	2 189 9                         @ ../../../../Library/StdDriver/src/npu/ethosu_pmu.c:189:9
	cmp.w	r12, #-1
	.loc	2 187 15                        @ ../../../../Library/StdDriver/src/npu/ethosu_pmu.c:187:15
	ldr	r1, [r1]
	.loc	2 187 41 is_stmt 0              @ ../../../../Library/StdDriver/src/npu/ethosu_pmu.c:187:41
	ldr.w	r2, [r1, #420]
	pkhbt	r2, r3, r2
	str.w	r2, [r1, #420]
	.loc	2 193 1 is_stmt 1               @ ../../../../Library/StdDriver/src/npu/ethosu_pmu.c:193:1
	it	gt
	popgt	{r7, pc}
.Ltmp200:
.LBB11_3:
	@DEBUG_VALUE: ETHOSU_PMU_Set_CCNTR:active <- [DW_OP_constu 18446744071562067968, DW_OP_and, DW_OP_stack_value] $r12
	@DEBUG_VALUE: ETHOSU_PMU_Set_CCNTR:drv <- $r0
	@DEBUG_VALUE: ETHOSU_PMU_CNTR_Enable:drv <- $r0
	@DEBUG_VALUE: ETHOSU_PMU_CNTR_Enable:mask <- -2147483648
	.loc	2 149 10                        @ ../../../../Library/StdDriver/src/npu/ethosu_pmu.c:149:10
	ldr	r0, [r0]
.Ltmp201:
	@DEBUG_VALUE: ETHOSU_PMU_Set_CCNTR:drv <- [DW_OP_LLVM_entry_value 1] $r0
	.loc	2 0 10 is_stmt 0                @ ../../../../Library/StdDriver/src/npu/ethosu_pmu.c:0:10
	mov.w	r1, #-2147483648
	.loc	2 149 15                        @ ../../../../Library/StdDriver/src/npu/ethosu_pmu.c:149:15
	ldr	r0, [r0]
	.loc	2 149 36                        @ ../../../../Library/StdDriver/src/npu/ethosu_pmu.c:149:36
	str.w	r1, [r0, #388]
.Ltmp202:
	.loc	2 193 1 is_stmt 1               @ ../../../../Library/StdDriver/src/npu/ethosu_pmu.c:193:1
	pop	{r7, pc}
.Ltmp203:
.Lfunc_end11:
	.size	ETHOSU_PMU_Set_CCNTR, .Lfunc_end11-ETHOSU_PMU_Set_CCNTR
	.cfi_endproc
	.cantunwind
	.fnend
                                        @ -- End function
	.section	.text.ETHOSU_PMU_Get_EVCNTR,"ax",%progbits
	.hidden	ETHOSU_PMU_Get_EVCNTR           @ -- Begin function ETHOSU_PMU_Get_EVCNTR
	.globl	ETHOSU_PMU_Get_EVCNTR
	.p2align	2
	.type	ETHOSU_PMU_Get_EVCNTR,%function
	.code	16                              @ @ETHOSU_PMU_Get_EVCNTR
	.thumb_func
ETHOSU_PMU_Get_EVCNTR:
.Lfunc_begin12:
	.loc	2 196 0                         @ ../../../../Library/StdDriver/src/npu/ethosu_pmu.c:196:0
	.fnstart
	.cfi_startproc
@ %bb.0:
	@DEBUG_VALUE: ETHOSU_PMU_Get_EVCNTR:drv <- $r0
	@DEBUG_VALUE: ETHOSU_PMU_Get_EVCNTR:num <- $r1
	@DEBUG_VALUE: ETHOSU_PMU_Get_EVCNTR:num <- $r1
	.loc	2 197 5 prologue_end            @ ../../../../Library/StdDriver/src/npu/ethosu_pmu.c:197:5
	cmp	r1, #4
	@DEBUG_VALUE: ETHOSU_PMU_Get_EVCNTR:drv <- $r0
	bhs	.LBB12_2
.Ltmp204:
@ %bb.1:
	@DEBUG_VALUE: ETHOSU_PMU_Get_EVCNTR:num <- $r1
	@DEBUG_VALUE: ETHOSU_PMU_Get_EVCNTR:drv <- $r0
	.loc	2 198 25                        @ ../../../../Library/StdDriver/src/npu/ethosu_pmu.c:198:25
	ldr	r0, [r0]
.Ltmp205:
	@DEBUG_VALUE: ETHOSU_PMU_Get_EVCNTR:drv <- [DW_OP_LLVM_entry_value 1] $r0
	.loc	2 198 30 is_stmt 0              @ ../../../../Library/StdDriver/src/npu/ethosu_pmu.c:198:30
	ldr	r0, [r0]
	.loc	2 198 49                        @ ../../../../Library/StdDriver/src/npu/ethosu_pmu.c:198:49
	add.w	r0, r0, r1, lsl #2
	ldr.w	r0, [r0, #768]
.Ltmp206:
	@DEBUG_VALUE: ETHOSU_PMU_Get_EVCNTR:val <- $r0
	.loc	2 201 5 is_stmt 1               @ ../../../../Library/StdDriver/src/npu/ethosu_pmu.c:201:5
	bx	lr
.Ltmp207:
.LBB12_2:
	@DEBUG_VALUE: ETHOSU_PMU_Get_EVCNTR:num <- $r1
	@DEBUG_VALUE: ETHOSU_PMU_Get_EVCNTR:drv <- $r0
	.loc	2 197 5                         @ ../../../../Library/StdDriver/src/npu/ethosu_pmu.c:197:5
	movw	r0, :lower16:.L.str
.Ltmp208:
	@DEBUG_VALUE: ETHOSU_PMU_Get_EVCNTR:drv <- [DW_OP_LLVM_entry_value 1] $r0
	movw	r1, :lower16:.L.str.1
.Ltmp209:
	@DEBUG_VALUE: ETHOSU_PMU_Get_EVCNTR:num <- [DW_OP_LLVM_entry_value 1] $r1
	movt	r0, :upper16:.L.str
	movs	r2, #197
	movt	r1, :upper16:.L.str.1
	bl	__aeabi_assert
.Ltmp210:
.Lfunc_end12:
	.size	ETHOSU_PMU_Get_EVCNTR, .Lfunc_end12-ETHOSU_PMU_Get_EVCNTR
	.cfi_endproc
	.cantunwind
	.fnend
                                        @ -- End function
	.section	.text.ETHOSU_PMU_Set_EVCNTR,"ax",%progbits
	.hidden	ETHOSU_PMU_Set_EVCNTR           @ -- Begin function ETHOSU_PMU_Set_EVCNTR
	.globl	ETHOSU_PMU_Set_EVCNTR
	.p2align	2
	.type	ETHOSU_PMU_Set_EVCNTR,%function
	.code	16                              @ @ETHOSU_PMU_Set_EVCNTR
	.thumb_func
ETHOSU_PMU_Set_EVCNTR:
.Lfunc_begin13:
	.loc	2 205 0                         @ ../../../../Library/StdDriver/src/npu/ethosu_pmu.c:205:0
	.fnstart
	.cfi_startproc
@ %bb.0:
	@DEBUG_VALUE: ETHOSU_PMU_Set_EVCNTR:drv <- $r0
	@DEBUG_VALUE: ETHOSU_PMU_Set_EVCNTR:num <- $r1
	@DEBUG_VALUE: ETHOSU_PMU_Set_EVCNTR:num <- $r1
	@DEBUG_VALUE: ETHOSU_PMU_Set_EVCNTR:val <- $r2
	@DEBUG_VALUE: ETHOSU_PMU_Set_EVCNTR:val <- $r2
	.loc	2 206 5 prologue_end            @ ../../../../Library/StdDriver/src/npu/ethosu_pmu.c:206:5
	cmp	r1, #4
	@DEBUG_VALUE: ETHOSU_PMU_Set_EVCNTR:drv <- $r0
	bhs	.LBB13_2
.Ltmp211:
@ %bb.1:
	@DEBUG_VALUE: ETHOSU_PMU_Set_EVCNTR:val <- $r2
	@DEBUG_VALUE: ETHOSU_PMU_Set_EVCNTR:num <- $r1
	@DEBUG_VALUE: ETHOSU_PMU_Set_EVCNTR:drv <- $r0
	.loc	2 208 10                        @ ../../../../Library/StdDriver/src/npu/ethosu_pmu.c:208:10
	ldr	r0, [r0]
.Ltmp212:
	@DEBUG_VALUE: ETHOSU_PMU_Set_EVCNTR:drv <- [DW_OP_LLVM_entry_value 1] $r0
	.loc	2 208 15 is_stmt 0              @ ../../../../Library/StdDriver/src/npu/ethosu_pmu.c:208:15
	ldr	r0, [r0]
	.loc	2 208 34                        @ ../../../../Library/StdDriver/src/npu/ethosu_pmu.c:208:34
	add.w	r0, r0, r1, lsl #2
	.loc	2 208 39                        @ ../../../../Library/StdDriver/src/npu/ethosu_pmu.c:208:39
	str.w	r2, [r0, #768]
	.loc	2 209 1 is_stmt 1               @ ../../../../Library/StdDriver/src/npu/ethosu_pmu.c:209:1
	bx	lr
.Ltmp213:
.LBB13_2:
	@DEBUG_VALUE: ETHOSU_PMU_Set_EVCNTR:val <- $r2
	@DEBUG_VALUE: ETHOSU_PMU_Set_EVCNTR:num <- $r1
	@DEBUG_VALUE: ETHOSU_PMU_Set_EVCNTR:drv <- $r0
	.loc	2 206 5                         @ ../../../../Library/StdDriver/src/npu/ethosu_pmu.c:206:5
	movw	r0, :lower16:.L.str
.Ltmp214:
	@DEBUG_VALUE: ETHOSU_PMU_Set_EVCNTR:drv <- [DW_OP_LLVM_entry_value 1] $r0
	movw	r1, :lower16:.L.str.1
.Ltmp215:
	@DEBUG_VALUE: ETHOSU_PMU_Set_EVCNTR:num <- [DW_OP_LLVM_entry_value 1] $r1
	movt	r0, :upper16:.L.str
	movs	r2, #206
.Ltmp216:
	@DEBUG_VALUE: ETHOSU_PMU_Set_EVCNTR:val <- [DW_OP_LLVM_entry_value 1] $r2
	movt	r1, :upper16:.L.str.1
	bl	__aeabi_assert
.Ltmp217:
.Lfunc_end13:
	.size	ETHOSU_PMU_Set_EVCNTR, .Lfunc_end13-ETHOSU_PMU_Set_EVCNTR
	.cfi_endproc
	.cantunwind
	.fnend
                                        @ -- End function
	.section	.text.ETHOSU_PMU_Get_CNTR_OVS,"ax",%progbits
	.hidden	ETHOSU_PMU_Get_CNTR_OVS         @ -- Begin function ETHOSU_PMU_Get_CNTR_OVS
	.globl	ETHOSU_PMU_Get_CNTR_OVS
	.p2align	2
	.type	ETHOSU_PMU_Get_CNTR_OVS,%function
	.code	16                              @ @ETHOSU_PMU_Get_CNTR_OVS
	.thumb_func
ETHOSU_PMU_Get_CNTR_OVS:
.Lfunc_begin14:
	.loc	2 212 0                         @ ../../../../Library/StdDriver/src/npu/ethosu_pmu.c:212:0
	.fnstart
	.cfi_startproc
@ %bb.0:
	@DEBUG_VALUE: ETHOSU_PMU_Get_CNTR_OVS:drv <- $r0
	@DEBUG_VALUE: ETHOSU_PMU_Get_CNTR_OVS:drv <- $r0
	.loc	2 214 17 prologue_end           @ ../../../../Library/StdDriver/src/npu/ethosu_pmu.c:214:17
	ldr	r0, [r0]
.Ltmp218:
	@DEBUG_VALUE: ETHOSU_PMU_Get_CNTR_OVS:drv <- [DW_OP_LLVM_entry_value 1] $r0
	.loc	2 214 22 is_stmt 0              @ ../../../../Library/StdDriver/src/npu/ethosu_pmu.c:214:22
	ldr	r0, [r0]
	.loc	2 214 36                        @ ../../../../Library/StdDriver/src/npu/ethosu_pmu.c:214:36
	ldr.w	r0, [r0, #396]
	.loc	2 214 5                         @ ../../../../Library/StdDriver/src/npu/ethosu_pmu.c:214:5
	bx	lr
.Ltmp219:
.Lfunc_end14:
	.size	ETHOSU_PMU_Get_CNTR_OVS, .Lfunc_end14-ETHOSU_PMU_Get_CNTR_OVS
	.cfi_endproc
	.cantunwind
	.fnend
                                        @ -- End function
	.section	.text.ETHOSU_PMU_Set_CNTR_OVS,"ax",%progbits
	.hidden	ETHOSU_PMU_Set_CNTR_OVS         @ -- Begin function ETHOSU_PMU_Set_CNTR_OVS
	.globl	ETHOSU_PMU_Set_CNTR_OVS
	.p2align	2
	.type	ETHOSU_PMU_Set_CNTR_OVS,%function
	.code	16                              @ @ETHOSU_PMU_Set_CNTR_OVS
	.thumb_func
ETHOSU_PMU_Set_CNTR_OVS:
.Lfunc_begin15:
	.loc	2 218 0 is_stmt 1               @ ../../../../Library/StdDriver/src/npu/ethosu_pmu.c:218:0
	.fnstart
	.cfi_startproc
@ %bb.0:
	@DEBUG_VALUE: ETHOSU_PMU_Set_CNTR_OVS:drv <- $r0
	@DEBUG_VALUE: ETHOSU_PMU_Set_CNTR_OVS:drv <- $r0
	@DEBUG_VALUE: ETHOSU_PMU_Set_CNTR_OVS:mask <- $r1
	.loc	2 220 10 prologue_end           @ ../../../../Library/StdDriver/src/npu/ethosu_pmu.c:220:10
	ldr	r0, [r0]
.Ltmp220:
	@DEBUG_VALUE: ETHOSU_PMU_Set_CNTR_OVS:drv <- [DW_OP_LLVM_entry_value 1] $r0
	.loc	2 220 15 is_stmt 0              @ ../../../../Library/StdDriver/src/npu/ethosu_pmu.c:220:15
	ldr	r0, [r0]
	@DEBUG_VALUE: ETHOSU_PMU_Set_CNTR_OVS:mask <- $r1
	.loc	2 220 34                        @ ../../../../Library/StdDriver/src/npu/ethosu_pmu.c:220:34
	str.w	r1, [r0, #400]
	.loc	2 221 1 is_stmt 1               @ ../../../../Library/StdDriver/src/npu/ethosu_pmu.c:221:1
	bx	lr
.Ltmp221:
.Lfunc_end15:
	.size	ETHOSU_PMU_Set_CNTR_OVS, .Lfunc_end15-ETHOSU_PMU_Set_CNTR_OVS
	.cfi_endproc
	.cantunwind
	.fnend
                                        @ -- End function
	.section	.text.ETHOSU_PMU_Set_CNTR_IRQ_Enable,"ax",%progbits
	.hidden	ETHOSU_PMU_Set_CNTR_IRQ_Enable  @ -- Begin function ETHOSU_PMU_Set_CNTR_IRQ_Enable
	.globl	ETHOSU_PMU_Set_CNTR_IRQ_Enable
	.p2align	2
	.type	ETHOSU_PMU_Set_CNTR_IRQ_Enable,%function
	.code	16                              @ @ETHOSU_PMU_Set_CNTR_IRQ_Enable
	.thumb_func
ETHOSU_PMU_Set_CNTR_IRQ_Enable:
.Lfunc_begin16:
	.loc	2 224 0                         @ ../../../../Library/StdDriver/src/npu/ethosu_pmu.c:224:0
	.fnstart
	.cfi_startproc
@ %bb.0:
	@DEBUG_VALUE: ETHOSU_PMU_Set_CNTR_IRQ_Enable:drv <- $r0
	@DEBUG_VALUE: ETHOSU_PMU_Set_CNTR_IRQ_Enable:drv <- $r0
	@DEBUG_VALUE: ETHOSU_PMU_Set_CNTR_IRQ_Enable:mask <- $r1
	.loc	2 226 10 prologue_end           @ ../../../../Library/StdDriver/src/npu/ethosu_pmu.c:226:10
	ldr	r0, [r0]
.Ltmp222:
	@DEBUG_VALUE: ETHOSU_PMU_Set_CNTR_IRQ_Enable:drv <- [DW_OP_LLVM_entry_value 1] $r0
	.loc	2 226 15 is_stmt 0              @ ../../../../Library/StdDriver/src/npu/ethosu_pmu.c:226:15
	ldr	r0, [r0]
	@DEBUG_VALUE: ETHOSU_PMU_Set_CNTR_IRQ_Enable:mask <- $r1
	.loc	2 226 34                        @ ../../../../Library/StdDriver/src/npu/ethosu_pmu.c:226:34
	str.w	r1, [r0, #404]
	.loc	2 227 1 is_stmt 1               @ ../../../../Library/StdDriver/src/npu/ethosu_pmu.c:227:1
	bx	lr
.Ltmp223:
.Lfunc_end16:
	.size	ETHOSU_PMU_Set_CNTR_IRQ_Enable, .Lfunc_end16-ETHOSU_PMU_Set_CNTR_IRQ_Enable
	.cfi_endproc
	.cantunwind
	.fnend
                                        @ -- End function
	.section	.text.ETHOSU_PMU_Set_CNTR_IRQ_Disable,"ax",%progbits
	.hidden	ETHOSU_PMU_Set_CNTR_IRQ_Disable @ -- Begin function ETHOSU_PMU_Set_CNTR_IRQ_Disable
	.globl	ETHOSU_PMU_Set_CNTR_IRQ_Disable
	.p2align	2
	.type	ETHOSU_PMU_Set_CNTR_IRQ_Disable,%function
	.code	16                              @ @ETHOSU_PMU_Set_CNTR_IRQ_Disable
	.thumb_func
ETHOSU_PMU_Set_CNTR_IRQ_Disable:
.Lfunc_begin17:
	.loc	2 230 0                         @ ../../../../Library/StdDriver/src/npu/ethosu_pmu.c:230:0
	.fnstart
	.cfi_startproc
@ %bb.0:
	@DEBUG_VALUE: ETHOSU_PMU_Set_CNTR_IRQ_Disable:drv <- $r0
	@DEBUG_VALUE: ETHOSU_PMU_Set_CNTR_IRQ_Disable:drv <- $r0
	@DEBUG_VALUE: ETHOSU_PMU_Set_CNTR_IRQ_Disable:mask <- $r1
	.loc	2 232 10 prologue_end           @ ../../../../Library/StdDriver/src/npu/ethosu_pmu.c:232:10
	ldr	r0, [r0]
.Ltmp224:
	@DEBUG_VALUE: ETHOSU_PMU_Set_CNTR_IRQ_Disable:drv <- [DW_OP_LLVM_entry_value 1] $r0
	.loc	2 232 15 is_stmt 0              @ ../../../../Library/StdDriver/src/npu/ethosu_pmu.c:232:15
	ldr	r0, [r0]
	@DEBUG_VALUE: ETHOSU_PMU_Set_CNTR_IRQ_Disable:mask <- $r1
	.loc	2 232 34                        @ ../../../../Library/StdDriver/src/npu/ethosu_pmu.c:232:34
	str.w	r1, [r0, #408]
	.loc	2 233 1 is_stmt 1               @ ../../../../Library/StdDriver/src/npu/ethosu_pmu.c:233:1
	bx	lr
.Ltmp225:
.Lfunc_end17:
	.size	ETHOSU_PMU_Set_CNTR_IRQ_Disable, .Lfunc_end17-ETHOSU_PMU_Set_CNTR_IRQ_Disable
	.cfi_endproc
	.cantunwind
	.fnend
                                        @ -- End function
	.section	.text.ETHOSU_PMU_Get_IRQ_Enable,"ax",%progbits
	.hidden	ETHOSU_PMU_Get_IRQ_Enable       @ -- Begin function ETHOSU_PMU_Get_IRQ_Enable
	.globl	ETHOSU_PMU_Get_IRQ_Enable
	.p2align	2
	.type	ETHOSU_PMU_Get_IRQ_Enable,%function
	.code	16                              @ @ETHOSU_PMU_Get_IRQ_Enable
	.thumb_func
ETHOSU_PMU_Get_IRQ_Enable:
.Lfunc_begin18:
	.loc	2 236 0                         @ ../../../../Library/StdDriver/src/npu/ethosu_pmu.c:236:0
	.fnstart
	.cfi_startproc
@ %bb.0:
	@DEBUG_VALUE: ETHOSU_PMU_Get_IRQ_Enable:drv <- $r0
	@DEBUG_VALUE: ETHOSU_PMU_Get_IRQ_Enable:drv <- $r0
	.loc	2 237 27 prologue_end           @ ../../../../Library/StdDriver/src/npu/ethosu_pmu.c:237:27
	ldr	r0, [r0]
.Ltmp226:
	@DEBUG_VALUE: ETHOSU_PMU_Get_IRQ_Enable:drv <- [DW_OP_LLVM_entry_value 1] $r0
	.loc	2 237 32 is_stmt 0              @ ../../../../Library/StdDriver/src/npu/ethosu_pmu.c:237:32
	ldr	r0, [r0]
	.loc	2 237 46                        @ ../../../../Library/StdDriver/src/npu/ethosu_pmu.c:237:46
	ldr.w	r0, [r0, #404]
.Ltmp227:
	@DEBUG_VALUE: ETHOSU_PMU_Get_IRQ_Enable:pmint <- $r0
	.loc	2 239 5 is_stmt 1               @ ../../../../Library/StdDriver/src/npu/ethosu_pmu.c:239:5
	bx	lr
.Ltmp228:
.Lfunc_end18:
	.size	ETHOSU_PMU_Get_IRQ_Enable, .Lfunc_end18-ETHOSU_PMU_Get_IRQ_Enable
	.cfi_endproc
	.cantunwind
	.fnend
                                        @ -- End function
	.section	.text.ETHOSU_PMU_CNTR_Increment,"ax",%progbits
	.hidden	ETHOSU_PMU_CNTR_Increment       @ -- Begin function ETHOSU_PMU_CNTR_Increment
	.globl	ETHOSU_PMU_CNTR_Increment
	.p2align	2
	.type	ETHOSU_PMU_CNTR_Increment,%function
	.code	16                              @ @ETHOSU_PMU_CNTR_Increment
	.thumb_func
ETHOSU_PMU_CNTR_Increment:
.Lfunc_begin19:
	.loc	2 243 0                         @ ../../../../Library/StdDriver/src/npu/ethosu_pmu.c:243:0
	.fnstart
	.cfi_startproc
@ %bb.0:
	@DEBUG_VALUE: ETHOSU_PMU_CNTR_Increment:drv <- $r0
	@DEBUG_VALUE: ETHOSU_PMU_CNTR_Increment:drv <- $r0
	@DEBUG_VALUE: ETHOSU_PMU_CNTR_Increment:mask <- $r1
	@DEBUG_VALUE: ETHOSU_PMU_CNTR_Status:drv <- $r0
	@DEBUG_VALUE: ETHOSU_PMU_CNTR_Status:drv <- $r0
	.save	{r4, lr}
	push	{r4, lr}
	.cfi_def_cfa_offset 8
	.cfi_offset lr, -4
	.cfi_offset r4, -8
.Ltmp229:
	.loc	2 160 32 prologue_end           @ ../../../../Library/StdDriver/src/npu/ethosu_pmu.c:160:32
	ldr	r2, [r0]
.Ltmp230:
	.loc	2 251 9                         @ ../../../../Library/StdDriver/src/npu/ethosu_pmu.c:251:9
	cmp.w	r1, #-1
.Ltmp231:
	@DEBUG_VALUE: ETHOSU_PMU_CNTR_Disable:mask <- $r1
	@DEBUG_VALUE: ETHOSU_PMU_CNTR_Disable:drv <- $r0
	.loc	2 160 37                        @ ../../../../Library/StdDriver/src/npu/ethosu_pmu.c:160:37
	ldr	r3, [r2]
	@DEBUG_VALUE: ETHOSU_PMU_CNTR_Increment:mask <- $r1
	.loc	2 160 53 is_stmt 0              @ ../../../../Library/StdDriver/src/npu/ethosu_pmu.c:160:53
	ldr.w	r12, [r3, #388]
.Ltmp232:
	@DEBUG_VALUE: ETHOSU_PMU_CNTR_Increment:cntrs_active <- $r12
	@DEBUG_VALUE: ETHOSU_PMU_CNTR_Status:pmcntenset <- $r12
	.loc	2 155 36 is_stmt 1              @ ../../../../Library/StdDriver/src/npu/ethosu_pmu.c:155:36
	str.w	r1, [r3, #392]
.Ltmp233:
	.loc	2 251 9                         @ ../../../../Library/StdDriver/src/npu/ethosu_pmu.c:251:9
	ble	.LBB19_7
.Ltmp234:
@ %bb.1:
	@DEBUG_VALUE: ETHOSU_PMU_CNTR_Increment:cntrs_active <- $r12
	@DEBUG_VALUE: ETHOSU_PMU_CNTR_Increment:mask <- $r1
	@DEBUG_VALUE: ETHOSU_PMU_CNTR_Increment:drv <- $r0
	@DEBUG_VALUE: i <- 0
	.loc	2 260 13                        @ ../../../../Library/StdDriver/src/npu/ethosu_pmu.c:260:13
	lsls	r2, r1, #31
	bne	.LBB19_8
.Ltmp235:
.LBB19_2:
	@DEBUG_VALUE: ETHOSU_PMU_CNTR_Increment:cntrs_active <- $r12
	@DEBUG_VALUE: ETHOSU_PMU_CNTR_Increment:mask <- $r1
	@DEBUG_VALUE: ETHOSU_PMU_CNTR_Increment:drv <- $r0
	@DEBUG_VALUE: i <- 0
	@DEBUG_VALUE: i <- 1
	lsls	r2, r1, #30
	bmi	.LBB19_9
.Ltmp236:
.LBB19_3:
	@DEBUG_VALUE: ETHOSU_PMU_CNTR_Increment:cntrs_active <- $r12
	@DEBUG_VALUE: ETHOSU_PMU_CNTR_Increment:mask <- $r1
	@DEBUG_VALUE: ETHOSU_PMU_CNTR_Increment:drv <- $r0
	@DEBUG_VALUE: i <- 1
	@DEBUG_VALUE: i <- 2
	lsls	r2, r1, #29
	bmi	.LBB19_10
.Ltmp237:
.LBB19_4:
	@DEBUG_VALUE: ETHOSU_PMU_CNTR_Increment:cntrs_active <- $r12
	@DEBUG_VALUE: ETHOSU_PMU_CNTR_Increment:mask <- $r1
	@DEBUG_VALUE: ETHOSU_PMU_CNTR_Increment:drv <- $r0
	@DEBUG_VALUE: i <- 2
	@DEBUG_VALUE: i <- 3
	lsls	r1, r1, #28
.Ltmp238:
	@DEBUG_VALUE: ETHOSU_PMU_CNTR_Increment:mask <- [DW_OP_LLVM_entry_value 1] $r1
	bpl	.LBB19_6
.Ltmp239:
.LBB19_5:
	@DEBUG_VALUE: ETHOSU_PMU_CNTR_Increment:cntrs_active <- $r12
	@DEBUG_VALUE: ETHOSU_PMU_CNTR_Increment:drv <- $r0
	@DEBUG_VALUE: ETHOSU_PMU_CNTR_Increment:mask <- [DW_OP_LLVM_entry_value 1] $r1
	@DEBUG_VALUE: i <- 3
	@DEBUG_VALUE: ETHOSU_PMU_Get_EVCNTR:drv <- $r0
	@DEBUG_VALUE: ETHOSU_PMU_Get_EVCNTR:num <- 3
	.loc	2 198 25                        @ ../../../../Library/StdDriver/src/npu/ethosu_pmu.c:198:25
	ldr	r1, [r0]
	.loc	2 198 30 is_stmt 0              @ ../../../../Library/StdDriver/src/npu/ethosu_pmu.c:198:30
	ldr	r1, [r1]
	.loc	2 198 49                        @ ../../../../Library/StdDriver/src/npu/ethosu_pmu.c:198:49
	ldr.w	r2, [r1, #780]
.Ltmp240:
	@DEBUG_VALUE: val <- $r2
	@DEBUG_VALUE: ETHOSU_PMU_Get_EVCNTR:val <- $r2
	.loc	2 263 51 is_stmt 1              @ ../../../../Library/StdDriver/src/npu/ethosu_pmu.c:263:51
	adds	r2, #1
.Ltmp241:
	.loc	2 263 45 is_stmt 0              @ ../../../../Library/StdDriver/src/npu/ethosu_pmu.c:263:45
	str.w	r2, [r1, #780]
.Ltmp242:
.LBB19_6:
	@DEBUG_VALUE: ETHOSU_PMU_CNTR_Increment:cntrs_active <- $r12
	@DEBUG_VALUE: ETHOSU_PMU_CNTR_Increment:drv <- $r0
	@DEBUG_VALUE: ETHOSU_PMU_CNTR_Increment:mask <- [DW_OP_LLVM_entry_value 1] $r1
	@DEBUG_VALUE: i <- 4
	@DEBUG_VALUE: ETHOSU_PMU_CNTR_Enable:drv <- $r0
	@DEBUG_VALUE: ETHOSU_PMU_CNTR_Enable:mask <- $r12
	.loc	2 149 10 is_stmt 1              @ ../../../../Library/StdDriver/src/npu/ethosu_pmu.c:149:10
	ldr	r0, [r0]
.Ltmp243:
	@DEBUG_VALUE: ETHOSU_PMU_CNTR_Increment:drv <- [DW_OP_LLVM_entry_value 1] $r0
	.loc	2 149 15 is_stmt 0              @ ../../../../Library/StdDriver/src/npu/ethosu_pmu.c:149:15
	ldr	r0, [r0]
	.loc	2 149 36                        @ ../../../../Library/StdDriver/src/npu/ethosu_pmu.c:149:36
	str.w	r12, [r0, #388]
.Ltmp244:
	.loc	2 269 1 is_stmt 1               @ ../../../../Library/StdDriver/src/npu/ethosu_pmu.c:269:1
	pop	{r4, pc}
.Ltmp245:
.LBB19_7:
	@DEBUG_VALUE: ETHOSU_PMU_CNTR_Increment:cntrs_active <- $r12
	@DEBUG_VALUE: ETHOSU_PMU_CNTR_Increment:mask <- $r1
	@DEBUG_VALUE: ETHOSU_PMU_CNTR_Increment:drv <- $r0
	@DEBUG_VALUE: ETHOSU_PMU_Get_CCNTR:drv <- $r0
	.loc	2 167 28                        @ ../../../../Library/StdDriver/src/npu/ethosu_pmu.c:167:28
	ldr	r3, [r0]
	.loc	2 167 33 is_stmt 0              @ ../../../../Library/StdDriver/src/npu/ethosu_pmu.c:167:33
	ldr	r3, [r3]
	.loc	2 167 46                        @ ../../../../Library/StdDriver/src/npu/ethosu_pmu.c:167:46
	ldr.w	r2, [r3, #416]
.Ltmp246:
	@DEBUG_VALUE: ETHOSU_PMU_Get_CCNTR:val_lo <- undef
	.loc	2 168 46 is_stmt 1              @ ../../../../Library/StdDriver/src/npu/ethosu_pmu.c:168:46
	ldr.w	lr, [r3, #420]
.Ltmp247:
	.loc	2 253 73                        @ ../../../../Library/StdDriver/src/npu/ethosu_pmu.c:253:73
	adds	r2, #1
.Ltmp248:
	@DEBUG_VALUE: val <- [DW_OP_LLVM_fragment 0 32] $r2
	.loc	2 254 45                        @ ../../../../Library/StdDriver/src/npu/ethosu_pmu.c:254:45
	ldr.w	r4, [r3, #416]
	str.w	r2, [r3, #416]
.Ltmp249:
	.loc	2 168 46                        @ ../../../../Library/StdDriver/src/npu/ethosu_pmu.c:168:46
	uxth.w	r3, lr
.Ltmp250:
	@DEBUG_VALUE: ETHOSU_PMU_Get_CCNTR:val <- [DW_OP_LLVM_fragment 32 32] $r3
	@DEBUG_VALUE: ETHOSU_PMU_Get_CCNTR:val <- [DW_OP_LLVM_fragment 0 32] undef
	@DEBUG_VALUE: ETHOSU_PMU_Get_CCNTR:val_hi <- $r3
	@DEBUG_VALUE: ETHOSU_PMU_Get_CCNTR:drv <- $r0
	.loc	2 255 14                        @ ../../../../Library/StdDriver/src/npu/ethosu_pmu.c:255:14
	ldr	r2, [r0]
.Ltmp251:
	.loc	2 253 73                        @ ../../../../Library/StdDriver/src/npu/ethosu_pmu.c:253:73
	adc	r3, r3, #0
.Ltmp252:
	@DEBUG_VALUE: val <- [DW_OP_LLVM_fragment 32 32] $r3
	.loc	2 255 19                        @ ../../../../Library/StdDriver/src/npu/ethosu_pmu.c:255:19
	ldr	r2, [r2]
	.loc	2 255 45 is_stmt 0              @ ../../../../Library/StdDriver/src/npu/ethosu_pmu.c:255:45
	ldr.w	r4, [r2, #420]
	pkhbt	r3, r3, r4
.Ltmp253:
	str.w	r3, [r2, #420]
.Ltmp254:
	@DEBUG_VALUE: i <- 0
	.loc	2 260 13 is_stmt 1              @ ../../../../Library/StdDriver/src/npu/ethosu_pmu.c:260:13
	lsls	r2, r1, #31
	beq	.LBB19_2
.Ltmp255:
.LBB19_8:
	@DEBUG_VALUE: ETHOSU_PMU_CNTR_Increment:cntrs_active <- $r12
	@DEBUG_VALUE: ETHOSU_PMU_CNTR_Increment:mask <- $r1
	@DEBUG_VALUE: ETHOSU_PMU_CNTR_Increment:drv <- $r0
	@DEBUG_VALUE: i <- 0
	@DEBUG_VALUE: ETHOSU_PMU_Get_EVCNTR:drv <- $r0
	@DEBUG_VALUE: ETHOSU_PMU_Get_EVCNTR:num <- 0
	.loc	2 198 25                        @ ../../../../Library/StdDriver/src/npu/ethosu_pmu.c:198:25
	ldr	r2, [r0]
	.loc	2 198 30 is_stmt 0              @ ../../../../Library/StdDriver/src/npu/ethosu_pmu.c:198:30
	ldr	r2, [r2]
	.loc	2 198 49                        @ ../../../../Library/StdDriver/src/npu/ethosu_pmu.c:198:49
	ldr.w	r3, [r2, #768]
.Ltmp256:
	@DEBUG_VALUE: val <- $r3
	@DEBUG_VALUE: ETHOSU_PMU_Get_EVCNTR:val <- $r3
	.loc	2 263 51 is_stmt 1              @ ../../../../Library/StdDriver/src/npu/ethosu_pmu.c:263:51
	adds	r3, #1
.Ltmp257:
	.loc	2 263 45 is_stmt 0              @ ../../../../Library/StdDriver/src/npu/ethosu_pmu.c:263:45
	str.w	r3, [r2, #768]
.Ltmp258:
	@DEBUG_VALUE: i <- 1
	.loc	2 260 13 is_stmt 1              @ ../../../../Library/StdDriver/src/npu/ethosu_pmu.c:260:13
	lsls	r2, r1, #30
	bpl	.LBB19_3
.Ltmp259:
.LBB19_9:
	@DEBUG_VALUE: ETHOSU_PMU_CNTR_Increment:cntrs_active <- $r12
	@DEBUG_VALUE: ETHOSU_PMU_CNTR_Increment:mask <- $r1
	@DEBUG_VALUE: ETHOSU_PMU_CNTR_Increment:drv <- $r0
	@DEBUG_VALUE: i <- 1
	@DEBUG_VALUE: ETHOSU_PMU_Get_EVCNTR:drv <- $r0
	@DEBUG_VALUE: ETHOSU_PMU_Get_EVCNTR:num <- 1
	.loc	2 198 25                        @ ../../../../Library/StdDriver/src/npu/ethosu_pmu.c:198:25
	ldr	r2, [r0]
	.loc	2 198 30 is_stmt 0              @ ../../../../Library/StdDriver/src/npu/ethosu_pmu.c:198:30
	ldr	r2, [r2]
	.loc	2 198 49                        @ ../../../../Library/StdDriver/src/npu/ethosu_pmu.c:198:49
	ldr.w	r3, [r2, #772]
.Ltmp260:
	@DEBUG_VALUE: val <- $r3
	@DEBUG_VALUE: ETHOSU_PMU_Get_EVCNTR:val <- $r3
	.loc	2 263 51 is_stmt 1              @ ../../../../Library/StdDriver/src/npu/ethosu_pmu.c:263:51
	adds	r3, #1
.Ltmp261:
	.loc	2 263 45 is_stmt 0              @ ../../../../Library/StdDriver/src/npu/ethosu_pmu.c:263:45
	str.w	r3, [r2, #772]
.Ltmp262:
	@DEBUG_VALUE: i <- 2
	.loc	2 260 13 is_stmt 1              @ ../../../../Library/StdDriver/src/npu/ethosu_pmu.c:260:13
	lsls	r2, r1, #29
	bpl	.LBB19_4
.Ltmp263:
.LBB19_10:
	@DEBUG_VALUE: ETHOSU_PMU_CNTR_Increment:cntrs_active <- $r12
	@DEBUG_VALUE: ETHOSU_PMU_CNTR_Increment:mask <- $r1
	@DEBUG_VALUE: ETHOSU_PMU_CNTR_Increment:drv <- $r0
	@DEBUG_VALUE: i <- 2
	@DEBUG_VALUE: ETHOSU_PMU_Get_EVCNTR:drv <- $r0
	@DEBUG_VALUE: ETHOSU_PMU_Get_EVCNTR:num <- 2
	.loc	2 198 25                        @ ../../../../Library/StdDriver/src/npu/ethosu_pmu.c:198:25
	ldr	r2, [r0]
	.loc	2 198 30 is_stmt 0              @ ../../../../Library/StdDriver/src/npu/ethosu_pmu.c:198:30
	ldr	r2, [r2]
	.loc	2 198 49                        @ ../../../../Library/StdDriver/src/npu/ethosu_pmu.c:198:49
	ldr.w	r3, [r2, #776]
.Ltmp264:
	@DEBUG_VALUE: val <- $r3
	@DEBUG_VALUE: ETHOSU_PMU_Get_EVCNTR:val <- $r3
	.loc	2 263 51 is_stmt 1              @ ../../../../Library/StdDriver/src/npu/ethosu_pmu.c:263:51
	adds	r3, #1
.Ltmp265:
	.loc	2 263 45 is_stmt 0              @ ../../../../Library/StdDriver/src/npu/ethosu_pmu.c:263:45
	str.w	r3, [r2, #776]
.Ltmp266:
	@DEBUG_VALUE: i <- 3
	.loc	2 260 13 is_stmt 1              @ ../../../../Library/StdDriver/src/npu/ethosu_pmu.c:260:13
	lsls	r1, r1, #28
.Ltmp267:
	@DEBUG_VALUE: ETHOSU_PMU_CNTR_Increment:mask <- [DW_OP_LLVM_entry_value 1] $r1
	bpl	.LBB19_6
	b	.LBB19_5
.Ltmp268:
.Lfunc_end19:
	.size	ETHOSU_PMU_CNTR_Increment, .Lfunc_end19-ETHOSU_PMU_CNTR_Increment
	.cfi_endproc
	.cantunwind
	.fnend
                                        @ -- End function
	.section	.text.ETHOSU_PMU_PMCCNTR_CFG_Set_Start_Event,"ax",%progbits
	.hidden	ETHOSU_PMU_PMCCNTR_CFG_Set_Start_Event @ -- Begin function ETHOSU_PMU_PMCCNTR_CFG_Set_Start_Event
	.globl	ETHOSU_PMU_PMCCNTR_CFG_Set_Start_Event
	.p2align	2
	.type	ETHOSU_PMU_PMCCNTR_CFG_Set_Start_Event,%function
	.code	16                              @ @ETHOSU_PMU_PMCCNTR_CFG_Set_Start_Event
	.thumb_func
ETHOSU_PMU_PMCCNTR_CFG_Set_Start_Event:
.Lfunc_begin20:
	.loc	2 272 0                         @ ../../../../Library/StdDriver/src/npu/ethosu_pmu.c:272:0
	.fnstart
	.cfi_startproc
@ %bb.0:
	@DEBUG_VALUE: ETHOSU_PMU_PMCCNTR_CFG_Set_Start_Event:drv <- $r0
	@DEBUG_VALUE: ETHOSU_PMU_PMCCNTR_CFG_Set_Start_Event:start_event <- $r1
	@DEBUG_VALUE: ETHOSU_PMU_PMCCNTR_CFG_Set_Start_Event:start_event <- $r1
	@DEBUG_VALUE: pmu_event_value:event <- $r1
	@DEBUG_VALUE: pmu_event_value:event <- $r1
	@DEBUG_VALUE: pmu_event_value:a <- [DW_OP_LLVM_convert 8 7, DW_OP_LLVM_convert 32 7, DW_OP_stack_value] $r1
	@DEBUG_VALUE: pmu_event_value:a <- [DW_OP_LLVM_convert 8 7, DW_OP_LLVM_convert 32 7, DW_OP_stack_value] $r1
	.loc	2 76 35 prologue_end            @ ../../../../Library/StdDriver/src/npu/ethosu_pmu.c:76:35
	cmp	r1, #73
	@DEBUG_VALUE: ETHOSU_PMU_PMCCNTR_CFG_Set_Start_Event:drv <- $r0
	bhi	.LBB20_2
.Ltmp269:
@ %bb.1:
	@DEBUG_VALUE: pmu_event_value:a <- [DW_OP_LLVM_convert 8 7, DW_OP_LLVM_convert 32 7, DW_OP_stack_value] $r1
	@DEBUG_VALUE: pmu_event_value:event <- $r1
	@DEBUG_VALUE: ETHOSU_PMU_PMCCNTR_CFG_Set_Start_Event:start_event <- $r1
	@DEBUG_VALUE: ETHOSU_PMU_PMCCNTR_CFG_Set_Start_Event:drv <- $r0
	@DEBUG_VALUE: pmu_event_value:a <- $r1
	.loc	2 78 16                         @ ../../../../Library/StdDriver/src/npu/ethosu_pmu.c:78:16
	movw	r2, :lower16:eventbyid
	movt	r2, :upper16:eventbyid
	ldrh.w	r1, [r2, r1, lsl #1]
.Ltmp270:
	@DEBUG_VALUE: ETHOSU_PMU_PMCCNTR_CFG_Set_Start_Event:start_event <- [DW_OP_LLVM_entry_value 1] $r1
	.loc	2 78 9 is_stmt 0                @ ../../../../Library/StdDriver/src/npu/ethosu_pmu.c:78:9
	bfc	r1, #10, #22
	b	.LBB20_3
.Ltmp271:
.LBB20_2:
	@DEBUG_VALUE: pmu_event_value:a <- [DW_OP_LLVM_convert 8 7, DW_OP_LLVM_convert 32 7, DW_OP_stack_value] $r1
	@DEBUG_VALUE: pmu_event_value:event <- $r1
	@DEBUG_VALUE: ETHOSU_PMU_PMCCNTR_CFG_Set_Start_Event:start_event <- $r1
	@DEBUG_VALUE: ETHOSU_PMU_PMCCNTR_CFG_Set_Start_Event:drv <- $r0
	.loc	2 0 9                           @ ../../../../Library/StdDriver/src/npu/ethosu_pmu.c:0:9
	movw	r1, #1023
.Ltmp272:
	@DEBUG_VALUE: ETHOSU_PMU_PMCCNTR_CFG_Set_Start_Event:start_event <- [DW_OP_LLVM_entry_value 1] $r1
.LBB20_3:
	@DEBUG_VALUE: ETHOSU_PMU_PMCCNTR_CFG_Set_Start_Event:drv <- $r0
	@DEBUG_VALUE: ETHOSU_PMU_PMCCNTR_CFG_Set_Start_Event:start_event <- [DW_OP_LLVM_entry_value 1] $r1
	@DEBUG_VALUE: ETHOSU_PMU_PMCCNTR_CFG_Set_Start_Event:val <- undef
	.loc	2 276 44 is_stmt 1              @ ../../../../Library/StdDriver/src/npu/ethosu_pmu.c:276:44
	ldr	r0, [r0]
.Ltmp273:
	@DEBUG_VALUE: ETHOSU_PMU_PMCCNTR_CFG_Set_Start_Event:drv <- [DW_OP_LLVM_entry_value 1] $r0
	.loc	2 0 44 is_stmt 0                @ ../../../../Library/StdDriver/src/npu/ethosu_pmu.c:0:44
	movw	r3, #65535
	.loc	2 276 49                        @ ../../../../Library/StdDriver/src/npu/ethosu_pmu.c:276:49
	ldr	r0, [r0]
	.loc	2 276 66                        @ ../../../../Library/StdDriver/src/npu/ethosu_pmu.c:276:66
	ldr.w	r2, [r0, #424]
.Ltmp274:
	@DEBUG_VALUE: ETHOSU_PMU_PMCCNTR_CFG_Set_Start_Event:cfg <- [DW_OP_LLVM_convert 32 7, DW_OP_LLVM_convert 16 7, DW_OP_stack_value, DW_OP_LLVM_fragment 0 16] $r2
	.loc	2 278 5 is_stmt 1               @ ../../../../Library/StdDriver/src/npu/ethosu_pmu.c:278:5
	bic.w	r3, r2, r3
.Ltmp275:
	@DEBUG_VALUE: ETHOSU_PMU_PMCCNTR_CFG_Set_Start_Event:cfg <- [DW_OP_constu 16, DW_OP_shr, DW_OP_LLVM_convert 32 7, DW_OP_LLVM_convert 16 7, DW_OP_stack_value, DW_OP_LLVM_fragment 16 16] $r2
	.loc	2 277 37                        @ ../../../../Library/StdDriver/src/npu/ethosu_pmu.c:277:37
	and	r2, r2, #64512
.Ltmp276:
	add	r1, r2
.Ltmp277:
	@DEBUG_VALUE: ETHOSU_PMU_PMCCNTR_CFG_Set_Start_Event:cfg <- [DW_OP_LLVM_fragment 0 16] $r1
	.loc	2 278 5                         @ ../../../../Library/StdDriver/src/npu/ethosu_pmu.c:278:5
	add	r1, r3
.Ltmp278:
	.loc	2 278 37 is_stmt 0              @ ../../../../Library/StdDriver/src/npu/ethosu_pmu.c:278:37
	str.w	r1, [r0, #424]
	.loc	2 279 1 is_stmt 1               @ ../../../../Library/StdDriver/src/npu/ethosu_pmu.c:279:1
	bx	lr
.Ltmp279:
.Lfunc_end20:
	.size	ETHOSU_PMU_PMCCNTR_CFG_Set_Start_Event, .Lfunc_end20-ETHOSU_PMU_PMCCNTR_CFG_Set_Start_Event
	.cfi_endproc
	.cantunwind
	.fnend
                                        @ -- End function
	.section	.text.ETHOSU_PMU_PMCCNTR_CFG_Set_Stop_Event,"ax",%progbits
	.hidden	ETHOSU_PMU_PMCCNTR_CFG_Set_Stop_Event @ -- Begin function ETHOSU_PMU_PMCCNTR_CFG_Set_Stop_Event
	.globl	ETHOSU_PMU_PMCCNTR_CFG_Set_Stop_Event
	.p2align	2
	.type	ETHOSU_PMU_PMCCNTR_CFG_Set_Stop_Event,%function
	.code	16                              @ @ETHOSU_PMU_PMCCNTR_CFG_Set_Stop_Event
	.thumb_func
ETHOSU_PMU_PMCCNTR_CFG_Set_Stop_Event:
.Lfunc_begin21:
	.loc	2 282 0                         @ ../../../../Library/StdDriver/src/npu/ethosu_pmu.c:282:0
	.fnstart
	.cfi_startproc
@ %bb.0:
	@DEBUG_VALUE: ETHOSU_PMU_PMCCNTR_CFG_Set_Stop_Event:drv <- $r0
	@DEBUG_VALUE: ETHOSU_PMU_PMCCNTR_CFG_Set_Stop_Event:drv <- $r0
	@DEBUG_VALUE: ETHOSU_PMU_PMCCNTR_CFG_Set_Stop_Event:stop_event <- $r1
	@DEBUG_VALUE: ETHOSU_PMU_PMCCNTR_CFG_Set_Stop_Event:stop_event <- $r1
	movs	r2, #0
.Ltmp280:
	.loc	2 76 35 prologue_end            @ ../../../../Library/StdDriver/src/npu/ethosu_pmu.c:76:35
	cmp	r1, #73
	movt	r2, #1023
.Ltmp281:
	@DEBUG_VALUE: pmu_event_value:a <- [DW_OP_LLVM_convert 8 7, DW_OP_LLVM_convert 32 7, DW_OP_stack_value] $r1
	@DEBUG_VALUE: pmu_event_value:event <- $r1
	bhi	.LBB21_2
.Ltmp282:
@ %bb.1:
	@DEBUG_VALUE: pmu_event_value:event <- $r1
	@DEBUG_VALUE: pmu_event_value:a <- [DW_OP_LLVM_convert 8 7, DW_OP_LLVM_convert 32 7, DW_OP_stack_value] $r1
	@DEBUG_VALUE: ETHOSU_PMU_PMCCNTR_CFG_Set_Stop_Event:stop_event <- $r1
	@DEBUG_VALUE: ETHOSU_PMU_PMCCNTR_CFG_Set_Stop_Event:drv <- $r0
	@DEBUG_VALUE: pmu_event_value:a <- $r1
	.loc	2 78 16                         @ ../../../../Library/StdDriver/src/npu/ethosu_pmu.c:78:16
	movw	r3, :lower16:eventbyid
	movt	r3, :upper16:eventbyid
	ldrh.w	r1, [r3, r1, lsl #1]
.Ltmp283:
	@DEBUG_VALUE: ETHOSU_PMU_PMCCNTR_CFG_Set_Stop_Event:stop_event <- [DW_OP_LLVM_entry_value 1] $r1
	.loc	2 78 9 is_stmt 0                @ ../../../../Library/StdDriver/src/npu/ethosu_pmu.c:78:9
	and.w	r2, r2, r1, lsl #16
.Ltmp284:
.LBB21_2:
	@DEBUG_VALUE: ETHOSU_PMU_PMCCNTR_CFG_Set_Stop_Event:drv <- $r0
	@DEBUG_VALUE: ETHOSU_PMU_PMCCNTR_CFG_Set_Stop_Event:val <- undef
	.loc	2 286 44 is_stmt 1              @ ../../../../Library/StdDriver/src/npu/ethosu_pmu.c:286:44
	ldr	r0, [r0]
.Ltmp285:
	@DEBUG_VALUE: ETHOSU_PMU_PMCCNTR_CFG_Set_Stop_Event:drv <- [DW_OP_LLVM_entry_value 1] $r0
	.loc	2 286 49 is_stmt 0              @ ../../../../Library/StdDriver/src/npu/ethosu_pmu.c:286:49
	ldr	r0, [r0]
	.loc	2 286 66                        @ ../../../../Library/StdDriver/src/npu/ethosu_pmu.c:286:66
	ldr.w	r1, [r0, #424]
.Ltmp286:
	@DEBUG_VALUE: ETHOSU_PMU_PMCCNTR_CFG_Set_Stop_Event:cfg <- [DW_OP_LLVM_fragment 16 16] undef
	@DEBUG_VALUE: ETHOSU_PMU_PMCCNTR_CFG_Set_Stop_Event:cfg <- [DW_OP_LLVM_convert 32 7, DW_OP_LLVM_convert 16 7, DW_OP_stack_value, DW_OP_LLVM_fragment 0 16] $r1
	.loc	2 288 5 is_stmt 1               @ ../../../../Library/StdDriver/src/npu/ethosu_pmu.c:288:5
	and	r3, r1, #-67108864
	uxth	r1, r1
.Ltmp287:
	add	r2, r3
	orrs	r1, r2
	.loc	2 288 37 is_stmt 0              @ ../../../../Library/StdDriver/src/npu/ethosu_pmu.c:288:37
	str.w	r1, [r0, #424]
	.loc	2 289 1 is_stmt 1               @ ../../../../Library/StdDriver/src/npu/ethosu_pmu.c:289:1
	bx	lr
.Ltmp288:
.Lfunc_end21:
	.size	ETHOSU_PMU_PMCCNTR_CFG_Set_Stop_Event, .Lfunc_end21-ETHOSU_PMU_PMCCNTR_CFG_Set_Stop_Event
	.cfi_endproc
	.cantunwind
	.fnend
                                        @ -- End function
	.section	.text.ETHOSU_PMU_Get_QREAD,"ax",%progbits
	.hidden	ETHOSU_PMU_Get_QREAD            @ -- Begin function ETHOSU_PMU_Get_QREAD
	.globl	ETHOSU_PMU_Get_QREAD
	.p2align	2
	.type	ETHOSU_PMU_Get_QREAD,%function
	.code	16                              @ @ETHOSU_PMU_Get_QREAD
	.thumb_func
ETHOSU_PMU_Get_QREAD:
.Lfunc_begin22:
	.loc	2 292 0                         @ ../../../../Library/StdDriver/src/npu/ethosu_pmu.c:292:0
	.fnstart
	.cfi_startproc
@ %bb.0:
	@DEBUG_VALUE: ETHOSU_PMU_Get_QREAD:drv <- $r0
	@DEBUG_VALUE: ETHOSU_PMU_Get_QREAD:drv <- $r0
	.loc	2 293 25 prologue_end           @ ../../../../Library/StdDriver/src/npu/ethosu_pmu.c:293:25
	ldr	r0, [r0]
.Ltmp289:
	@DEBUG_VALUE: ETHOSU_PMU_Get_QREAD:drv <- [DW_OP_LLVM_entry_value 1] $r0
	.loc	2 293 30 is_stmt 0              @ ../../../../Library/StdDriver/src/npu/ethosu_pmu.c:293:30
	ldr	r0, [r0]
	.loc	2 293 41                        @ ../../../../Library/StdDriver/src/npu/ethosu_pmu.c:293:41
	ldr	r0, [r0, #24]
.Ltmp290:
	@DEBUG_VALUE: ETHOSU_PMU_Get_QREAD:val <- $r0
	.loc	2 295 5 is_stmt 1               @ ../../../../Library/StdDriver/src/npu/ethosu_pmu.c:295:5
	bx	lr
.Ltmp291:
.Lfunc_end22:
	.size	ETHOSU_PMU_Get_QREAD, .Lfunc_end22-ETHOSU_PMU_Get_QREAD
	.cfi_endproc
	.cantunwind
	.fnend
                                        @ -- End function
	.section	.text.ETHOSU_PMU_Get_STATUS,"ax",%progbits
	.hidden	ETHOSU_PMU_Get_STATUS           @ -- Begin function ETHOSU_PMU_Get_STATUS
	.globl	ETHOSU_PMU_Get_STATUS
	.p2align	2
	.type	ETHOSU_PMU_Get_STATUS,%function
	.code	16                              @ @ETHOSU_PMU_Get_STATUS
	.thumb_func
ETHOSU_PMU_Get_STATUS:
.Lfunc_begin23:
	.loc	2 299 0                         @ ../../../../Library/StdDriver/src/npu/ethosu_pmu.c:299:0
	.fnstart
	.cfi_startproc
@ %bb.0:
	@DEBUG_VALUE: ETHOSU_PMU_Get_STATUS:drv <- $r0
	@DEBUG_VALUE: ETHOSU_PMU_Get_STATUS:drv <- $r0
	.loc	2 300 25 prologue_end           @ ../../../../Library/StdDriver/src/npu/ethosu_pmu.c:300:25
	ldr	r0, [r0]
.Ltmp292:
	@DEBUG_VALUE: ETHOSU_PMU_Get_STATUS:drv <- [DW_OP_LLVM_entry_value 1] $r0
	.loc	2 300 30 is_stmt 0              @ ../../../../Library/StdDriver/src/npu/ethosu_pmu.c:300:30
	ldr	r0, [r0]
	.loc	2 300 42                        @ ../../../../Library/StdDriver/src/npu/ethosu_pmu.c:300:42
	ldr	r0, [r0, #4]
.Ltmp293:
	@DEBUG_VALUE: ETHOSU_PMU_Get_STATUS:val <- $r0
	.loc	2 302 5 is_stmt 1               @ ../../../../Library/StdDriver/src/npu/ethosu_pmu.c:302:5
	bx	lr
.Ltmp294:
.Lfunc_end23:
	.size	ETHOSU_PMU_Get_STATUS, .Lfunc_end23-ETHOSU_PMU_Get_STATUS
	.cfi_endproc
	.cantunwind
	.fnend
                                        @ -- End function
	.type	.L.str,%object                  @ @.str
	.section	.rodata.str1.1,"aMS",%progbits,1
.L.str:
	.asciz	"num < ETHOSU_PMU_NCOUNTERS"
	.size	.L.str, 27

	.type	.L.str.1,%object                @ @.str.1
.L.str.1:
	.asciz	"../../../../Library/StdDriver/src/npu/ethosu_pmu.c"
	.size	.L.str.1, 51

	.type	eventbyid,%object               @ @eventbyid
	.section	.rodata.eventbyid,"a",%progbits
	.p2align	1
eventbyid:
	.short	0                               @ 0x0
	.short	17                              @ 0x11
	.short	32                              @ 0x20
	.short	33                              @ 0x21
	.short	34                              @ 0x22
	.short	35                              @ 0x23
	.short	48                              @ 0x30
	.short	49                              @ 0x31
	.short	50                              @ 0x32
	.short	51                              @ 0x33
	.short	52                              @ 0x34
	.short	53                              @ 0x35
	.short	54                              @ 0x36
	.short	55                              @ 0x37
	.short	56                              @ 0x38
	.short	57                              @ 0x39
	.short	58                              @ 0x3a
	.short	64                              @ 0x40
	.short	65                              @ 0x41
	.short	66                              @ 0x42
	.short	67                              @ 0x43
	.short	68                              @ 0x44
	.short	69                              @ 0x45
	.short	70                              @ 0x46
	.short	71                              @ 0x47
	.short	72                              @ 0x48
	.short	80                              @ 0x50
	.short	81                              @ 0x51
	.short	82                              @ 0x52
	.short	83                              @ 0x53
	.short	84                              @ 0x54
	.short	85                              @ 0x55
	.short	86                              @ 0x56
	.short	87                              @ 0x57
	.short	88                              @ 0x58
	.short	89                              @ 0x59
	.short	90                              @ 0x5a
	.short	91                              @ 0x5b
	.short	128                             @ 0x80
	.short	129                             @ 0x81
	.short	130                             @ 0x82
	.short	131                             @ 0x83
	.short	132                             @ 0x84
	.short	133                             @ 0x85
	.short	134                             @ 0x86
	.short	135                             @ 0x87
	.short	136                             @ 0x88
	.short	137                             @ 0x89
	.short	140                             @ 0x8c
	.short	142                             @ 0x8e
	.short	143                             @ 0x8f
	.short	160                             @ 0xa0
	.short	161                             @ 0xa1
	.short	162                             @ 0xa2
	.short	163                             @ 0xa3
	.short	164                             @ 0xa4
	.short	165                             @ 0xa5
	.short	166                             @ 0xa6
	.short	176                             @ 0xb0
	.short	177                             @ 0xb1
	.short	384                             @ 0x180
	.short	385                             @ 0x181
	.short	386                             @ 0x182
	.short	387                             @ 0x183
	.short	388                             @ 0x184
	.short	389                             @ 0x185
	.short	390                             @ 0x186
	.short	391                             @ 0x187
	.short	392                             @ 0x188
	.short	393                             @ 0x189
	.short	396                             @ 0x18c
	.short	398                             @ 0x18e
	.short	399                             @ 0x18f
	.short	433                             @ 0x1b1
	.size	eventbyid, 148

	.globl	_printf_percent
	.globl	_printf_s
	.globl	_printf_x
	.globl	_printf_d
	.globl	_printf_int_dec
	.globl	_printf_longlong_hex
	.globl	_printf_str
	.hidden	_printf_percent
	.hidden	_printf_s
	.hidden	_printf_x
	.hidden	_printf_d
	.hidden	_printf_int_dec
	.hidden	_printf_longlong_hex
	.hidden	_printf_str
	.section	".note.GNU-stack","",%progbits
	.eabi_attribute	30, 1	@ Tag_ABI_optimization_goals
	.ARM_attribute	16, 1	@ Tag_AV_eba