	.text
	.syntax unified
	.eabi_attribute	67, "2.09"	@ Tag_conformance
	.cpu	cortex-m55
	.eabi_attribute	6, 21	@ Tag_CPU_arch
	.eabi_attribute	7, 77	@ Tag_CPU_arch_profile
	.eabi_attribute	8, 0	@ Tag_ARM_ISA_use
	.eabi_attribute	9, 3	@ Tag_THUMB_ISA_use
	.fpu	fpv5-d16
	.eabi_attribute	36, 1	@ Tag_FP_HP_extension
	.eabi_attribute	48, 2	@ Tag_MVE_arch
	.eabi_attribute	46, 1	@ Tag_DSP_extension
	.eabi_attribute	34, 1	@ Tag_CPU_unaligned_access
	.eabi_attribute	17, 1	@ Tag_ABI_PCS_GOT_use
	.eabi_attribute	20, 2	@ Tag_ABI_FP_denormal
	.eabi_attribute	21, 0	@ Tag_ABI_FP_exceptions
	.eabi_attribute	23, 1	@ Tag_ABI_FP_number_model
	.eabi_attribute	24, 1	@ Tag_ABI_align_needed
	.eabi_attribute	25, 1	@ Tag_ABI_align_preserved
	.eabi_attribute	28, 1	@ Tag_ABI_VFP_args
	.eabi_attribute	38, 1	@ Tag_ABI_FP_16bit_format
	.eabi_attribute	18, 2	@ Tag_ABI_PCS_wchar_t
	.eabi_attribute	26, 1	@ Tag_ABI_enum_size
	.eabi_attribute	14, 0	@ Tag_ABI_PCS_R9_use
	.file	"ImageUtils.cc"
	.file	1 "C:\\" "Keil_v5\\ARM\\ARMCLANG\\Bin\\..\\include\\libcxx\\limits"
	.file	2 "C:\\" "Keil_v5\\ARM\\ARMCLANG\\Bin\\..\\include\\stdint.h"
	.file	3 "C:\\Users\\CYCHEN38\\OpenNuvoton\\firmware\\M55M1BSP\\SampleCode\\MachineLearning\\ObjectDetection_FreeRTOS_yoloxn\\KEIL" "../../../../ThirdParty/ml-embedded-evaluation-kit/source/application/api/common/include\\ImageUtils.hpp"
	.file	4 "C:\\" "Keil_v5\\ARM\\ARMCLANG\\Bin\\..\\include\\libcxx\\memory"
	.file	5 "C:\\" "Keil_v5\\ARM\\ARMCLANG\\Bin\\..\\include\\string.h"
	.file	6 "C:\\" "Keil_v5\\ARM\\ARMCLANG\\Bin\\..\\include\\libcxx\\__memory\\allocator_traits.h"
	.file	7 "C:\\" "Keil_v5\\ARM\\ARMCLANG\\Bin\\..\\include\\libcxx\\vector"
	.file	8 "C:\\" "Keil_v5\\ARM\\ARMCLANG\\Bin\\..\\include\\libcxx\\type_traits"
	.file	9 "C:\\" "Keil_v5\\ARM\\ARMCLANG\\Bin\\..\\include\\libcxx\\forward_list"
	.file	10 "C:\\" "Keil_v5\\ARM\\ARMCLANG\\Bin\\..\\include\\libcxx\\__memory\\pointer_traits.h"
	.file	11 "C:\\" "Keil_v5\\ARM\\ARMCLANG\\Bin\\..\\include\\libcxx\\__nullptr"
	.file	12 "C:\\" "Keil_v5\\ARM\\ARMCLANG\\Bin\\..\\include\\stddef.h"
	.file	13 "C:\\" "Keil_v5\\ARM\\ARMCLANG\\Bin\\..\\include\\libcxx\\cstddef"
	.file	14 "C:\\" "Keil_v5\\ARM\\ARMCLANG\\Bin\\..\\include\\libcxx\\cstdint"
	.file	15 "C:\\" "Keil_v5\\ARM\\ARMCLANG\\Bin\\..\\include\\libcxx\\stddef.h"
	.file	16 "C:\\" "Keil_v5\\ARM\\ARMCLANG\\Bin\\..\\include\\wchar.h"
	.file	17 "C:\\" "Keil_v5\\ARM\\ARMCLANG\\Bin\\..\\include\\stdlib.h"
	.file	18 "C:\\" "Keil_v5\\ARM\\ARMCLANG\\Bin\\..\\include\\libcxx\\cstdlib"
	.file	19 "C:\\" "Keil_v5\\ARM\\ARMCLANG\\Bin\\..\\include\\libcxx\\stdlib.h"
	.file	20 "C:\\" "Keil_v5\\ARM\\ARMCLANG\\Bin\\..\\include\\libcxx\\cstring"
	.file	21 "C:\\" "Keil_v5\\ARM\\ARMCLANG\\Bin\\..\\include\\libcxx\\string.h"
	.section	.text._ZN3arm3app5image18Calculate1DOverlapEffff,"ax",%progbits
	.hidden	_ZN3arm3app5image18Calculate1DOverlapEffff @ -- Begin function _ZN3arm3app5image18Calculate1DOverlapEffff
	.globl	_ZN3arm3app5image18Calculate1DOverlapEffff
	.p2align	2
	.type	_ZN3arm3app5image18Calculate1DOverlapEffff,%function
	.code	16                              @ @_ZN3arm3app5image18Calculate1DOverlapEffff
	.thumb_func
_ZN3arm3app5image18Calculate1DOverlapEffff:
.Lfunc_begin0:
	.file	22 "C:\\Users\\CYCHEN38\\OpenNuvoton\\firmware\\M55M1BSP\\SampleCode\\MachineLearning\\ObjectDetection_FreeRTOS_yoloxn\\KEIL" "../../../../ThirdParty/ml-embedded-evaluation-kit/source/application/api/common/source/ImageUtils.cc"
	.loc	22 26 0                         @ ../../../../ThirdParty/ml-embedded-evaluation-kit/source/application/api/common/source/ImageUtils.cc:26:0
	.fnstart
	.cfi_sections .debug_frame
	.cfi_startproc
@ %bb.0:
	@DEBUG_VALUE: Calculate1DOverlap:x1Center <- $s0
	@DEBUG_VALUE: Calculate1DOverlap:width1 <- $s1
	@DEBUG_VALUE: Calculate1DOverlap:x2Center <- $s2
	@DEBUG_VALUE: Calculate1DOverlap:width2 <- $s3
	vmov.f32	s4, #5.000000e-01
	@DEBUG_VALUE: Calculate1DOverlap:width2 <- $s3
	@DEBUG_VALUE: Calculate1DOverlap:x2Center <- $s2
	@DEBUG_VALUE: Calculate1DOverlap:width1 <- $s1
	@DEBUG_VALUE: Calculate1DOverlap:x1Center <- $s0
.Ltmp0:
	.loc	22 27 41 prologue_end           @ ../../../../ThirdParty/ml-embedded-evaluation-kit/source/application/api/common/source/ImageUtils.cc:27:41
	vmul.f32	s6, s1, s4
	.loc	22 28 41                        @ ../../../../ThirdParty/ml-embedded-evaluation-kit/source/application/api/common/source/ImageUtils.cc:28:41
	vmul.f32	s4, s3, s4
	.loc	22 27 33                        @ ../../../../ThirdParty/ml-embedded-evaluation-kit/source/application/api/common/source/ImageUtils.cc:27:33
	vsub.f32	s8, s0, s6
.Ltmp1:
	@DEBUG_VALUE: Calculate1DOverlap:left_1 <- $s8
	.loc	22 28 33                        @ ../../../../ThirdParty/ml-embedded-evaluation-kit/source/application/api/common/source/ImageUtils.cc:28:33
	vsub.f32	s10, s2, s4
.Ltmp2:
	@DEBUG_VALUE: Calculate1DOverlap:left_2 <- $s10
	.loc	22 31 34                        @ ../../../../ThirdParty/ml-embedded-evaluation-kit/source/application/api/common/source/ImageUtils.cc:31:34
	vadd.f32	s0, s6, s0
.Ltmp3:
	@DEBUG_VALUE: Calculate1DOverlap:x1Center <- [DW_OP_LLVM_entry_value 1] $s0
	@DEBUG_VALUE: Calculate1DOverlap:right_1 <- $s0
	.loc	22 32 34                        @ ../../../../ThirdParty/ml-embedded-evaluation-kit/source/application/api/common/source/ImageUtils.cc:32:34
	vadd.f32	s2, s4, s2
.Ltmp4:
	@DEBUG_VALUE: Calculate1DOverlap:x2Center <- [DW_OP_LLVM_entry_value 1] $s2
	@DEBUG_VALUE: Calculate1DOverlap:right_2 <- $s2
	.loc	22 29 25                        @ ../../../../ThirdParty/ml-embedded-evaluation-kit/source/application/api/common/source/ImageUtils.cc:29:25
	vmaxnm.f32	s4, s8, s10
.Ltmp5:
	@DEBUG_VALUE: Calculate1DOverlap:leftest <- $s4
	.loc	22 33 26                        @ ../../../../ThirdParty/ml-embedded-evaluation-kit/source/application/api/common/source/ImageUtils.cc:33:26
	vminnm.f32	s0, s0, s2
.Ltmp6:
	@DEBUG_VALUE: Calculate1DOverlap:rightest <- $s0
	.loc	22 35 25                        @ ../../../../ThirdParty/ml-embedded-evaluation-kit/source/application/api/common/source/ImageUtils.cc:35:25
	vsub.f32	s0, s0, s4
.Ltmp7:
	.loc	22 35 9 is_stmt 0               @ ../../../../ThirdParty/ml-embedded-evaluation-kit/source/application/api/common/source/ImageUtils.cc:35:9
	bx	lr
.Ltmp8:
.Lfunc_end0:
	.size	_ZN3arm3app5image18Calculate1DOverlapEffff, .Lfunc_end0-_ZN3arm3app5image18Calculate1DOverlapEffff
	.cfi_endproc
	.cantunwind
	.fnend
                                        @ -- End function
	.section	.text._ZN3arm3app5image21CalculateBoxIntersectERNS1_3BoxES3_,"ax",%progbits
	.hidden	_ZN3arm3app5image21CalculateBoxIntersectERNS1_3BoxES3_ @ -- Begin function _ZN3arm3app5image21CalculateBoxIntersectERNS1_3BoxES3_
	.globl	_ZN3arm3app5image21CalculateBoxIntersectERNS1_3BoxES3_
	.p2align	2
	.type	_ZN3arm3app5image21CalculateBoxIntersectERNS1_3BoxES3_,%function
	.code	16                              @ @_ZN3arm3app5image21CalculateBoxIntersectERNS1_3BoxES3_
	.thumb_func
_ZN3arm3app5image21CalculateBoxIntersectERNS1_3BoxES3_:
.Lfunc_begin1:
	.loc	22 39 0 is_stmt 1               @ ../../../../ThirdParty/ml-embedded-evaluation-kit/source/application/api/common/source/ImageUtils.cc:39:0
	.fnstart
	.cfi_startproc
@ %bb.0:
	@DEBUG_VALUE: CalculateBoxIntersect:box1 <- $r0
	@DEBUG_VALUE: CalculateBoxIntersect:box1 <- $r0
	@DEBUG_VALUE: CalculateBoxIntersect:box2 <- $r1
	@DEBUG_VALUE: CalculateBoxIntersect:box2 <- $r1
	.loc	22 40 55 prologue_end           @ ../../../../ThirdParty/ml-embedded-evaluation-kit/source/application/api/common/source/ImageUtils.cc:40:55
	vldr	s4, [r0, #8]
	.loc	22 40 71 is_stmt 0              @ ../../../../ThirdParty/ml-embedded-evaluation-kit/source/application/api/common/source/ImageUtils.cc:40:71
	vldr	s8, [r1, #8]
	vmov.f32	s0, #5.000000e-01
	@DEBUG_VALUE: Calculate1DOverlap:x2Center <- $s6
.Ltmp9:
	@DEBUG_VALUE: Calculate1DOverlap:width1 <- $s4
	@DEBUG_VALUE: Calculate1DOverlap:x1Center <- $s2
	@DEBUG_VALUE: Calculate1DOverlap:width2 <- $s8
	.loc	22 40 47                        @ ../../../../ThirdParty/ml-embedded-evaluation-kit/source/application/api/common/source/ImageUtils.cc:40:47
	vldr	s2, [r0]
	.loc	22 40 63                        @ ../../../../ThirdParty/ml-embedded-evaluation-kit/source/application/api/common/source/ImageUtils.cc:40:63
	vldr	s6, [r1]
.Ltmp10:
	.loc	22 27 41 is_stmt 1              @ ../../../../ThirdParty/ml-embedded-evaluation-kit/source/application/api/common/source/ImageUtils.cc:27:41
	vmul.f32	s4, s4, s0
.Ltmp11:
	.loc	22 28 41                        @ ../../../../ThirdParty/ml-embedded-evaluation-kit/source/application/api/common/source/ImageUtils.cc:28:41
	vmul.f32	s8, s8, s0
.Ltmp12:
	.loc	22 27 33                        @ ../../../../ThirdParty/ml-embedded-evaluation-kit/source/application/api/common/source/ImageUtils.cc:27:33
	vsub.f32	s10, s2, s4
.Ltmp13:
	@DEBUG_VALUE: Calculate1DOverlap:left_1 <- $s10
	.loc	22 28 33                        @ ../../../../ThirdParty/ml-embedded-evaluation-kit/source/application/api/common/source/ImageUtils.cc:28:33
	vsub.f32	s12, s6, s8
.Ltmp14:
	@DEBUG_VALUE: Calculate1DOverlap:left_2 <- $s12
	.loc	22 31 34                        @ ../../../../ThirdParty/ml-embedded-evaluation-kit/source/application/api/common/source/ImageUtils.cc:31:34
	vadd.f32	s2, s2, s4
.Ltmp15:
	@DEBUG_VALUE: Calculate1DOverlap:right_1 <- $s2
	.loc	22 32 34                        @ ../../../../ThirdParty/ml-embedded-evaluation-kit/source/application/api/common/source/ImageUtils.cc:32:34
	vadd.f32	s4, s6, s8
.Ltmp16:
	@DEBUG_VALUE: Calculate1DOverlap:right_2 <- $s4
	.loc	22 29 25                        @ ../../../../ThirdParty/ml-embedded-evaluation-kit/source/application/api/common/source/ImageUtils.cc:29:25
	vmaxnm.f32	s6, s10, s12
.Ltmp17:
	@DEBUG_VALUE: Calculate1DOverlap:leftest <- $s6
	.loc	22 33 26                        @ ../../../../ThirdParty/ml-embedded-evaluation-kit/source/application/api/common/source/ImageUtils.cc:33:26
	vminnm.f32	s2, s2, s4
.Ltmp18:
	@DEBUG_VALUE: Calculate1DOverlap:rightest <- $s2
	.loc	22 35 25                        @ ../../../../ThirdParty/ml-embedded-evaluation-kit/source/application/api/common/source/ImageUtils.cc:35:25
	vsub.f32	s2, s2, s6
.Ltmp19:
	@DEBUG_VALUE: CalculateBoxIntersect:width <- $s2
	.loc	22 41 13                        @ ../../../../ThirdParty/ml-embedded-evaluation-kit/source/application/api/common/source/ImageUtils.cc:41:13
	vcmp.f32	s2, #0
	vmrs	APSR_nzcv, fpscr
	itt	lt
	vldrlt	s0, .LCPI1_0
	.loc	22 51 5                         @ ../../../../ThirdParty/ml-embedded-evaluation-kit/source/application/api/common/source/ImageUtils.cc:51:5
	bxlt	lr
.Ltmp20:
.LBB1_1:
	@DEBUG_VALUE: CalculateBoxIntersect:width <- $s2
	@DEBUG_VALUE: CalculateBoxIntersect:box2 <- $r1
	@DEBUG_VALUE: CalculateBoxIntersect:box1 <- $r0
	.loc	22 44 56                        @ ../../../../ThirdParty/ml-embedded-evaluation-kit/source/application/api/common/source/ImageUtils.cc:44:56
	vldr	s6, [r0, #12]
	.loc	22 44 72 is_stmt 0              @ ../../../../ThirdParty/ml-embedded-evaluation-kit/source/application/api/common/source/ImageUtils.cc:44:72
	vldr	s10, [r1, #12]
	@DEBUG_VALUE: Calculate1DOverlap:x2Center <- $s8
.Ltmp21:
	@DEBUG_VALUE: Calculate1DOverlap:width1 <- $s6
	@DEBUG_VALUE: Calculate1DOverlap:x1Center <- $s4
	@DEBUG_VALUE: Calculate1DOverlap:width2 <- $s10
	.loc	22 44 48                        @ ../../../../ThirdParty/ml-embedded-evaluation-kit/source/application/api/common/source/ImageUtils.cc:44:48
	vldr	s4, [r0, #4]
	.loc	22 44 64                        @ ../../../../ThirdParty/ml-embedded-evaluation-kit/source/application/api/common/source/ImageUtils.cc:44:64
	vldr	s8, [r1, #4]
.Ltmp22:
	.loc	22 27 41 is_stmt 1              @ ../../../../ThirdParty/ml-embedded-evaluation-kit/source/application/api/common/source/ImageUtils.cc:27:41
	vmul.f32	s6, s6, s0
.Ltmp23:
	.loc	22 28 41                        @ ../../../../ThirdParty/ml-embedded-evaluation-kit/source/application/api/common/source/ImageUtils.cc:28:41
	vmul.f32	s0, s10, s0
	.loc	22 27 33                        @ ../../../../ThirdParty/ml-embedded-evaluation-kit/source/application/api/common/source/ImageUtils.cc:27:33
	vsub.f32	s10, s4, s6
.Ltmp24:
	@DEBUG_VALUE: Calculate1DOverlap:left_1 <- $s10
	.loc	22 28 33                        @ ../../../../ThirdParty/ml-embedded-evaluation-kit/source/application/api/common/source/ImageUtils.cc:28:33
	vsub.f32	s12, s8, s0
.Ltmp25:
	@DEBUG_VALUE: Calculate1DOverlap:left_2 <- $s12
	.loc	22 31 34                        @ ../../../../ThirdParty/ml-embedded-evaluation-kit/source/application/api/common/source/ImageUtils.cc:31:34
	vadd.f32	s4, s4, s6
.Ltmp26:
	@DEBUG_VALUE: Calculate1DOverlap:right_1 <- $s4
	.loc	22 32 34                        @ ../../../../ThirdParty/ml-embedded-evaluation-kit/source/application/api/common/source/ImageUtils.cc:32:34
	vadd.f32	s0, s8, s0
.Ltmp27:
	@DEBUG_VALUE: Calculate1DOverlap:right_2 <- $s0
	.loc	22 29 25                        @ ../../../../ThirdParty/ml-embedded-evaluation-kit/source/application/api/common/source/ImageUtils.cc:29:25
	vmaxnm.f32	s6, s10, s12
.Ltmp28:
	@DEBUG_VALUE: Calculate1DOverlap:leftest <- $s6
	.loc	22 33 26                        @ ../../../../ThirdParty/ml-embedded-evaluation-kit/source/application/api/common/source/ImageUtils.cc:33:26
	vminnm.f32	s0, s4, s0
.Ltmp29:
	@DEBUG_VALUE: Calculate1DOverlap:rightest <- $s0
	.loc	22 35 25                        @ ../../../../ThirdParty/ml-embedded-evaluation-kit/source/application/api/common/source/ImageUtils.cc:35:25
	vsub.f32	s4, s0, s6
.Ltmp30:
	@DEBUG_VALUE: CalculateBoxIntersect:height <- $s4
	.loc	22 45 13                        @ ../../../../ThirdParty/ml-embedded-evaluation-kit/source/application/api/common/source/ImageUtils.cc:45:13
	vmul.f32	s0, s2, s4
.Ltmp31:
	vcmp.f32	s4, #0
	vldr	s2, .LCPI1_0
.Ltmp32:
	vmrs	APSR_nzcv, fpscr
	it	lt
	vmovlt.f32	s0, s2
	.loc	22 51 5                         @ ../../../../ThirdParty/ml-embedded-evaluation-kit/source/application/api/common/source/ImageUtils.cc:51:5
	bx	lr
.Ltmp33:
	.p2align	2
@ %bb.2:
	.loc	22 0 5 is_stmt 0                @ ../../../../ThirdParty/ml-embedded-evaluation-kit/source/application/api/common/source/ImageUtils.cc:0:5
.LCPI1_0:
	.long	0x00000000                      @ float 0
.Lfunc_end1:
	.size	_ZN3arm3app5image21CalculateBoxIntersectERNS1_3BoxES3_, .Lfunc_end1-_ZN3arm3app5image21CalculateBoxIntersectERNS1_3BoxES3_
	.cfi_endproc
	.cantunwind
	.fnend
                                        @ -- End function
	.section	.text._ZN3arm3app5image17CalculateBoxUnionERNS1_3BoxES3_,"ax",%progbits
	.hidden	_ZN3arm3app5image17CalculateBoxUnionERNS1_3BoxES3_ @ -- Begin function _ZN3arm3app5image17CalculateBoxUnionERNS1_3BoxES3_
	.globl	_ZN3arm3app5image17CalculateBoxUnionERNS1_3BoxES3_
	.p2align	2
	.type	_ZN3arm3app5image17CalculateBoxUnionERNS1_3BoxES3_,%function
	.code	16                              @ @_ZN3arm3app5image17CalculateBoxUnionERNS1_3BoxES3_
	.thumb_func
_ZN3arm3app5image17CalculateBoxUnionERNS1_3BoxES3_:
.Lfunc_begin2:
	.loc	22 54 0 is_stmt 1               @ ../../../../ThirdParty/ml-embedded-evaluation-kit/source/application/api/common/source/ImageUtils.cc:54:0
	.fnstart
	.cfi_startproc
@ %bb.0:
	@DEBUG_VALUE: CalculateBoxUnion:box1 <- $r0
	@DEBUG_VALUE: CalculateBoxUnion:box1 <- $r0
	@DEBUG_VALUE: CalculateBoxUnion:box2 <- $r1
	@DEBUG_VALUE: CalculateBoxUnion:box2 <- $r1
	@DEBUG_VALUE: CalculateBoxIntersect:box1 <- $r0
	@DEBUG_VALUE: CalculateBoxIntersect:box1 <- $r0
	@DEBUG_VALUE: CalculateBoxIntersect:box2 <- $r1
	@DEBUG_VALUE: CalculateBoxIntersect:box2 <- $r1
	.loc	22 40 55 prologue_end           @ ../../../../ThirdParty/ml-embedded-evaluation-kit/source/application/api/common/source/ImageUtils.cc:40:55
	vldr	s0, [r0, #8]
	.loc	22 40 71 is_stmt 0              @ ../../../../ThirdParty/ml-embedded-evaluation-kit/source/application/api/common/source/ImageUtils.cc:40:71
	vldr	s2, [r1, #8]
	vmov.f32	s8, #5.000000e-01
	@DEBUG_VALUE: Calculate1DOverlap:x2Center <- $s6
.Ltmp34:
	@DEBUG_VALUE: Calculate1DOverlap:width1 <- $s0
	@DEBUG_VALUE: Calculate1DOverlap:x1Center <- $s4
	@DEBUG_VALUE: Calculate1DOverlap:width2 <- $s2
	.loc	22 40 47                        @ ../../../../ThirdParty/ml-embedded-evaluation-kit/source/application/api/common/source/ImageUtils.cc:40:47
	vldr	s4, [r0]
	.loc	22 40 63                        @ ../../../../ThirdParty/ml-embedded-evaluation-kit/source/application/api/common/source/ImageUtils.cc:40:63
	vldr	s6, [r1]
.Ltmp35:
	.loc	22 27 41 is_stmt 1              @ ../../../../ThirdParty/ml-embedded-evaluation-kit/source/application/api/common/source/ImageUtils.cc:27:41
	vmul.f32	s10, s0, s8
	.loc	22 28 41                        @ ../../../../ThirdParty/ml-embedded-evaluation-kit/source/application/api/common/source/ImageUtils.cc:28:41
	vmul.f32	s12, s2, s8
	.loc	22 27 33                        @ ../../../../ThirdParty/ml-embedded-evaluation-kit/source/application/api/common/source/ImageUtils.cc:27:33
	vsub.f32	s14, s4, s10
.Ltmp36:
	@DEBUG_VALUE: Calculate1DOverlap:left_1 <- $s14
	.loc	22 28 33                        @ ../../../../ThirdParty/ml-embedded-evaluation-kit/source/application/api/common/source/ImageUtils.cc:28:33
	vsub.f32	s1, s6, s12
.Ltmp37:
	@DEBUG_VALUE: Calculate1DOverlap:left_2 <- $s1
	.loc	22 31 34                        @ ../../../../ThirdParty/ml-embedded-evaluation-kit/source/application/api/common/source/ImageUtils.cc:31:34
	vadd.f32	s4, s4, s10
.Ltmp38:
	@DEBUG_VALUE: Calculate1DOverlap:right_1 <- $s4
	.loc	22 32 34                        @ ../../../../ThirdParty/ml-embedded-evaluation-kit/source/application/api/common/source/ImageUtils.cc:32:34
	vadd.f32	s6, s6, s12
.Ltmp39:
	@DEBUG_VALUE: Calculate1DOverlap:right_2 <- $s6
	.loc	22 29 25                        @ ../../../../ThirdParty/ml-embedded-evaluation-kit/source/application/api/common/source/ImageUtils.cc:29:25
	vmaxnm.f32	s10, s14, s1
.Ltmp40:
	@DEBUG_VALUE: Calculate1DOverlap:leftest <- $s10
	.loc	22 33 26                        @ ../../../../ThirdParty/ml-embedded-evaluation-kit/source/application/api/common/source/ImageUtils.cc:33:26
	vminnm.f32	s4, s4, s6
.Ltmp41:
	@DEBUG_VALUE: Calculate1DOverlap:rightest <- $s4
	.loc	22 35 25                        @ ../../../../ThirdParty/ml-embedded-evaluation-kit/source/application/api/common/source/ImageUtils.cc:35:25
	vsub.f32	s10, s4, s10
.Ltmp42:
	@DEBUG_VALUE: CalculateBoxIntersect:width <- $s10
	.loc	22 41 13                        @ ../../../../ThirdParty/ml-embedded-evaluation-kit/source/application/api/common/source/ImageUtils.cc:41:13
	vcmp.f32	s10, #0
	vmrs	APSR_nzcv, fpscr
	bge	.LBB2_2
.Ltmp43:
@ %bb.1:
	@DEBUG_VALUE: CalculateBoxIntersect:width <- $s10
	@DEBUG_VALUE: CalculateBoxIntersect:box2 <- $r1
	@DEBUG_VALUE: CalculateBoxUnion:box2 <- $r1
	@DEBUG_VALUE: CalculateBoxIntersect:box1 <- $r0
	@DEBUG_VALUE: CalculateBoxUnion:box1 <- $r0
	.loc	22 56 43                        @ ../../../../ThirdParty/ml-embedded-evaluation-kit/source/application/api/common/source/ImageUtils.cc:56:43
	vldr	s4, [r0, #12]
	.loc	22 56 61 is_stmt 0              @ ../../../../ThirdParty/ml-embedded-evaluation-kit/source/application/api/common/source/ImageUtils.cc:56:61
	vldr	s6, [r1, #12]
	vldr	s8, .LCPI2_0
.Ltmp44:
	.loc	22 41 13 is_stmt 1              @ ../../../../ThirdParty/ml-embedded-evaluation-kit/source/application/api/common/source/ImageUtils.cc:41:13
	b	.LBB2_3
.Ltmp45:
.LBB2_2:
	@DEBUG_VALUE: CalculateBoxIntersect:width <- $s10
	@DEBUG_VALUE: CalculateBoxIntersect:box2 <- $r1
	@DEBUG_VALUE: CalculateBoxUnion:box2 <- $r1
	@DEBUG_VALUE: CalculateBoxIntersect:box1 <- $r0
	@DEBUG_VALUE: CalculateBoxUnion:box1 <- $r0
	.loc	22 44 56                        @ ../../../../ThirdParty/ml-embedded-evaluation-kit/source/application/api/common/source/ImageUtils.cc:44:56
	vldr	s4, [r0, #12]
	.loc	22 44 72 is_stmt 0              @ ../../../../ThirdParty/ml-embedded-evaluation-kit/source/application/api/common/source/ImageUtils.cc:44:72
	vldr	s6, [r1, #12]
	@DEBUG_VALUE: Calculate1DOverlap:x2Center <- $s14
.Ltmp46:
	@DEBUG_VALUE: Calculate1DOverlap:width1 <- $s4
	@DEBUG_VALUE: Calculate1DOverlap:x1Center <- $s12
	@DEBUG_VALUE: Calculate1DOverlap:width2 <- $s6
	.loc	22 44 48                        @ ../../../../ThirdParty/ml-embedded-evaluation-kit/source/application/api/common/source/ImageUtils.cc:44:48
	vldr	s12, [r0, #4]
	.loc	22 44 64                        @ ../../../../ThirdParty/ml-embedded-evaluation-kit/source/application/api/common/source/ImageUtils.cc:44:64
	vldr	s14, [r1, #4]
.Ltmp47:
	.loc	22 27 41 is_stmt 1              @ ../../../../ThirdParty/ml-embedded-evaluation-kit/source/application/api/common/source/ImageUtils.cc:27:41
	vmul.f32	s1, s4, s8
	.loc	22 28 41                        @ ../../../../ThirdParty/ml-embedded-evaluation-kit/source/application/api/common/source/ImageUtils.cc:28:41
	vmul.f32	s8, s6, s8
	.loc	22 27 33                        @ ../../../../ThirdParty/ml-embedded-evaluation-kit/source/application/api/common/source/ImageUtils.cc:27:33
	vsub.f32	s3, s12, s1
.Ltmp48:
	@DEBUG_VALUE: Calculate1DOverlap:left_1 <- $s3
	.loc	22 28 33                        @ ../../../../ThirdParty/ml-embedded-evaluation-kit/source/application/api/common/source/ImageUtils.cc:28:33
	vsub.f32	s5, s14, s8
.Ltmp49:
	@DEBUG_VALUE: Calculate1DOverlap:left_2 <- $s5
	.loc	22 31 34                        @ ../../../../ThirdParty/ml-embedded-evaluation-kit/source/application/api/common/source/ImageUtils.cc:31:34
	vadd.f32	s12, s12, s1
.Ltmp50:
	@DEBUG_VALUE: Calculate1DOverlap:right_1 <- $s12
	.loc	22 32 34                        @ ../../../../ThirdParty/ml-embedded-evaluation-kit/source/application/api/common/source/ImageUtils.cc:32:34
	vadd.f32	s8, s14, s8
.Ltmp51:
	@DEBUG_VALUE: Calculate1DOverlap:right_2 <- $s8
	.loc	22 29 25                        @ ../../../../ThirdParty/ml-embedded-evaluation-kit/source/application/api/common/source/ImageUtils.cc:29:25
	vmaxnm.f32	s14, s3, s5
.Ltmp52:
	@DEBUG_VALUE: Calculate1DOverlap:leftest <- $s14
	.loc	22 33 26                        @ ../../../../ThirdParty/ml-embedded-evaluation-kit/source/application/api/common/source/ImageUtils.cc:33:26
	vminnm.f32	s8, s12, s8
.Ltmp53:
	@DEBUG_VALUE: Calculate1DOverlap:rightest <- $s8
	.loc	22 35 25                        @ ../../../../ThirdParty/ml-embedded-evaluation-kit/source/application/api/common/source/ImageUtils.cc:35:25
	vsub.f32	s12, s8, s14
.Ltmp54:
	@DEBUG_VALUE: CalculateBoxIntersect:height <- $s12
	.loc	22 45 13                        @ ../../../../ThirdParty/ml-embedded-evaluation-kit/source/application/api/common/source/ImageUtils.cc:45:13
	vmul.f32	s8, s10, s12
.Ltmp55:
	vcmp.f32	s12, #0
	vldr	s10, .LCPI2_0
.Ltmp56:
	vmrs	APSR_nzcv, fpscr
	it	lt
	vmovlt.f32	s8, s10
.Ltmp57:
.LBB2_3:
	@DEBUG_VALUE: CalculateBoxUnion:box2 <- $r1
	@DEBUG_VALUE: CalculateBoxUnion:box1 <- $r0
	@DEBUG_VALUE: CalculateBoxUnion:boxes_intersection <- $s8
	.loc	22 56 36                        @ ../../../../ThirdParty/ml-embedded-evaluation-kit/source/application/api/common/source/ImageUtils.cc:56:36
	vmul.f32	s0, s0, s4
	.loc	22 56 54 is_stmt 0              @ ../../../../ThirdParty/ml-embedded-evaluation-kit/source/application/api/common/source/ImageUtils.cc:56:54
	vmul.f32	s2, s2, s6
	.loc	22 56 45                        @ ../../../../ThirdParty/ml-embedded-evaluation-kit/source/application/api/common/source/ImageUtils.cc:56:45
	vadd.f32	s0, s0, s2
	.loc	22 56 63                        @ ../../../../ThirdParty/ml-embedded-evaluation-kit/source/application/api/common/source/ImageUtils.cc:56:63
	vsub.f32	s0, s0, s8
.Ltmp58:
	@DEBUG_VALUE: CalculateBoxUnion:boxes_union <- $s0
	.loc	22 57 9 is_stmt 1               @ ../../../../ThirdParty/ml-embedded-evaluation-kit/source/application/api/common/source/ImageUtils.cc:57:9
	bx	lr
.Ltmp59:
	.p2align	2
@ %bb.4:
	.loc	22 0 9 is_stmt 0                @ ../../../../ThirdParty/ml-embedded-evaluation-kit/source/application/api/common/source/ImageUtils.cc:0:9
.LCPI2_0:
	.long	0x00000000                      @ float 0
.Lfunc_end2:
	.size	_ZN3arm3app5image17CalculateBoxUnionERNS1_3BoxES3_, .Lfunc_end2-_ZN3arm3app5image17CalculateBoxUnionERNS1_3BoxES3_
	.cfi_endproc
	.cantunwind
	.fnend
                                        @ -- End function
	.section	.text._ZN3arm3app5image15CalculateBoxIOUERNS1_3BoxES3_,"ax",%progbits
	.hidden	_ZN3arm3app5image15CalculateBoxIOUERNS1_3BoxES3_ @ -- Begin function _ZN3arm3app5image15CalculateBoxIOUERNS1_3BoxES3_
	.globl	_ZN3arm3app5image15CalculateBoxIOUERNS1_3BoxES3_
	.p2align	2
	.type	_ZN3arm3app5image15CalculateBoxIOUERNS1_3BoxES3_,%function
	.code	16                              @ @_ZN3arm3app5image15CalculateBoxIOUERNS1_3BoxES3_
	.thumb_func
_ZN3arm3app5image15CalculateBoxIOUERNS1_3BoxES3_:
.Lfunc_begin3:
	.loc	22 61 0 is_stmt 1               @ ../../../../ThirdParty/ml-embedded-evaluation-kit/source/application/api/common/source/ImageUtils.cc:61:0
	.fnstart
	.cfi_startproc
@ %bb.0:
	@DEBUG_VALUE: CalculateBoxIOU:box1 <- $r0
	@DEBUG_VALUE: CalculateBoxIOU:box1 <- $r0
	@DEBUG_VALUE: CalculateBoxIOU:box2 <- $r1
	@DEBUG_VALUE: CalculateBoxIOU:box2 <- $r1
	@DEBUG_VALUE: CalculateBoxIntersect:box1 <- $r0
	@DEBUG_VALUE: CalculateBoxIntersect:box1 <- $r0
	@DEBUG_VALUE: CalculateBoxIntersect:box2 <- $r1
	@DEBUG_VALUE: CalculateBoxIntersect:box2 <- $r1
	.loc	22 40 55 prologue_end           @ ../../../../ThirdParty/ml-embedded-evaluation-kit/source/application/api/common/source/ImageUtils.cc:40:55
	vldr	s2, [r0, #8]
	.loc	22 40 71 is_stmt 0              @ ../../../../ThirdParty/ml-embedded-evaluation-kit/source/application/api/common/source/ImageUtils.cc:40:71
	vldr	s4, [r1, #8]
	vmov.f32	s12, #5.000000e-01
	@DEBUG_VALUE: Calculate1DOverlap:x2Center <- $s6
.Ltmp60:
	@DEBUG_VALUE: Calculate1DOverlap:width1 <- $s2
	@DEBUG_VALUE: Calculate1DOverlap:x1Center <- $s0
	@DEBUG_VALUE: Calculate1DOverlap:width2 <- $s4
	.loc	22 40 47                        @ ../../../../ThirdParty/ml-embedded-evaluation-kit/source/application/api/common/source/ImageUtils.cc:40:47
	vldr	s0, [r0]
	.loc	22 40 63                        @ ../../../../ThirdParty/ml-embedded-evaluation-kit/source/application/api/common/source/ImageUtils.cc:40:63
	vldr	s6, [r1]
.Ltmp61:
	.loc	22 27 41 is_stmt 1              @ ../../../../ThirdParty/ml-embedded-evaluation-kit/source/application/api/common/source/ImageUtils.cc:27:41
	vmul.f32	s8, s2, s12
	.loc	22 28 41                        @ ../../../../ThirdParty/ml-embedded-evaluation-kit/source/application/api/common/source/ImageUtils.cc:28:41
	vmul.f32	s10, s4, s12
	.loc	22 27 33                        @ ../../../../ThirdParty/ml-embedded-evaluation-kit/source/application/api/common/source/ImageUtils.cc:27:33
	vsub.f32	s14, s0, s8
.Ltmp62:
	@DEBUG_VALUE: Calculate1DOverlap:left_1 <- $s14
	.loc	22 28 33                        @ ../../../../ThirdParty/ml-embedded-evaluation-kit/source/application/api/common/source/ImageUtils.cc:28:33
	vsub.f32	s1, s6, s10
.Ltmp63:
	@DEBUG_VALUE: Calculate1DOverlap:left_2 <- $s1
	.loc	22 31 34                        @ ../../../../ThirdParty/ml-embedded-evaluation-kit/source/application/api/common/source/ImageUtils.cc:31:34
	vadd.f32	s0, s0, s8
.Ltmp64:
	@DEBUG_VALUE: Calculate1DOverlap:right_1 <- $s0
	.loc	22 32 34                        @ ../../../../ThirdParty/ml-embedded-evaluation-kit/source/application/api/common/source/ImageUtils.cc:32:34
	vadd.f32	s6, s6, s10
.Ltmp65:
	@DEBUG_VALUE: Calculate1DOverlap:right_2 <- $s6
	.loc	22 29 25                        @ ../../../../ThirdParty/ml-embedded-evaluation-kit/source/application/api/common/source/ImageUtils.cc:29:25
	vmaxnm.f32	s8, s14, s1
.Ltmp66:
	@DEBUG_VALUE: Calculate1DOverlap:leftest <- $s8
	.loc	22 33 26                        @ ../../../../ThirdParty/ml-embedded-evaluation-kit/source/application/api/common/source/ImageUtils.cc:33:26
	vminnm.f32	s0, s0, s6
.Ltmp67:
	@DEBUG_VALUE: Calculate1DOverlap:rightest <- $s0
	.loc	22 35 25                        @ ../../../../ThirdParty/ml-embedded-evaluation-kit/source/application/api/common/source/ImageUtils.cc:35:25
	vsub.f32	s6, s0, s8
.Ltmp68:
	@DEBUG_VALUE: CalculateBoxIntersect:width <- $s6
	.loc	22 0 25 is_stmt 0               @ ../../../../ThirdParty/ml-embedded-evaluation-kit/source/application/api/common/source/ImageUtils.cc:0:25
	vldr	s0, .LCPI3_0
.Ltmp69:
	.loc	22 41 13 is_stmt 1              @ ../../../../ThirdParty/ml-embedded-evaluation-kit/source/application/api/common/source/ImageUtils.cc:41:13
	vcmp.f32	s6, #0
	vmrs	APSR_nzcv, fpscr
	blt	.LBB3_4
.Ltmp70:
@ %bb.1:
	@DEBUG_VALUE: CalculateBoxIntersect:width <- $s6
	@DEBUG_VALUE: CalculateBoxIntersect:box2 <- $r1
	@DEBUG_VALUE: CalculateBoxIOU:box2 <- $r1
	@DEBUG_VALUE: CalculateBoxIntersect:box1 <- $r0
	@DEBUG_VALUE: CalculateBoxIOU:box1 <- $r0
	.loc	22 44 56                        @ ../../../../ThirdParty/ml-embedded-evaluation-kit/source/application/api/common/source/ImageUtils.cc:44:56
	vldr	s8, [r0, #12]
	.loc	22 44 72 is_stmt 0              @ ../../../../ThirdParty/ml-embedded-evaluation-kit/source/application/api/common/source/ImageUtils.cc:44:72
	vldr	s10, [r1, #12]
	@DEBUG_VALUE: Calculate1DOverlap:x2Center <- $s1
.Ltmp71:
	@DEBUG_VALUE: Calculate1DOverlap:width1 <- $s8
	@DEBUG_VALUE: Calculate1DOverlap:x1Center <- $s14
	@DEBUG_VALUE: Calculate1DOverlap:width2 <- $s10
	.loc	22 44 48                        @ ../../../../ThirdParty/ml-embedded-evaluation-kit/source/application/api/common/source/ImageUtils.cc:44:48
	vldr	s14, [r0, #4]
	.loc	22 44 64                        @ ../../../../ThirdParty/ml-embedded-evaluation-kit/source/application/api/common/source/ImageUtils.cc:44:64
	vldr	s1, [r1, #4]
.Ltmp72:
	.loc	22 27 41 is_stmt 1              @ ../../../../ThirdParty/ml-embedded-evaluation-kit/source/application/api/common/source/ImageUtils.cc:27:41
	vmul.f32	s3, s8, s12
	.loc	22 28 41                        @ ../../../../ThirdParty/ml-embedded-evaluation-kit/source/application/api/common/source/ImageUtils.cc:28:41
	vmul.f32	s12, s10, s12
	.loc	22 27 33                        @ ../../../../ThirdParty/ml-embedded-evaluation-kit/source/application/api/common/source/ImageUtils.cc:27:33
	vsub.f32	s5, s14, s3
.Ltmp73:
	@DEBUG_VALUE: Calculate1DOverlap:left_1 <- $s5
	.loc	22 28 33                        @ ../../../../ThirdParty/ml-embedded-evaluation-kit/source/application/api/common/source/ImageUtils.cc:28:33
	vsub.f32	s7, s1, s12
.Ltmp74:
	@DEBUG_VALUE: Calculate1DOverlap:left_2 <- $s7
	.loc	22 31 34                        @ ../../../../ThirdParty/ml-embedded-evaluation-kit/source/application/api/common/source/ImageUtils.cc:31:34
	vadd.f32	s14, s14, s3
.Ltmp75:
	@DEBUG_VALUE: Calculate1DOverlap:right_1 <- $s14
	.loc	22 32 34                        @ ../../../../ThirdParty/ml-embedded-evaluation-kit/source/application/api/common/source/ImageUtils.cc:32:34
	vadd.f32	s12, s1, s12
.Ltmp76:
	@DEBUG_VALUE: Calculate1DOverlap:right_2 <- $s12
	.loc	22 29 25                        @ ../../../../ThirdParty/ml-embedded-evaluation-kit/source/application/api/common/source/ImageUtils.cc:29:25
	vmaxnm.f32	s1, s5, s7
.Ltmp77:
	@DEBUG_VALUE: Calculate1DOverlap:leftest <- $s1
	.loc	22 33 26                        @ ../../../../ThirdParty/ml-embedded-evaluation-kit/source/application/api/common/source/ImageUtils.cc:33:26
	vminnm.f32	s12, s14, s12
.Ltmp78:
	@DEBUG_VALUE: Calculate1DOverlap:rightest <- $s12
	.loc	22 35 25                        @ ../../../../ThirdParty/ml-embedded-evaluation-kit/source/application/api/common/source/ImageUtils.cc:35:25
	vsub.f32	s12, s12, s1
.Ltmp79:
	@DEBUG_VALUE: CalculateBoxIOU:boxes_intersection <- undef
	@DEBUG_VALUE: CalculateBoxIntersect:height <- $s12
	.loc	22 0 25 is_stmt 0               @ ../../../../ThirdParty/ml-embedded-evaluation-kit/source/application/api/common/source/ImageUtils.cc:0:25
	vcmp.f32	s12, #0
	vmrs	APSR_nzcv, fpscr
	blt	.LBB3_4
.Ltmp80:
@ %bb.2:
	@DEBUG_VALUE: CalculateBoxIOU:box2 <- $r1
	@DEBUG_VALUE: CalculateBoxIOU:box1 <- $r0
	vmul.f32	s6, s6, s12
.Ltmp81:
	@DEBUG_VALUE: CalculateBoxIOU:boxes_intersection <- $s6
	vcmp.f32	s6, #0
	vmrs	APSR_nzcv, fpscr
	.loc	22 73 5 is_stmt 1               @ ../../../../ThirdParty/ml-embedded-evaluation-kit/source/application/api/common/source/ImageUtils.cc:73:5
	it	eq
	bxeq	lr
.Ltmp82:
.LBB3_3:
	@DEBUG_VALUE: CalculateBoxIOU:boxes_intersection <- $s6
	@DEBUG_VALUE: CalculateBoxIOU:box2 <- $r1
	@DEBUG_VALUE: CalculateBoxIOU:box1 <- $r0
	@DEBUG_VALUE: CalculateBoxUnion:box1 <- undef
	@DEBUG_VALUE: CalculateBoxUnion:box2 <- undef
	@DEBUG_VALUE: CalculateBoxIntersect:box1 <- undef
	@DEBUG_VALUE: CalculateBoxIntersect:box2 <- undef
	@DEBUG_VALUE: Calculate1DOverlap:width1 <- $s2
	@DEBUG_VALUE: Calculate1DOverlap:width2 <- $s4
	@DEBUG_VALUE: CalculateBoxIntersect:width <- undef
	@DEBUG_VALUE: Calculate1DOverlap:x1Center <- undef
	@DEBUG_VALUE: Calculate1DOverlap:width1 <- $s8
	@DEBUG_VALUE: Calculate1DOverlap:x2Center <- undef
	@DEBUG_VALUE: Calculate1DOverlap:width2 <- $s10
	@DEBUG_VALUE: Calculate1DOverlap:left_1 <- undef
	@DEBUG_VALUE: Calculate1DOverlap:left_2 <- undef
	@DEBUG_VALUE: Calculate1DOverlap:leftest <- undef
	@DEBUG_VALUE: Calculate1DOverlap:right_1 <- undef
	@DEBUG_VALUE: Calculate1DOverlap:right_2 <- undef
	@DEBUG_VALUE: Calculate1DOverlap:rightest <- undef
	@DEBUG_VALUE: CalculateBoxUnion:boxes_intersection <- $s6
	.loc	22 56 36                        @ ../../../../ThirdParty/ml-embedded-evaluation-kit/source/application/api/common/source/ImageUtils.cc:56:36
	vmul.f32	s0, s2, s8
	.loc	22 56 54 is_stmt 0              @ ../../../../ThirdParty/ml-embedded-evaluation-kit/source/application/api/common/source/ImageUtils.cc:56:54
	vmul.f32	s2, s4, s10
.Ltmp83:
	.loc	22 0 54                         @ ../../../../ThirdParty/ml-embedded-evaluation-kit/source/application/api/common/source/ImageUtils.cc:0:54
	vldr	s4, .LCPI3_0
.Ltmp84:
	.loc	22 56 45                        @ ../../../../ThirdParty/ml-embedded-evaluation-kit/source/application/api/common/source/ImageUtils.cc:56:45
	vadd.f32	s0, s0, s2
	.loc	22 56 63                        @ ../../../../ThirdParty/ml-embedded-evaluation-kit/source/application/api/common/source/ImageUtils.cc:56:63
	vsub.f32	s0, s0, s6
.Ltmp85:
	@DEBUG_VALUE: CalculateBoxIOU:boxes_union <- $s0
	@DEBUG_VALUE: CalculateBoxUnion:boxes_union <- $s0
	.loc	22 68 13 is_stmt 1              @ ../../../../ThirdParty/ml-embedded-evaluation-kit/source/application/api/common/source/ImageUtils.cc:68:13
	vdiv.f32	s2, s6, s0
	vcmp.f32	s0, #0
	vmrs	APSR_nzcv, fpscr
	vseleq.f32	s0, s4, s2
.Ltmp86:
	@DEBUG_VALUE: CalculateBoxIntersect:height <- undef
	@DEBUG_VALUE: Calculate1DOverlap:rightest <- undef
	@DEBUG_VALUE: Calculate1DOverlap:right_2 <- undef
	@DEBUG_VALUE: Calculate1DOverlap:right_1 <- undef
	@DEBUG_VALUE: Calculate1DOverlap:leftest <- undef
	@DEBUG_VALUE: Calculate1DOverlap:left_2 <- undef
	@DEBUG_VALUE: Calculate1DOverlap:left_1 <- undef
	@DEBUG_VALUE: Calculate1DOverlap:x2Center <- undef
	@DEBUG_VALUE: Calculate1DOverlap:x1Center <- undef
.LBB3_4:
	@DEBUG_VALUE: CalculateBoxIOU:box2 <- $r1
	@DEBUG_VALUE: CalculateBoxIOU:box1 <- $r0
	.loc	22 73 5                         @ ../../../../ThirdParty/ml-embedded-evaluation-kit/source/application/api/common/source/ImageUtils.cc:73:5
	bx	lr
.Ltmp87:
	.p2align	2
@ %bb.5:
	.loc	22 0 5 is_stmt 0                @ ../../../../ThirdParty/ml-embedded-evaluation-kit/source/application/api/common/source/ImageUtils.cc:0:5
.LCPI3_0:
	.long	0x00000000                      @ float 0
.Lfunc_end3:
	.size	_ZN3arm3app5image15CalculateBoxIOUERNS1_3BoxES3_, .Lfunc_end3-_ZN3arm3app5image15CalculateBoxIOUERNS1_3BoxES3_
	.cfi_endproc
	.cantunwind
	.fnend
                                        @ -- End function
	.section	.text._ZN3arm3app5image12CalculateNMSERNSt3__212forward_listINS1_9DetectionENS2_9allocatorIS4_EEEEif,"ax",%progbits
	.hidden	_ZN3arm3app5image12CalculateNMSERNSt3__212forward_listINS1_9DetectionENS2_9allocatorIS4_EEEEif @ -- Begin function _ZN3arm3app5image12CalculateNMSERNSt3__212forward_listINS1_9DetectionENS2_9allocatorIS4_EEEEif
	.globl	_ZN3arm3app5image12CalculateNMSERNSt3__212forward_listINS1_9DetectionENS2_9allocatorIS4_EEEEif
	.p2align	2
	.type	_ZN3arm3app5image12CalculateNMSERNSt3__212forward_listINS1_9DetectionENS2_9allocatorIS4_EEEEif,%function
	.code	16                              @ @_ZN3arm3app5image12CalculateNMSERNSt3__212forward_listINS1_9DetectionENS2_9allocatorIS4_EEEEif
	.thumb_func
_ZN3arm3app5image12CalculateNMSERNSt3__212forward_listINS1_9DetectionENS2_9allocatorIS4_EEEEif:
.Lfunc_begin4:
	.loc	22 76 0 is_stmt 1               @ ../../../../ThirdParty/ml-embedded-evaluation-kit/source/application/api/common/source/ImageUtils.cc:76:0
	.fnstart
	.cfi_startproc
@ %bb.0:
	@DEBUG_VALUE: CalculateNMS:detections <- $r0
	@DEBUG_VALUE: CalculateNMS:classes <- $r1
	@DEBUG_VALUE: CalculateNMS:iouThreshold <- $s0
	@DEBUG_VALUE: CalculateNMS:iouThreshold <- $s0
	@DEBUG_VALUE: CalculateNMS:classes <- $r1
	.save	{r4, r5, r6, r7, r8, r9, lr}
	push.w	{r4, r5, r6, r7, r8, r9, lr}
	.cfi_def_cfa_offset 28
	.cfi_offset lr, -4
	.cfi_offset r9, -8
	.cfi_offset r8, -12
	.cfi_offset r7, -16
	.cfi_offset r6, -20
	.cfi_offset r5, -24
	.cfi_offset r4, -28
	.pad	#4
	sub	sp, #4
	.cfi_def_cfa_offset 32
	.vsave	{d8, d9, d10}
	vpush	{d8, d9, d10}
	.cfi_def_cfa_offset 56
	.cfi_offset d10, -40
	.cfi_offset d9, -48
	.cfi_offset d8, -56
	.pad	#8
	sub	sp, #8
	.cfi_def_cfa_offset 64
.Ltmp88:
	.loc	22 82 9 prologue_end            @ ../../../../ThirdParty/ml-embedded-evaluation-kit/source/application/api/common/source/ImageUtils.cc:82:9
	cmp	r1, #1
.Ltmp89:
	@DEBUG_VALUE: CalculateNMS:CompareProbs <- 0
	@DEBUG_VALUE: CalculateNMS:idxClass <- 0
	@DEBUG_VALUE: CalculateNMS:detections <- $r0
	blt.w	.LBB4_25
.Ltmp90:
@ %bb.1:
	@DEBUG_VALUE: CalculateNMS:iouThreshold <- $s0
	@DEBUG_VALUE: CalculateNMS:classes <- $r1
	@DEBUG_VALUE: CalculateNMS:detections <- $r0
	@DEBUG_VALUE: CalculateNMS:idxClass <- 0
	@DEBUG_VALUE: CalculateNMS:CompareProbs <- 0
	.loc	22 0 9 is_stmt 0                @ ../../../../ThirdParty/ml-embedded-evaluation-kit/source/application/api/common/source/ImageUtils.cc:0:9
	mov	r9, r0
.Ltmp91:
	@DEBUG_VALUE: CalculateNMS:detections <- $r9
	.loc	9 1647 70 is_stmt 1             @ Keil_v5\ARM\ARMCLANG\Bin\..\include\libcxx\forward_list:1647:70
	ldr	r0, [r0]
	vldr	s20, .LCPI4_0
	vmov.f32	s16, s0
.Ltmp92:
	@DEBUG_VALUE: CalculateNMS:iouThreshold <- $s16
	@DEBUG_VALUE: CalculateNMS:iouThreshold <- $s16
	.loc	9 0 70 is_stmt 0                @ Keil_v5\ARM\ARMCLANG\Bin\..\include\libcxx\forward_list:0:70
	mov	r4, r1
.Ltmp93:
	@DEBUG_VALUE: CalculateNMS:classes <- $r4
	@DEBUG_VALUE: CalculateNMS:classes <- $r4
	movs	r7, #0
	vmov.f32	s18, #5.000000e-01
	add.w	r8, sp, #4
	movs	r6, #0
	b	.LBB4_3
.Ltmp94:
	.p2align	2
.LBB4_2:                                @   in Loop: Header=BB4_3 Depth=1
	@DEBUG_VALUE: CalculateNMS:iouThreshold <- $s16
	@DEBUG_VALUE: CalculateNMS:detections <- $r9
	@DEBUG_VALUE: CalculateNMS:idxClass <- $r6
	@DEBUG_VALUE: CalculateNMS:classes <- $r4
	@DEBUG_VALUE: CalculateNMS:CompareProbs <- 0
	.loc	22 82 48 is_stmt 1              @ ../../../../ThirdParty/ml-embedded-evaluation-kit/source/application/api/common/source/ImageUtils.cc:82:48
	adds	r6, #1
.Ltmp95:
	@DEBUG_VALUE: CalculateNMS:idxClass <- $r6
	.loc	22 82 9 is_stmt 0               @ ../../../../ThirdParty/ml-embedded-evaluation-kit/source/application/api/common/source/ImageUtils.cc:82:9
	cmp	r6, r4
	beq.w	.LBB4_25
.Ltmp96:
.LBB4_3:                                @ =>This Loop Header: Depth=1
                                        @     Child Loop BB4_5 Depth 2
                                        @     Child Loop BB4_15 Depth 2
                                        @       Child Loop BB4_20 Depth 3
	@DEBUG_VALUE: CalculateNMS:iouThreshold <- $s16
	@DEBUG_VALUE: CalculateNMS:detections <- $r9
	@DEBUG_VALUE: CalculateNMS:classes <- $r4
	@DEBUG_VALUE: CalculateNMS:CompareProbs <- 0
	@DEBUG_VALUE: CalculateNMS:idxClass <- $r6
	.loc	22 0 9                          @ ../../../../ThirdParty/ml-embedded-evaluation-kit/source/application/api/common/source/ImageUtils.cc:0:9
	str	r7, [sp, #4]
.Ltmp97:
	@DEBUG_VALUE: operator==:__y <- undef
	@DEBUG_VALUE: operator==:__x <- undef
	@DEBUG_VALUE: operator!=:__y <- undef
	@DEBUG_VALUE: operator!=:__x <- undef
	@DEBUG_VALUE: __distance<std::__forward_list_iterator<std::__forward_list_node<arm::app::image::Detection, void *> *> >:__r <- 0
	@DEBUG_VALUE: __distance<std::__forward_list_iterator<std::__forward_list_node<arm::app::image::Detection, void *> *> >:__last <- 0
	@DEBUG_VALUE: __distance<std::__forward_list_iterator<std::__forward_list_node<arm::app::image::Detection, void *> *> >:__first <- $r0
	@DEBUG_VALUE: distance<std::__forward_list_iterator<std::__forward_list_node<arm::app::image::Detection, void *> *> >:__last <- undef
	@DEBUG_VALUE: distance<std::__forward_list_iterator<std::__forward_list_node<arm::app::image::Detection, void *> *> >:__first <- undef
	@DEBUG_VALUE: sort<(lambda at ../../../../ThirdParty/ml-embedded-evaluation-kit/source/application/api/common/source/ImageUtils.cc:78:29)>:this <- $r9
	.file	23 "C:\\" "Keil_v5\\ARM\\ARMCLANG\\Bin\\..\\include\\libcxx\\iterator"
	.loc	23 678 5 is_stmt 1              @ Keil_v5\ARM\ARMCLANG\Bin\..\include\libcxx\iterator:678:5
	cbz	r0, .LBB4_10
.Ltmp98:
@ %bb.4:                                @   in Loop: Header=BB4_3 Depth=1
	@DEBUG_VALUE: CalculateNMS:iouThreshold <- $s16
	@DEBUG_VALUE: sort<(lambda at ../../../../ThirdParty/ml-embedded-evaluation-kit/source/application/api/common/source/ImageUtils.cc:78:29)>:this <- $r9
	@DEBUG_VALUE: CalculateNMS:detections <- $r9
	@DEBUG_VALUE: CalculateNMS:idxClass <- $r6
	@DEBUG_VALUE: CalculateNMS:classes <- $r4
	@DEBUG_VALUE: __distance<std::__forward_list_iterator<std::__forward_list_node<arm::app::image::Detection, void *> *> >:__first <- $r0
	@DEBUG_VALUE: __distance<std::__forward_list_iterator<std::__forward_list_node<arm::app::image::Detection, void *> *> >:__last <- 0
	@DEBUG_VALUE: __distance<std::__forward_list_iterator<std::__forward_list_node<arm::app::image::Detection, void *> *> >:__r <- 0
	@DEBUG_VALUE: CalculateNMS:CompareProbs <- 0
	.loc	23 0 5 is_stmt 0                @ Keil_v5\ARM\ARMCLANG\Bin\..\include\libcxx\iterator:0:5
	movs	r1, #1
	mov	r2, r0
.Ltmp99:
	.p2align	2
.LBB4_5:                                @   Parent Loop BB4_3 Depth=1
                                        @ =>  This Inner Loop Header: Depth=2
	@DEBUG_VALUE: CalculateNMS:iouThreshold <- $s16
	@DEBUG_VALUE: sort<(lambda at ../../../../ThirdParty/ml-embedded-evaluation-kit/source/application/api/common/source/ImageUtils.cc:78:29)>:this <- $r9
	@DEBUG_VALUE: CalculateNMS:detections <- $r9
	@DEBUG_VALUE: CalculateNMS:idxClass <- $r6
	@DEBUG_VALUE: CalculateNMS:classes <- $r4
	@DEBUG_VALUE: __distance<std::__forward_list_iterator<std::__forward_list_node<arm::app::image::Detection, void *> *> >:__last <- 0
	@DEBUG_VALUE: CalculateNMS:CompareProbs <- 0
	@DEBUG_VALUE: __distance<std::__forward_list_iterator<std::__forward_list_node<arm::app::image::Detection, void *> *> >:__first <- undef
	@DEBUG_VALUE: __distance<std::__forward_list_iterator<std::__forward_list_node<arm::app::image::Detection, void *> *> >:__r <- [DW_OP_constu 1, DW_OP_minus, DW_OP_constu 1, DW_OP_or, DW_OP_stack_value] $r1
	@DEBUG_VALUE: operator++:this <- undef
	.loc	9 344 51 is_stmt 1              @ Keil_v5\ARM\ARMCLANG\Bin\..\include\libcxx\forward_list:344:51
	ldr	r2, [r2]
.Ltmp100:
	@DEBUG_VALUE: operator==:__y <- undef
	@DEBUG_VALUE: operator==:__x <- undef
	@DEBUG_VALUE: operator!=:__y <- undef
	@DEBUG_VALUE: operator!=:__x <- undef
	@DEBUG_VALUE: __distance<std::__forward_list_iterator<std::__forward_list_node<arm::app::image::Detection, void *> *> >:__first <- $r2
	.loc	23 678 5                        @ Keil_v5\ARM\ARMCLANG\Bin\..\include\libcxx\iterator:678:5
	cbz	r2, .LBB4_13
.Ltmp101:
@ %bb.6:                                @   in Loop: Header=BB4_5 Depth=2
	@DEBUG_VALUE: CalculateNMS:iouThreshold <- $s16
	@DEBUG_VALUE: sort<(lambda at ../../../../ThirdParty/ml-embedded-evaluation-kit/source/application/api/common/source/ImageUtils.cc:78:29)>:this <- $r9
	@DEBUG_VALUE: CalculateNMS:detections <- $r9
	@DEBUG_VALUE: CalculateNMS:idxClass <- $r6
	@DEBUG_VALUE: CalculateNMS:classes <- $r4
	@DEBUG_VALUE: __distance<std::__forward_list_iterator<std::__forward_list_node<arm::app::image::Detection, void *> *> >:__first <- $r2
	@DEBUG_VALUE: __distance<std::__forward_list_iterator<std::__forward_list_node<arm::app::image::Detection, void *> *> >:__r <- [DW_OP_constu 1, DW_OP_minus, DW_OP_constu 1, DW_OP_or, DW_OP_stack_value] $r1
	@DEBUG_VALUE: __distance<std::__forward_list_iterator<std::__forward_list_node<arm::app::image::Detection, void *> *> >:__last <- 0
	@DEBUG_VALUE: CalculateNMS:CompareProbs <- 0
	@DEBUG_VALUE: __distance<std::__forward_list_iterator<std::__forward_list_node<arm::app::image::Detection, void *> *> >:__first <- undef
	@DEBUG_VALUE: __distance<std::__forward_list_iterator<std::__forward_list_node<arm::app::image::Detection, void *> *> >:__r <- [DW_OP_constu 1, DW_OP_minus, DW_OP_constu 2, DW_OP_or, DW_OP_stack_value] $r1
	@DEBUG_VALUE: operator++:this <- undef
	.loc	9 344 51                        @ Keil_v5\ARM\ARMCLANG\Bin\..\include\libcxx\forward_list:344:51
	ldr	r2, [r2]
.Ltmp102:
	@DEBUG_VALUE: operator==:__y <- undef
	@DEBUG_VALUE: operator==:__x <- undef
	@DEBUG_VALUE: operator!=:__y <- undef
	@DEBUG_VALUE: operator!=:__x <- undef
	@DEBUG_VALUE: __distance<std::__forward_list_iterator<std::__forward_list_node<arm::app::image::Detection, void *> *> >:__first <- $r2
	.loc	9 0 51 is_stmt 0                @ Keil_v5\ARM\ARMCLANG\Bin\..\include\libcxx\forward_list:0:51
	cbz	r2, .LBB4_11
.Ltmp103:
@ %bb.7:                                @   in Loop: Header=BB4_5 Depth=2
	@DEBUG_VALUE: CalculateNMS:iouThreshold <- $s16
	@DEBUG_VALUE: sort<(lambda at ../../../../ThirdParty/ml-embedded-evaluation-kit/source/application/api/common/source/ImageUtils.cc:78:29)>:this <- $r9
	@DEBUG_VALUE: CalculateNMS:detections <- $r9
	@DEBUG_VALUE: CalculateNMS:idxClass <- $r6
	@DEBUG_VALUE: CalculateNMS:classes <- $r4
	@DEBUG_VALUE: __distance<std::__forward_list_iterator<std::__forward_list_node<arm::app::image::Detection, void *> *> >:__first <- $r2
	@DEBUG_VALUE: __distance<std::__forward_list_iterator<std::__forward_list_node<arm::app::image::Detection, void *> *> >:__r <- [DW_OP_constu 1, DW_OP_minus, DW_OP_constu 2, DW_OP_or, DW_OP_stack_value] $r1
	@DEBUG_VALUE: __distance<std::__forward_list_iterator<std::__forward_list_node<arm::app::image::Detection, void *> *> >:__last <- 0
	@DEBUG_VALUE: CalculateNMS:CompareProbs <- 0
	@DEBUG_VALUE: __distance<std::__forward_list_iterator<std::__forward_list_node<arm::app::image::Detection, void *> *> >:__first <- undef
	@DEBUG_VALUE: __distance<std::__forward_list_iterator<std::__forward_list_node<arm::app::image::Detection, void *> *> >:__r <- [DW_OP_constu 1, DW_OP_minus, DW_OP_constu 3, DW_OP_or, DW_OP_stack_value] $r1
	@DEBUG_VALUE: operator++:this <- undef
	.loc	9 344 51                        @ Keil_v5\ARM\ARMCLANG\Bin\..\include\libcxx\forward_list:344:51
	ldr	r2, [r2]
.Ltmp104:
	@DEBUG_VALUE: operator==:__y <- undef
	@DEBUG_VALUE: operator==:__x <- undef
	@DEBUG_VALUE: operator!=:__y <- undef
	@DEBUG_VALUE: operator!=:__x <- undef
	@DEBUG_VALUE: __distance<std::__forward_list_iterator<std::__forward_list_node<arm::app::image::Detection, void *> *> >:__first <- $r2
	.loc	9 0 51                          @ Keil_v5\ARM\ARMCLANG\Bin\..\include\libcxx\forward_list:0:51
	cbz	r2, .LBB4_12
.Ltmp105:
@ %bb.8:                                @   in Loop: Header=BB4_5 Depth=2
	@DEBUG_VALUE: CalculateNMS:iouThreshold <- $s16
	@DEBUG_VALUE: sort<(lambda at ../../../../ThirdParty/ml-embedded-evaluation-kit/source/application/api/common/source/ImageUtils.cc:78:29)>:this <- $r9
	@DEBUG_VALUE: CalculateNMS:detections <- $r9
	@DEBUG_VALUE: CalculateNMS:idxClass <- $r6
	@DEBUG_VALUE: CalculateNMS:classes <- $r4
	@DEBUG_VALUE: __distance<std::__forward_list_iterator<std::__forward_list_node<arm::app::image::Detection, void *> *> >:__first <- $r2
	@DEBUG_VALUE: __distance<std::__forward_list_iterator<std::__forward_list_node<arm::app::image::Detection, void *> *> >:__r <- [DW_OP_constu 1, DW_OP_minus, DW_OP_constu 3, DW_OP_or, DW_OP_stack_value] $r1
	@DEBUG_VALUE: __distance<std::__forward_list_iterator<std::__forward_list_node<arm::app::image::Detection, void *> *> >:__last <- 0
	@DEBUG_VALUE: CalculateNMS:CompareProbs <- 0
	@DEBUG_VALUE: __distance<std::__forward_list_iterator<std::__forward_list_node<arm::app::image::Detection, void *> *> >:__first <- undef
	@DEBUG_VALUE: __distance<std::__forward_list_iterator<std::__forward_list_node<arm::app::image::Detection, void *> *> >:__r <- [DW_OP_plus_uconst 3, DW_OP_stack_value] $r1
	@DEBUG_VALUE: operator++:this <- undef
	.loc	9 344 51                        @ Keil_v5\ARM\ARMCLANG\Bin\..\include\libcxx\forward_list:344:51
	ldr	r2, [r2]
.Ltmp106:
	@DEBUG_VALUE: operator==:__y <- undef
	@DEBUG_VALUE: operator==:__x <- undef
	@DEBUG_VALUE: operator!=:__y <- undef
	@DEBUG_VALUE: operator!=:__x <- undef
	@DEBUG_VALUE: __distance<std::__forward_list_iterator<std::__forward_list_node<arm::app::image::Detection, void *> *> >:__first <- $r2
	.loc	23 678 5 is_stmt 1              @ Keil_v5\ARM\ARMCLANG\Bin\..\include\libcxx\iterator:678:5
	adds	r1, #4
.Ltmp107:
	cbz	r2, .LBB4_9
	le	.LBB4_5
.Ltmp108:
.LBB4_9:                                @   in Loop: Header=BB4_3 Depth=1
	@DEBUG_VALUE: CalculateNMS:iouThreshold <- $s16
	@DEBUG_VALUE: sort<(lambda at ../../../../ThirdParty/ml-embedded-evaluation-kit/source/application/api/common/source/ImageUtils.cc:78:29)>:this <- $r9
	@DEBUG_VALUE: CalculateNMS:detections <- $r9
	@DEBUG_VALUE: CalculateNMS:idxClass <- $r6
	@DEBUG_VALUE: CalculateNMS:classes <- $r4
	@DEBUG_VALUE: CalculateNMS:CompareProbs <- 0
	.loc	9 1647 39                       @ Keil_v5\ARM\ARMCLANG\Bin\..\include\libcxx\forward_list:1647:39
	subs	r1, #1
	b	.LBB4_13
.Ltmp109:
	.p2align	2
.LBB4_10:                               @   in Loop: Header=BB4_3 Depth=1
	@DEBUG_VALUE: CalculateNMS:iouThreshold <- $s16
	@DEBUG_VALUE: sort<(lambda at ../../../../ThirdParty/ml-embedded-evaluation-kit/source/application/api/common/source/ImageUtils.cc:78:29)>:this <- $r9
	@DEBUG_VALUE: CalculateNMS:detections <- $r9
	@DEBUG_VALUE: CalculateNMS:idxClass <- $r6
	@DEBUG_VALUE: CalculateNMS:classes <- $r4
	@DEBUG_VALUE: __distance<std::__forward_list_iterator<std::__forward_list_node<arm::app::image::Detection, void *> *> >:__first <- $r0
	@DEBUG_VALUE: __distance<std::__forward_list_iterator<std::__forward_list_node<arm::app::image::Detection, void *> *> >:__last <- 0
	@DEBUG_VALUE: __distance<std::__forward_list_iterator<std::__forward_list_node<arm::app::image::Detection, void *> *> >:__r <- 0
	@DEBUG_VALUE: CalculateNMS:CompareProbs <- 0
	.loc	23 0 0 is_stmt 0                @ Keil_v5\ARM\ARMCLANG\Bin\..\include\libcxx\iterator:0:0
	movs	r1, #0
	b	.LBB4_13
.Ltmp110:
.LBB4_11:                               @   in Loop: Header=BB4_3 Depth=1
	@DEBUG_VALUE: CalculateNMS:iouThreshold <- $s16
	@DEBUG_VALUE: sort<(lambda at ../../../../ThirdParty/ml-embedded-evaluation-kit/source/application/api/common/source/ImageUtils.cc:78:29)>:this <- $r9
	@DEBUG_VALUE: CalculateNMS:detections <- $r9
	@DEBUG_VALUE: CalculateNMS:idxClass <- $r6
	@DEBUG_VALUE: CalculateNMS:classes <- $r4
	@DEBUG_VALUE: CalculateNMS:CompareProbs <- 0
	.loc	9 1647 39                       @ Keil_v5\ARM\ARMCLANG\Bin\..\include\libcxx\forward_list:1647:39
	adds	r1, #1
	b	.LBB4_13
.Ltmp111:
.LBB4_12:                               @   in Loop: Header=BB4_3 Depth=1
	@DEBUG_VALUE: CalculateNMS:iouThreshold <- $s16
	@DEBUG_VALUE: sort<(lambda at ../../../../ThirdParty/ml-embedded-evaluation-kit/source/application/api/common/source/ImageUtils.cc:78:29)>:this <- $r9
	@DEBUG_VALUE: CalculateNMS:detections <- $r9
	@DEBUG_VALUE: CalculateNMS:idxClass <- $r6
	@DEBUG_VALUE: CalculateNMS:classes <- $r4
	@DEBUG_VALUE: CalculateNMS:CompareProbs <- 0
	adds	r1, #2
.Ltmp112:
	.p2align	2
.LBB4_13:                               @   in Loop: Header=BB4_3 Depth=1
	@DEBUG_VALUE: CalculateNMS:iouThreshold <- $s16
	@DEBUG_VALUE: sort<(lambda at ../../../../ThirdParty/ml-embedded-evaluation-kit/source/application/api/common/source/ImageUtils.cc:78:29)>:this <- $r9
	@DEBUG_VALUE: CalculateNMS:detections <- $r9
	@DEBUG_VALUE: CalculateNMS:idxClass <- $r6
	@DEBUG_VALUE: CalculateNMS:classes <- $r4
	@DEBUG_VALUE: CalculateNMS:CompareProbs <- 0
	mov	r2, r8
	bl	_ZNSt3__212forward_listIN3arm3app5image9DetectionENS_9allocatorIS4_EEE6__sortIZNS3_12CalculateNMSERS7_ifE3$_0EEPNS_19__forward_list_nodeIS4_PvEESE_iRT_
.Ltmp113:
	.loc	9 0 39                          @ Keil_v5\ARM\ARMCLANG\Bin\..\include\libcxx\forward_list:0:39
	mov	r1, r0
	.loc	9 1647 37                       @ Keil_v5\ARM\ARMCLANG\Bin\..\include\libcxx\forward_list:1647:37
	str.w	r0, [r9]
.Ltmp114:
	@DEBUG_VALUE: operator==:__y <- undef
	@DEBUG_VALUE: operator==:__x <- undef
	@DEBUG_VALUE: operator!=:__y <- undef
	@DEBUG_VALUE: operator!=:__x <- undef
	@DEBUG_VALUE: it <- $r0
	.loc	22 85 13 is_stmt 1              @ ../../../../ThirdParty/ml-embedded-evaluation-kit/source/application/api/common/source/ImageUtils.cc:85:13
	cbnz	r0, .LBB4_15
	b	.LBB4_2
.Ltmp115:
	.p2align	2
.LBB4_14:                               @   in Loop: Header=BB4_15 Depth=2
	@DEBUG_VALUE: CalculateNMS:iouThreshold <- $s16
	@DEBUG_VALUE: CalculateNMS:detections <- $r9
	@DEBUG_VALUE: CalculateNMS:idxClass <- $r6
	@DEBUG_VALUE: CalculateNMS:classes <- $r4
	@DEBUG_VALUE: it <- $r1
	@DEBUG_VALUE: CalculateNMS:CompareProbs <- 0
	@DEBUG_VALUE: it <- $r2
	@DEBUG_VALUE: operator!=:__x <- undef
	@DEBUG_VALUE: operator!=:__y <- undef
	@DEBUG_VALUE: operator==:__x <- undef
	@DEBUG_VALUE: operator==:__y <- undef
	@DEBUG_VALUE: operator++:this <- undef
	cmp	r2, #0
	mov	r1, r2
.Ltmp116:
	@DEBUG_VALUE: it <- $r1
	beq	.LBB4_2
.Ltmp117:
.LBB4_15:                               @   Parent Loop BB4_3 Depth=1
                                        @ =>  This Loop Header: Depth=2
                                        @       Child Loop BB4_20 Depth 3
	@DEBUG_VALUE: CalculateNMS:iouThreshold <- $s16
	@DEBUG_VALUE: CalculateNMS:detections <- $r9
	@DEBUG_VALUE: CalculateNMS:idxClass <- $r6
	@DEBUG_VALUE: CalculateNMS:classes <- $r4
	@DEBUG_VALUE: CalculateNMS:CompareProbs <- 0
	@DEBUG_VALUE: it <- $r1
	@DEBUG_VALUE: operator[]:this <- [DW_OP_plus_uconst 20, DW_OP_stack_value] $r1
	@DEBUG_VALUE: operator[]:__n <- $r6
	.loc	7 1550 18                       @ Keil_v5\ARM\ARMCLANG\Bin\..\include\libcxx\vector:1550:18
	ldr	r2, [r1, #20]
	.loc	7 1550 12 is_stmt 0             @ Keil_v5\ARM\ARMCLANG\Bin\..\include\libcxx\vector:1550:12
	add.w	r2, r2, r6, lsl #2
.Ltmp118:
	.loc	22 86 21 is_stmt 1              @ ../../../../ThirdParty/ml-embedded-evaluation-kit/source/application/api/common/source/ImageUtils.cc:86:21
	vldr	s0, [r2]
.Ltmp119:
	.loc	22 0 0 is_stmt 0                @ ../../../../ThirdParty/ml-embedded-evaluation-kit/source/application/api/common/source/ImageUtils.cc:0:0
	ldr	r2, [r1]
.Ltmp120:
	.loc	22 86 21                        @ ../../../../ThirdParty/ml-embedded-evaluation-kit/source/application/api/common/source/ImageUtils.cc:86:21
	vcmp.f32	s0, #0
	vmrs	APSR_nzcv, fpscr
	beq	.LBB4_14
.Ltmp121:
@ %bb.16:                               @   in Loop: Header=BB4_15 Depth=2
	@DEBUG_VALUE: CalculateNMS:iouThreshold <- $s16
	@DEBUG_VALUE: CalculateNMS:detections <- $r9
	@DEBUG_VALUE: CalculateNMS:idxClass <- $r6
	@DEBUG_VALUE: CalculateNMS:classes <- $r4
	@DEBUG_VALUE: it <- $r1
	@DEBUG_VALUE: CalculateNMS:CompareProbs <- 0
	@DEBUG_VALUE: __advance<std::__forward_list_iterator<std::__forward_list_node<arm::app::image::Detection, void *> *> >:__n <- [DW_OP_constu 1, DW_OP_minus, DW_OP_stack_value] undef
	@DEBUG_VALUE: operator++:this <- undef
	@DEBUG_VALUE: itc <- $r2
	@DEBUG_VALUE: operator!=:__x <- undef
	@DEBUG_VALUE: operator!=:__y <- undef
	@DEBUG_VALUE: operator==:__x <- undef
	@DEBUG_VALUE: operator==:__y <- undef
	.loc	22 87 17 is_stmt 1              @ ../../../../ThirdParty/ml-embedded-evaluation-kit/source/application/api/common/source/ImageUtils.cc:87:17
	cmp	r2, #0
	beq	.LBB4_2
.Ltmp122:
@ %bb.17:                               @   in Loop: Header=BB4_15 Depth=2
	@DEBUG_VALUE: CalculateNMS:iouThreshold <- $s16
	@DEBUG_VALUE: CalculateNMS:detections <- $r9
	@DEBUG_VALUE: CalculateNMS:idxClass <- $r6
	@DEBUG_VALUE: CalculateNMS:classes <- $r4
	@DEBUG_VALUE: itc <- $r2
	@DEBUG_VALUE: it <- $r1
	@DEBUG_VALUE: CalculateNMS:CompareProbs <- 0
	.loc	22 0 17 is_stmt 0               @ ../../../../ThirdParty/ml-embedded-evaluation-kit/source/application/api/common/source/ImageUtils.cc:0:17
	mov	r3, r2
	b	.LBB4_20
.Ltmp123:
	.p2align	2
.LBB4_18:                               @   in Loop: Header=BB4_20 Depth=3
	@DEBUG_VALUE: CalculateNMS:iouThreshold <- $s16
	@DEBUG_VALUE: CalculateNMS:detections <- $r9
	@DEBUG_VALUE: CalculateNMS:idxClass <- $r6
	@DEBUG_VALUE: CalculateNMS:classes <- $r4
	@DEBUG_VALUE: itc <- $r3
	@DEBUG_VALUE: it <- $r1
	@DEBUG_VALUE: CalculateNMS:CompareProbs <- 0
	.loc	22 91 25 is_stmt 1              @ ../../../../ThirdParty/ml-embedded-evaluation-kit/source/application/api/common/source/ImageUtils.cc:91:25
	vcmp.f32	s10, s16
	vmrs	APSR_nzcv, fpscr
.Ltmp124:
	@DEBUG_VALUE: operator[]:this <- [DW_OP_plus_uconst 20, DW_OP_stack_value] $r3
	@DEBUG_VALUE: operator[]:__n <- $r6
	.loc	22 92 45                        @ ../../../../ThirdParty/ml-embedded-evaluation-kit/source/application/api/common/source/ImageUtils.cc:92:45
	it	gt
	strgt	r7, [r5]
.Ltmp125:
.LBB4_19:                               @   in Loop: Header=BB4_20 Depth=3
	@DEBUG_VALUE: CalculateNMS:iouThreshold <- $s16
	@DEBUG_VALUE: CalculateNMS:detections <- $r9
	@DEBUG_VALUE: CalculateNMS:idxClass <- $r6
	@DEBUG_VALUE: CalculateNMS:classes <- $r4
	@DEBUG_VALUE: itc <- $r3
	@DEBUG_VALUE: it <- $r1
	@DEBUG_VALUE: CalculateNMS:CompareProbs <- 0
	@DEBUG_VALUE: operator++:this <- undef
	.loc	9 344 51                        @ Keil_v5\ARM\ARMCLANG\Bin\..\include\libcxx\forward_list:344:51
	ldr	r3, [r3]
.Ltmp126:
	@DEBUG_VALUE: operator==:__y <- undef
	@DEBUG_VALUE: operator==:__x <- undef
	@DEBUG_VALUE: operator!=:__y <- undef
	@DEBUG_VALUE: operator!=:__x <- undef
	@DEBUG_VALUE: itc <- $r3
	.loc	22 87 17                        @ ../../../../ThirdParty/ml-embedded-evaluation-kit/source/application/api/common/source/ImageUtils.cc:87:17
	cmp	r3, #0
	beq	.LBB4_14
.Ltmp127:
.LBB4_20:                               @   Parent Loop BB4_3 Depth=1
                                        @     Parent Loop BB4_15 Depth=2
                                        @ =>    This Inner Loop Header: Depth=3
	@DEBUG_VALUE: CalculateNMS:iouThreshold <- $s16
	@DEBUG_VALUE: CalculateNMS:detections <- $r9
	@DEBUG_VALUE: CalculateNMS:idxClass <- $r6
	@DEBUG_VALUE: CalculateNMS:classes <- $r4
	@DEBUG_VALUE: it <- $r1
	@DEBUG_VALUE: CalculateNMS:CompareProbs <- 0
	@DEBUG_VALUE: itc <- $r3
	@DEBUG_VALUE: operator[]:this <- [DW_OP_plus_uconst 20, DW_OP_stack_value] $r3
	@DEBUG_VALUE: operator[]:__n <- $r6
	.loc	7 1550 18                       @ Keil_v5\ARM\ARMCLANG\Bin\..\include\libcxx\vector:1550:18
	ldr	r5, [r3, #20]
	.loc	7 1550 12 is_stmt 0             @ Keil_v5\ARM\ARMCLANG\Bin\..\include\libcxx\vector:1550:12
	add.w	r5, r5, r6, lsl #2
.Ltmp128:
	.loc	22 88 25 is_stmt 1              @ ../../../../ThirdParty/ml-embedded-evaluation-kit/source/application/api/common/source/ImageUtils.cc:88:25
	vldr	s0, [r5]
.Ltmp129:
	.loc	22 88 25 is_stmt 0              @ ../../../../ThirdParty/ml-embedded-evaluation-kit/source/application/api/common/source/ImageUtils.cc:88:25
	vcmp.f32	s0, #0
	vmrs	APSR_nzcv, fpscr
	beq	.LBB4_19
.Ltmp130:
@ %bb.21:                               @   in Loop: Header=BB4_20 Depth=3
	@DEBUG_VALUE: CalculateNMS:iouThreshold <- $s16
	@DEBUG_VALUE: CalculateNMS:detections <- $r9
	@DEBUG_VALUE: CalculateNMS:idxClass <- $r6
	@DEBUG_VALUE: CalculateNMS:classes <- $r4
	@DEBUG_VALUE: itc <- $r3
	@DEBUG_VALUE: it <- $r1
	@DEBUG_VALUE: CalculateNMS:CompareProbs <- 0
	@DEBUG_VALUE: CalculateBoxIOU:box1 <- [DW_OP_plus_uconst 4, DW_OP_stack_value] $r1
	@DEBUG_VALUE: CalculateBoxIOU:box2 <- [DW_OP_plus_uconst 4, DW_OP_stack_value] $r3
	@DEBUG_VALUE: CalculateBoxIntersect:box1 <- [DW_OP_plus_uconst 4, DW_OP_stack_value] $r1
	@DEBUG_VALUE: CalculateBoxIntersect:box2 <- [DW_OP_plus_uconst 4, DW_OP_stack_value] $r3
	.loc	22 40 55 is_stmt 1              @ ../../../../ThirdParty/ml-embedded-evaluation-kit/source/application/api/common/source/ImageUtils.cc:40:55
	vldr	s0, [r1, #12]
	.loc	22 40 71 is_stmt 0              @ ../../../../ThirdParty/ml-embedded-evaluation-kit/source/application/api/common/source/ImageUtils.cc:40:71
	vldr	s2, [r3, #12]
	@DEBUG_VALUE: Calculate1DOverlap:x2Center <- $s6
.Ltmp131:
	@DEBUG_VALUE: Calculate1DOverlap:width1 <- $s0
	@DEBUG_VALUE: Calculate1DOverlap:x1Center <- $s4
	@DEBUG_VALUE: Calculate1DOverlap:width2 <- $s2
	.loc	22 40 47                        @ ../../../../ThirdParty/ml-embedded-evaluation-kit/source/application/api/common/source/ImageUtils.cc:40:47
	vldr	s4, [r1, #4]
	.loc	22 40 63                        @ ../../../../ThirdParty/ml-embedded-evaluation-kit/source/application/api/common/source/ImageUtils.cc:40:63
	vldr	s6, [r3, #4]
.Ltmp132:
	.loc	22 27 41 is_stmt 1              @ ../../../../ThirdParty/ml-embedded-evaluation-kit/source/application/api/common/source/ImageUtils.cc:27:41
	vmul.f32	s8, s0, s18
	.loc	22 28 41                        @ ../../../../ThirdParty/ml-embedded-evaluation-kit/source/application/api/common/source/ImageUtils.cc:28:41
	vmul.f32	s10, s2, s18
	.loc	22 27 33                        @ ../../../../ThirdParty/ml-embedded-evaluation-kit/source/application/api/common/source/ImageUtils.cc:27:33
	vsub.f32	s12, s4, s8
.Ltmp133:
	@DEBUG_VALUE: Calculate1DOverlap:left_1 <- $s12
	.loc	22 28 33                        @ ../../../../ThirdParty/ml-embedded-evaluation-kit/source/application/api/common/source/ImageUtils.cc:28:33
	vsub.f32	s14, s6, s10
.Ltmp134:
	@DEBUG_VALUE: Calculate1DOverlap:left_2 <- $s14
	.loc	22 31 34                        @ ../../../../ThirdParty/ml-embedded-evaluation-kit/source/application/api/common/source/ImageUtils.cc:31:34
	vadd.f32	s4, s4, s8
.Ltmp135:
	@DEBUG_VALUE: Calculate1DOverlap:right_1 <- $s4
	.loc	22 32 34                        @ ../../../../ThirdParty/ml-embedded-evaluation-kit/source/application/api/common/source/ImageUtils.cc:32:34
	vadd.f32	s6, s6, s10
.Ltmp136:
	@DEBUG_VALUE: Calculate1DOverlap:right_2 <- $s6
	.loc	22 29 25                        @ ../../../../ThirdParty/ml-embedded-evaluation-kit/source/application/api/common/source/ImageUtils.cc:29:25
	vmaxnm.f32	s8, s12, s14
.Ltmp137:
	@DEBUG_VALUE: Calculate1DOverlap:leftest <- $s8
	.loc	22 33 26                        @ ../../../../ThirdParty/ml-embedded-evaluation-kit/source/application/api/common/source/ImageUtils.cc:33:26
	vminnm.f32	s4, s4, s6
.Ltmp138:
	@DEBUG_VALUE: Calculate1DOverlap:rightest <- $s4
	.loc	22 35 25                        @ ../../../../ThirdParty/ml-embedded-evaluation-kit/source/application/api/common/source/ImageUtils.cc:35:25
	vsub.f32	s4, s4, s8
.Ltmp139:
	@DEBUG_VALUE: CalculateBoxIntersect:width <- $s4
	.loc	22 0 0 is_stmt 0                @ ../../../../ThirdParty/ml-embedded-evaluation-kit/source/application/api/common/source/ImageUtils.cc:0:0
	vmov.f32	s10, s20
	@DEBUG_VALUE: CalculateBoxIntersect:box1 <- [DW_OP_plus_uconst 4, DW_OP_stack_value] $r1
	@DEBUG_VALUE: CalculateBoxIntersect:box2 <- [DW_OP_plus_uconst 4, DW_OP_stack_value] $r3
	@DEBUG_VALUE: CalculateBoxIntersect:width <- $s4
.Ltmp140:
	.loc	22 41 13 is_stmt 1              @ ../../../../ThirdParty/ml-embedded-evaluation-kit/source/application/api/common/source/ImageUtils.cc:41:13
	vcmp.f32	s4, #0
	vmrs	APSR_nzcv, fpscr
	blt	.LBB4_18
.Ltmp141:
@ %bb.22:                               @   in Loop: Header=BB4_20 Depth=3
	@DEBUG_VALUE: CalculateNMS:iouThreshold <- $s16
	@DEBUG_VALUE: CalculateBoxIntersect:width <- $s4
	@DEBUG_VALUE: CalculateNMS:detections <- $r9
	@DEBUG_VALUE: CalculateNMS:idxClass <- $r6
	@DEBUG_VALUE: CalculateNMS:classes <- $r4
	@DEBUG_VALUE: CalculateBoxIntersect:box2 <- [DW_OP_plus_uconst 4, DW_OP_stack_value] $r3
	@DEBUG_VALUE: CalculateBoxIOU:box2 <- [DW_OP_plus_uconst 4, DW_OP_stack_value] $r3
	@DEBUG_VALUE: itc <- $r3
	@DEBUG_VALUE: CalculateBoxIntersect:box1 <- [DW_OP_plus_uconst 4, DW_OP_stack_value] $r1
	@DEBUG_VALUE: CalculateBoxIOU:box1 <- [DW_OP_plus_uconst 4, DW_OP_stack_value] $r1
	@DEBUG_VALUE: it <- $r1
	@DEBUG_VALUE: CalculateNMS:CompareProbs <- 0
	.loc	22 44 56                        @ ../../../../ThirdParty/ml-embedded-evaluation-kit/source/application/api/common/source/ImageUtils.cc:44:56
	vldr	s6, [r1, #16]
	.loc	22 44 72 is_stmt 0              @ ../../../../ThirdParty/ml-embedded-evaluation-kit/source/application/api/common/source/ImageUtils.cc:44:72
	vldr	s8, [r3, #16]
	@DEBUG_VALUE: Calculate1DOverlap:x2Center <- $s12
.Ltmp142:
	@DEBUG_VALUE: Calculate1DOverlap:width1 <- $s6
	@DEBUG_VALUE: Calculate1DOverlap:x1Center <- $s10
	@DEBUG_VALUE: Calculate1DOverlap:width2 <- $s8
	.loc	22 44 48                        @ ../../../../ThirdParty/ml-embedded-evaluation-kit/source/application/api/common/source/ImageUtils.cc:44:48
	vldr	s10, [r1, #8]
	.loc	22 44 64                        @ ../../../../ThirdParty/ml-embedded-evaluation-kit/source/application/api/common/source/ImageUtils.cc:44:64
	vldr	s12, [r3, #8]
.Ltmp143:
	.loc	22 27 41 is_stmt 1              @ ../../../../ThirdParty/ml-embedded-evaluation-kit/source/application/api/common/source/ImageUtils.cc:27:41
	vmul.f32	s14, s6, s18
	.loc	22 28 41                        @ ../../../../ThirdParty/ml-embedded-evaluation-kit/source/application/api/common/source/ImageUtils.cc:28:41
	vmul.f32	s1, s8, s18
	.loc	22 27 33                        @ ../../../../ThirdParty/ml-embedded-evaluation-kit/source/application/api/common/source/ImageUtils.cc:27:33
	vsub.f32	s3, s10, s14
.Ltmp144:
	@DEBUG_VALUE: Calculate1DOverlap:left_1 <- $s3
	.loc	22 28 33                        @ ../../../../ThirdParty/ml-embedded-evaluation-kit/source/application/api/common/source/ImageUtils.cc:28:33
	vsub.f32	s5, s12, s1
.Ltmp145:
	@DEBUG_VALUE: Calculate1DOverlap:left_2 <- $s5
	.loc	22 31 34                        @ ../../../../ThirdParty/ml-embedded-evaluation-kit/source/application/api/common/source/ImageUtils.cc:31:34
	vadd.f32	s10, s10, s14
.Ltmp146:
	@DEBUG_VALUE: Calculate1DOverlap:right_1 <- $s10
	.loc	22 32 34                        @ ../../../../ThirdParty/ml-embedded-evaluation-kit/source/application/api/common/source/ImageUtils.cc:32:34
	vadd.f32	s12, s12, s1
.Ltmp147:
	@DEBUG_VALUE: Calculate1DOverlap:right_2 <- $s12
	.loc	22 29 25                        @ ../../../../ThirdParty/ml-embedded-evaluation-kit/source/application/api/common/source/ImageUtils.cc:29:25
	vmaxnm.f32	s14, s3, s5
.Ltmp148:
	@DEBUG_VALUE: Calculate1DOverlap:leftest <- $s14
	.loc	22 33 26                        @ ../../../../ThirdParty/ml-embedded-evaluation-kit/source/application/api/common/source/ImageUtils.cc:33:26
	vminnm.f32	s10, s10, s12
.Ltmp149:
	@DEBUG_VALUE: Calculate1DOverlap:rightest <- $s10
	.loc	22 35 25                        @ ../../../../ThirdParty/ml-embedded-evaluation-kit/source/application/api/common/source/ImageUtils.cc:35:25
	vsub.f32	s12, s10, s14
.Ltmp150:
	@DEBUG_VALUE: CalculateBoxIOU:boxes_intersection <- undef
	@DEBUG_VALUE: CalculateBoxIntersect:height <- $s12
	.loc	22 0 0 is_stmt 0                @ ../../../../ThirdParty/ml-embedded-evaluation-kit/source/application/api/common/source/ImageUtils.cc:0:0
	vmov.f32	s10, s20
.Ltmp151:
	vcmp.f32	s12, #0
	vmrs	APSR_nzcv, fpscr
	blt	.LBB4_18
.Ltmp152:
@ %bb.23:                               @   in Loop: Header=BB4_20 Depth=3
	@DEBUG_VALUE: CalculateNMS:iouThreshold <- $s16
	@DEBUG_VALUE: Calculate1DOverlap:leftest <- $s14
	@DEBUG_VALUE: CalculateBoxIntersect:height <- $s12
	@DEBUG_VALUE: Calculate1DOverlap:width2 <- $s8
	@DEBUG_VALUE: Calculate1DOverlap:width1 <- $s6
	@DEBUG_VALUE: Calculate1DOverlap:left_2 <- $s5
	@DEBUG_VALUE: CalculateBoxIntersect:width <- $s4
	@DEBUG_VALUE: Calculate1DOverlap:left_1 <- $s3
	@DEBUG_VALUE: CalculateNMS:detections <- $r9
	@DEBUG_VALUE: CalculateNMS:idxClass <- $r6
	@DEBUG_VALUE: CalculateNMS:classes <- $r4
	@DEBUG_VALUE: CalculateBoxIntersect:box2 <- [DW_OP_plus_uconst 4, DW_OP_stack_value] $r3
	@DEBUG_VALUE: CalculateBoxIOU:box2 <- [DW_OP_plus_uconst 4, DW_OP_stack_value] $r3
	@DEBUG_VALUE: itc <- $r3
	@DEBUG_VALUE: CalculateBoxIntersect:box1 <- [DW_OP_plus_uconst 4, DW_OP_stack_value] $r1
	@DEBUG_VALUE: CalculateBoxIOU:box1 <- [DW_OP_plus_uconst 4, DW_OP_stack_value] $r1
	@DEBUG_VALUE: it <- $r1
	@DEBUG_VALUE: CalculateNMS:CompareProbs <- 0
	vmul.f32	s4, s4, s12
.Ltmp153:
	@DEBUG_VALUE: CalculateBoxIOU:boxes_intersection <- $s4
	vmov.f32	s10, s20
	vcmp.f32	s4, #0
	vmrs	APSR_nzcv, fpscr
	beq	.LBB4_18
.Ltmp154:
@ %bb.24:                               @   in Loop: Header=BB4_20 Depth=3
	@DEBUG_VALUE: CalculateNMS:iouThreshold <- $s16
	@DEBUG_VALUE: CalculateBoxIOU:boxes_intersection <- $s4
	@DEBUG_VALUE: CalculateNMS:detections <- $r9
	@DEBUG_VALUE: CalculateNMS:idxClass <- $r6
	@DEBUG_VALUE: CalculateNMS:classes <- $r4
	@DEBUG_VALUE: CalculateBoxIOU:box2 <- [DW_OP_plus_uconst 4, DW_OP_stack_value] $r3
	@DEBUG_VALUE: itc <- $r3
	@DEBUG_VALUE: CalculateBoxIOU:box1 <- [DW_OP_plus_uconst 4, DW_OP_stack_value] $r1
	@DEBUG_VALUE: it <- $r1
	@DEBUG_VALUE: CalculateNMS:CompareProbs <- 0
	@DEBUG_VALUE: CalculateBoxUnion:box1 <- [DW_OP_plus_uconst 4, DW_OP_stack_value] $r1
	@DEBUG_VALUE: CalculateBoxUnion:box2 <- [DW_OP_plus_uconst 4, DW_OP_stack_value] $r3
	@DEBUG_VALUE: CalculateBoxIntersect:box1 <- [DW_OP_plus_uconst 4, DW_OP_stack_value] $r1
	@DEBUG_VALUE: CalculateBoxIntersect:box2 <- [DW_OP_plus_uconst 4, DW_OP_stack_value] $r3
	@DEBUG_VALUE: Calculate1DOverlap:width1 <- $s0
	@DEBUG_VALUE: Calculate1DOverlap:width2 <- $s2
	@DEBUG_VALUE: CalculateBoxIntersect:width <- undef
	@DEBUG_VALUE: Calculate1DOverlap:x1Center <- undef
	@DEBUG_VALUE: Calculate1DOverlap:width1 <- $s6
	@DEBUG_VALUE: Calculate1DOverlap:x2Center <- undef
	@DEBUG_VALUE: Calculate1DOverlap:width2 <- $s8
	@DEBUG_VALUE: Calculate1DOverlap:left_1 <- undef
	@DEBUG_VALUE: Calculate1DOverlap:left_2 <- undef
	@DEBUG_VALUE: Calculate1DOverlap:leftest <- undef
	@DEBUG_VALUE: Calculate1DOverlap:right_1 <- undef
	@DEBUG_VALUE: Calculate1DOverlap:right_2 <- undef
	@DEBUG_VALUE: Calculate1DOverlap:rightest <- undef
	@DEBUG_VALUE: CalculateBoxUnion:boxes_intersection <- $s4
	.loc	22 56 36 is_stmt 1              @ ../../../../ThirdParty/ml-embedded-evaluation-kit/source/application/api/common/source/ImageUtils.cc:56:36
	vmul.f32	s0, s0, s6
.Ltmp155:
	.loc	22 56 54 is_stmt 0              @ ../../../../ThirdParty/ml-embedded-evaluation-kit/source/application/api/common/source/ImageUtils.cc:56:54
	vmul.f32	s2, s2, s8
.Ltmp156:
	.loc	22 56 45                        @ ../../../../ThirdParty/ml-embedded-evaluation-kit/source/application/api/common/source/ImageUtils.cc:56:45
	vadd.f32	s0, s0, s2
	.loc	22 56 63                        @ ../../../../ThirdParty/ml-embedded-evaluation-kit/source/application/api/common/source/ImageUtils.cc:56:63
	vsub.f32	s0, s0, s4
.Ltmp157:
	@DEBUG_VALUE: CalculateBoxIOU:boxes_union <- $s0
	@DEBUG_VALUE: CalculateBoxUnion:boxes_union <- $s0
	.loc	22 68 13 is_stmt 1              @ ../../../../ThirdParty/ml-embedded-evaluation-kit/source/application/api/common/source/ImageUtils.cc:68:13
	vdiv.f32	s2, s4, s0
	vcmp.f32	s0, #0
	vmrs	APSR_nzcv, fpscr
	vseleq.f32	s10, s20, s2
.Ltmp158:
	@DEBUG_VALUE: CalculateBoxIntersect:height <- undef
	@DEBUG_VALUE: Calculate1DOverlap:rightest <- undef
	@DEBUG_VALUE: Calculate1DOverlap:right_2 <- undef
	@DEBUG_VALUE: Calculate1DOverlap:right_1 <- undef
	@DEBUG_VALUE: Calculate1DOverlap:leftest <- undef
	@DEBUG_VALUE: Calculate1DOverlap:left_2 <- undef
	@DEBUG_VALUE: Calculate1DOverlap:left_1 <- undef
	@DEBUG_VALUE: Calculate1DOverlap:x2Center <- undef
	@DEBUG_VALUE: Calculate1DOverlap:x1Center <- undef
	.loc	22 0 13 is_stmt 0               @ ../../../../ThirdParty/ml-embedded-evaluation-kit/source/application/api/common/source/ImageUtils.cc:0:13
	b	.LBB4_18
.Ltmp159:
.LBB4_25:
	@DEBUG_VALUE: CalculateNMS:CompareProbs <- 0
	.loc	22 97 5 is_stmt 1               @ ../../../../ThirdParty/ml-embedded-evaluation-kit/source/application/api/common/source/ImageUtils.cc:97:5
	add	sp, #8
	vpop	{d8, d9, d10}
	add	sp, #4
	pop.w	{r4, r5, r6, r7, r8, r9, pc}
.Ltmp160:
	.p2align	2
@ %bb.26:
	.loc	22 0 5 is_stmt 0                @ ../../../../ThirdParty/ml-embedded-evaluation-kit/source/application/api/common/source/ImageUtils.cc:0:5
.LCPI4_0:
	.long	0x00000000                      @ float 0
.Lfunc_end4:
	.size	_ZN3arm3app5image12CalculateNMSERNSt3__212forward_listINS1_9DetectionENS2_9allocatorIS4_EEEEif, .Lfunc_end4-_ZN3arm3app5image12CalculateNMSERNSt3__212forward_listINS1_9DetectionENS2_9allocatorIS4_EEEEif
	.cfi_endproc
	.cantunwind
	.fnend
                                        @ -- End function
	.section	.text._ZN3arm3app5image16ConvertImgToInt8EPvj,"ax",%progbits
	.hidden	_ZN3arm3app5image16ConvertImgToInt8EPvj @ -- Begin function _ZN3arm3app5image16ConvertImgToInt8EPvj
	.globl	_ZN3arm3app5image16ConvertImgToInt8EPvj
	.p2align	2
	.type	_ZN3arm3app5image16ConvertImgToInt8EPvj,%function
	.code	16                              @ @_ZN3arm3app5image16ConvertImgToInt8EPvj
	.thumb_func
_ZN3arm3app5image16ConvertImgToInt8EPvj:
.Lfunc_begin5:
	.loc	22 100 0 is_stmt 1              @ ../../../../ThirdParty/ml-embedded-evaluation-kit/source/application/api/common/source/ImageUtils.cc:100:0
	.fnstart
	.cfi_startproc
@ %bb.0:
	@DEBUG_VALUE: ConvertImgToInt8:data <- $r0
	@DEBUG_VALUE: ConvertImgToInt8:kMaxImageSize <- $r1
	@DEBUG_VALUE: ConvertImgToInt8:kMaxImageSize <- $r1
	.save	{r7, lr}
	push	{r7, lr}
	.cfi_def_cfa_offset 8
	.cfi_offset lr, -4
	.cfi_offset r7, -8
.Ltmp161:
	@DEBUG_VALUE: ConvertImgToInt8:tmp_req_data <- $r0
	@DEBUG_VALUE: ConvertImgToInt8:tmp_signed_req_data <- $r0
	.loc	22 104 9 prologue_end           @ ../../../../ThirdParty/ml-embedded-evaluation-kit/source/application/api/common/source/ImageUtils.cc:104:9
	cmp	r1, #0
.Ltmp162:
	@DEBUG_VALUE: i <- 0
	@DEBUG_VALUE: ConvertImgToInt8:tmp_signed_req_data <- $r0
	@DEBUG_VALUE: ConvertImgToInt8:tmp_req_data <- $r0
	@DEBUG_VALUE: ConvertImgToInt8:data <- $r0
	.loc	22 108 5                        @ ../../../../ThirdParty/ml-embedded-evaluation-kit/source/application/api/common/source/ImageUtils.cc:108:5
	it	eq
	popeq	{r7, pc}
.Ltmp163:
.LBB5_1:
	@DEBUG_VALUE: ConvertImgToInt8:kMaxImageSize <- $r1
	@DEBUG_VALUE: ConvertImgToInt8:tmp_signed_req_data <- $r0
	@DEBUG_VALUE: ConvertImgToInt8:tmp_req_data <- $r0
	@DEBUG_VALUE: ConvertImgToInt8:data <- $r0
	@DEBUG_VALUE: i <- 0
	.loc	22 0 5 is_stmt 0                @ ../../../../ThirdParty/ml-embedded-evaluation-kit/source/application/api/common/source/ImageUtils.cc:0:5
	vmov.i8	q0, #0x80
.Ltmp164:
	.loc	22 104 9 is_stmt 1              @ ../../../../ThirdParty/ml-embedded-evaluation-kit/source/application/api/common/source/ImageUtils.cc:104:9
	dlstp.8	lr, r1
.Ltmp165:
	.p2align	2
.LBB5_2:                                @ =>This Inner Loop Header: Depth=1
	@DEBUG_VALUE: i <- 0
	@DEBUG_VALUE: ConvertImgToInt8:kMaxImageSize <- [DW_OP_LLVM_entry_value 1] $r1
	.loc	22 106 32                       @ ../../../../ThirdParty/ml-embedded-evaluation-kit/source/application/api/common/source/ImageUtils.cc:106:32
	vldrb.u8	q1, [r0]
	.loc	22 106 49 is_stmt 0             @ ../../../../ThirdParty/ml-embedded-evaluation-kit/source/application/api/common/source/ImageUtils.cc:106:49
	veor	q1, q1, q0
	.loc	22 105 36 is_stmt 1             @ ../../../../ThirdParty/ml-embedded-evaluation-kit/source/application/api/common/source/ImageUtils.cc:105:36
	vstrb.8	q1, [r0], #16
.Ltmp166:
	@DEBUG_VALUE: ConvertImgToInt8:data <- [DW_OP_LLVM_entry_value 1] $r0
	.loc	22 104 48                       @ ../../../../ThirdParty/ml-embedded-evaluation-kit/source/application/api/common/source/ImageUtils.cc:104:48
	letp	lr, .LBB5_2
.Ltmp167:
@ %bb.3:
	.loc	22 108 5                        @ ../../../../ThirdParty/ml-embedded-evaluation-kit/source/application/api/common/source/ImageUtils.cc:108:5
	pop	{r7, pc}
.Ltmp168:
.Lfunc_end5:
	.size	_ZN3arm3app5image16ConvertImgToInt8EPvj, .Lfunc_end5-_ZN3arm3app5image16ConvertImgToInt8EPvj
	.cfi_endproc
	.cantunwind
	.fnend
                                        @ -- End function
	.section	.text._ZN3arm3app5image14RgbToGrayscaleEPKhPhj,"ax",%progbits
	.hidden	_ZN3arm3app5image14RgbToGrayscaleEPKhPhj @ -- Begin function _ZN3arm3app5image14RgbToGrayscaleEPKhPhj
	.globl	_ZN3arm3app5image14RgbToGrayscaleEPKhPhj
	.p2align	2
	.type	_ZN3arm3app5image14RgbToGrayscaleEPKhPhj,%function
	.code	16                              @ @_ZN3arm3app5image14RgbToGrayscaleEPKhPhj
	.thumb_func
_ZN3arm3app5image14RgbToGrayscaleEPKhPhj:
.Lfunc_begin6:
	.loc	22 111 0                        @ ../../../../ThirdParty/ml-embedded-evaluation-kit/source/application/api/common/source/ImageUtils.cc:111:0
	.fnstart
	.cfi_startproc
@ %bb.0:
	@DEBUG_VALUE: RgbToGrayscale:srcPtr <- $r0
	@DEBUG_VALUE: RgbToGrayscale:dstPtr <- $r1
	@DEBUG_VALUE: RgbToGrayscale:dstPtr <- $r1
	@DEBUG_VALUE: RgbToGrayscale:dstImgSz <- $r2
	@DEBUG_VALUE: RgbToGrayscale:dstImgSz <- $r2
	.save	{r4, r5, r7, lr}
	push	{r4, r5, r7, lr}
	.cfi_def_cfa_offset 16
	.cfi_offset lr, -4
	.cfi_offset r7, -8
	.cfi_offset r5, -12
	.cfi_offset r4, -16
.Ltmp169:
	.loc	22 115 9 prologue_end           @ ../../../../ThirdParty/ml-embedded-evaluation-kit/source/application/api/common/source/ImageUtils.cc:115:9
	cmp	r2, #0
.Ltmp170:
	@DEBUG_VALUE: i <- 0
	@DEBUG_VALUE: RgbToGrayscale:B <- 1.140000e-01
	@DEBUG_VALUE: RgbToGrayscale:G <- 5.870000e-01
	@DEBUG_VALUE: RgbToGrayscale:R <- 2.990000e-01
	@DEBUG_VALUE: RgbToGrayscale:srcPtr <- $r0
	beq.w	.LBB6_8
.Ltmp171:
@ %bb.1:
	@DEBUG_VALUE: RgbToGrayscale:dstImgSz <- $r2
	@DEBUG_VALUE: RgbToGrayscale:dstPtr <- $r1
	@DEBUG_VALUE: RgbToGrayscale:srcPtr <- $r0
	@DEBUG_VALUE: RgbToGrayscale:R <- 2.990000e-01
	@DEBUG_VALUE: RgbToGrayscale:G <- 5.870000e-01
	@DEBUG_VALUE: RgbToGrayscale:B <- 1.140000e-01
	@DEBUG_VALUE: i <- 0
	subs	r3, r2, #1
	and	r12, r2, #3
	cmp	r3, #3
	blo.w	.LBB6_4
.Ltmp172:
@ %bb.2:
	@DEBUG_VALUE: RgbToGrayscale:dstImgSz <- $r2
	@DEBUG_VALUE: RgbToGrayscale:dstPtr <- $r1
	@DEBUG_VALUE: RgbToGrayscale:srcPtr <- $r0
	@DEBUG_VALUE: RgbToGrayscale:R <- 2.990000e-01
	@DEBUG_VALUE: RgbToGrayscale:G <- 5.870000e-01
	@DEBUG_VALUE: RgbToGrayscale:B <- 1.140000e-01
	@DEBUG_VALUE: i <- 0
	.loc	22 0 9 is_stmt 0                @ ../../../../ThirdParty/ml-embedded-evaluation-kit/source/application/api/common/source/ImageUtils.cc:0:9
	bic	r2, r2, #3
.Ltmp173:
	@DEBUG_VALUE: RgbToGrayscale:dstImgSz <- [DW_OP_LLVM_entry_value 1] $r2
	movs	r3, #1
	subs	r2, #4
	.loc	22 115 9                        @ ../../../../ThirdParty/ml-embedded-evaluation-kit/source/application/api/common/source/ImageUtils.cc:115:9
	add.w	lr, r3, r2, lsr #2
	vldr	s0, .LCPI6_0
	dls	lr, lr
	movs	r2, #255
	vldr	s2, .LCPI6_1
	vldr	s4, .LCPI6_2
.Ltmp174:
	.p2align	2
.LBB6_3:                                @ =>This Inner Loop Header: Depth=1
	@DEBUG_VALUE: RgbToGrayscale:dstPtr <- $r1
	@DEBUG_VALUE: RgbToGrayscale:srcPtr <- $r0
	@DEBUG_VALUE: RgbToGrayscale:dstImgSz <- [DW_OP_LLVM_entry_value 1] $r2
	@DEBUG_VALUE: RgbToGrayscale:R <- 2.990000e-01
	@DEBUG_VALUE: RgbToGrayscale:G <- 5.870000e-01
	@DEBUG_VALUE: RgbToGrayscale:B <- 1.140000e-01
	@DEBUG_VALUE: RgbToGrayscale:srcPtr <- $r0
	@DEBUG_VALUE: RgbToGrayscale:dstPtr <- $r1
	@DEBUG_VALUE: i <- undef
	.loc	22 116 50 is_stmt 1             @ ../../../../ThirdParty/ml-embedded-evaluation-kit/source/application/api/common/source/ImageUtils.cc:116:50
	ldrb	r3, [r0], #12
.Ltmp175:
	@DEBUG_VALUE: RgbToGrayscale:srcPtr <- [DW_OP_LLVM_entry_value 1] $r0
	.loc	22 116 49 is_stmt 0             @ ../../../../ThirdParty/ml-embedded-evaluation-kit/source/application/api/common/source/ImageUtils.cc:116:49
	vmov	s6, r3
	vcvt.f32.u32	s6, s6
	.loc	22 117 39 is_stmt 1             @ ../../../../ThirdParty/ml-embedded-evaluation-kit/source/application/api/common/source/ImageUtils.cc:117:39
	ldrb	r4, [r0, #-11]
	.loc	22 118 39                       @ ../../../../ThirdParty/ml-embedded-evaluation-kit/source/application/api/common/source/ImageUtils.cc:118:39
	ldrb	r5, [r0, #-10]
	.loc	22 117 38                       @ ../../../../ThirdParty/ml-embedded-evaluation-kit/source/application/api/common/source/ImageUtils.cc:117:38
	vmov	s8, r4
	vcvt.f32.u32	s8, s8
	.loc	22 118 38                       @ ../../../../ThirdParty/ml-embedded-evaluation-kit/source/application/api/common/source/ImageUtils.cc:118:38
	vmov	s10, r5
	.loc	22 116 47                       @ ../../../../ThirdParty/ml-embedded-evaluation-kit/source/application/api/common/source/ImageUtils.cc:116:47
	vmul.f32	s6, s6, s0
	.loc	22 117 36                       @ ../../../../ThirdParty/ml-embedded-evaluation-kit/source/application/api/common/source/ImageUtils.cc:117:36
	vmul.f32	s8, s8, s2
	.loc	22 118 38                       @ ../../../../ThirdParty/ml-embedded-evaluation-kit/source/application/api/common/source/ImageUtils.cc:118:38
	vcvt.f32.u32	s10, s10
	.loc	22 116 59                       @ ../../../../ThirdParty/ml-embedded-evaluation-kit/source/application/api/common/source/ImageUtils.cc:116:59
	vadd.f32	s6, s6, s8
	.loc	22 118 36                       @ ../../../../ThirdParty/ml-embedded-evaluation-kit/source/application/api/common/source/ImageUtils.cc:118:36
	vmul.f32	s8, s10, s4
	.loc	22 117 54                       @ ../../../../ThirdParty/ml-embedded-evaluation-kit/source/application/api/common/source/ImageUtils.cc:117:54
	vadd.f32	s6, s6, s8
	.loc	22 116 44                       @ ../../../../ThirdParty/ml-embedded-evaluation-kit/source/application/api/common/source/ImageUtils.cc:116:44
	vcvt.u32.f32	s6, s6
	vmov	r3, s6
.Ltmp176:
	@DEBUG_VALUE: int_gray <- $r3
	.loc	22 119 25                       @ ../../../../ThirdParty/ml-embedded-evaluation-kit/source/application/api/common/source/ImageUtils.cc:119:25
	cmp	r3, #255
	csel	r3, r3, r2, lo
.Ltmp177:
	@DEBUG_VALUE: RgbToGrayscale:dstPtr <- [DW_OP_plus_uconst 1, DW_OP_stack_value] $r1
	.loc	22 119 23 is_stmt 0             @ ../../../../ThirdParty/ml-embedded-evaluation-kit/source/application/api/common/source/ImageUtils.cc:119:23
	strb	r3, [r1], #4
.Ltmp178:
	@DEBUG_VALUE: i <- [DW_OP_plus_uconst 1, DW_OP_stack_value] undef
	@DEBUG_VALUE: RgbToGrayscale:dstPtr <- [DW_OP_plus_uconst 1, DW_OP_stack_value] $r1
	@DEBUG_VALUE: RgbToGrayscale:srcPtr <- [DW_OP_plus_uconst 3, DW_OP_stack_value] $r0
	.loc	22 116 50 is_stmt 1             @ ../../../../ThirdParty/ml-embedded-evaluation-kit/source/application/api/common/source/ImageUtils.cc:116:50
	ldrb	r3, [r0, #-9]
	.loc	22 117 39                       @ ../../../../ThirdParty/ml-embedded-evaluation-kit/source/application/api/common/source/ImageUtils.cc:117:39
	ldrb	r4, [r0, #-8]
	.loc	22 118 39                       @ ../../../../ThirdParty/ml-embedded-evaluation-kit/source/application/api/common/source/ImageUtils.cc:118:39
	ldrb	r5, [r0, #-7]
	.loc	22 116 49                       @ ../../../../ThirdParty/ml-embedded-evaluation-kit/source/application/api/common/source/ImageUtils.cc:116:49
	vmov	s6, r3
	.loc	22 117 38                       @ ../../../../ThirdParty/ml-embedded-evaluation-kit/source/application/api/common/source/ImageUtils.cc:117:38
	vmov	s8, r4
	.loc	22 116 49                       @ ../../../../ThirdParty/ml-embedded-evaluation-kit/source/application/api/common/source/ImageUtils.cc:116:49
	vcvt.f32.u32	s6, s6
	.loc	22 117 38                       @ ../../../../ThirdParty/ml-embedded-evaluation-kit/source/application/api/common/source/ImageUtils.cc:117:38
	vcvt.f32.u32	s8, s8
	.loc	22 118 38                       @ ../../../../ThirdParty/ml-embedded-evaluation-kit/source/application/api/common/source/ImageUtils.cc:118:38
	vmov	s10, r5
	.loc	22 116 47                       @ ../../../../ThirdParty/ml-embedded-evaluation-kit/source/application/api/common/source/ImageUtils.cc:116:47
	vmul.f32	s6, s6, s0
	.loc	22 117 36                       @ ../../../../ThirdParty/ml-embedded-evaluation-kit/source/application/api/common/source/ImageUtils.cc:117:36
	vmul.f32	s8, s8, s2
	.loc	22 118 38                       @ ../../../../ThirdParty/ml-embedded-evaluation-kit/source/application/api/common/source/ImageUtils.cc:118:38
	vcvt.f32.u32	s10, s10
	.loc	22 116 59                       @ ../../../../ThirdParty/ml-embedded-evaluation-kit/source/application/api/common/source/ImageUtils.cc:116:59
	vadd.f32	s6, s6, s8
	.loc	22 118 36                       @ ../../../../ThirdParty/ml-embedded-evaluation-kit/source/application/api/common/source/ImageUtils.cc:118:36
	vmul.f32	s8, s10, s4
	.loc	22 117 54                       @ ../../../../ThirdParty/ml-embedded-evaluation-kit/source/application/api/common/source/ImageUtils.cc:117:54
	vadd.f32	s6, s6, s8
	.loc	22 116 44                       @ ../../../../ThirdParty/ml-embedded-evaluation-kit/source/application/api/common/source/ImageUtils.cc:116:44
	vcvt.u32.f32	s6, s6
	vmov	r3, s6
.Ltmp179:
	@DEBUG_VALUE: int_gray <- $r3
	.loc	22 119 25                       @ ../../../../ThirdParty/ml-embedded-evaluation-kit/source/application/api/common/source/ImageUtils.cc:119:25
	cmp	r3, #255
	csel	r3, r3, r2, lo
.Ltmp180:
	@DEBUG_VALUE: RgbToGrayscale:dstPtr <- [DW_OP_plus_uconst 2, DW_OP_stack_value] $r1
	.loc	22 119 23 is_stmt 0             @ ../../../../ThirdParty/ml-embedded-evaluation-kit/source/application/api/common/source/ImageUtils.cc:119:23
	strb	r3, [r1, #-3]
.Ltmp181:
	@DEBUG_VALUE: i <- [DW_OP_plus_uconst 2, DW_OP_stack_value] undef
	@DEBUG_VALUE: RgbToGrayscale:srcPtr <- [DW_OP_plus_uconst 6, DW_OP_stack_value] $r0
	.loc	22 116 50 is_stmt 1             @ ../../../../ThirdParty/ml-embedded-evaluation-kit/source/application/api/common/source/ImageUtils.cc:116:50
	ldrb	r3, [r0, #-6]
	.loc	22 117 39                       @ ../../../../ThirdParty/ml-embedded-evaluation-kit/source/application/api/common/source/ImageUtils.cc:117:39
	ldrb	r4, [r0, #-5]
	.loc	22 118 39                       @ ../../../../ThirdParty/ml-embedded-evaluation-kit/source/application/api/common/source/ImageUtils.cc:118:39
	ldrb	r5, [r0, #-4]
	.loc	22 116 49                       @ ../../../../ThirdParty/ml-embedded-evaluation-kit/source/application/api/common/source/ImageUtils.cc:116:49
	vmov	s6, r3
	.loc	22 117 38                       @ ../../../../ThirdParty/ml-embedded-evaluation-kit/source/application/api/common/source/ImageUtils.cc:117:38
	vmov	s8, r4
	.loc	22 116 49                       @ ../../../../ThirdParty/ml-embedded-evaluation-kit/source/application/api/common/source/ImageUtils.cc:116:49
	vcvt.f32.u32	s6, s6
	.loc	22 117 38                       @ ../../../../ThirdParty/ml-embedded-evaluation-kit/source/application/api/common/source/ImageUtils.cc:117:38
	vcvt.f32.u32	s8, s8
	.loc	22 118 38                       @ ../../../../ThirdParty/ml-embedded-evaluation-kit/source/application/api/common/source/ImageUtils.cc:118:38
	vmov	s10, r5
	.loc	22 116 47                       @ ../../../../ThirdParty/ml-embedded-evaluation-kit/source/application/api/common/source/ImageUtils.cc:116:47
	vmul.f32	s6, s6, s0
	.loc	22 117 36                       @ ../../../../ThirdParty/ml-embedded-evaluation-kit/source/application/api/common/source/ImageUtils.cc:117:36
	vmul.f32	s8, s8, s2
	.loc	22 118 38                       @ ../../../../ThirdParty/ml-embedded-evaluation-kit/source/application/api/common/source/ImageUtils.cc:118:38
	vcvt.f32.u32	s10, s10
	.loc	22 116 59                       @ ../../../../ThirdParty/ml-embedded-evaluation-kit/source/application/api/common/source/ImageUtils.cc:116:59
	vadd.f32	s6, s6, s8
	.loc	22 118 36                       @ ../../../../ThirdParty/ml-embedded-evaluation-kit/source/application/api/common/source/ImageUtils.cc:118:36
	vmul.f32	s8, s10, s4
	.loc	22 117 54                       @ ../../../../ThirdParty/ml-embedded-evaluation-kit/source/application/api/common/source/ImageUtils.cc:117:54
	vadd.f32	s6, s6, s8
	.loc	22 116 44                       @ ../../../../ThirdParty/ml-embedded-evaluation-kit/source/application/api/common/source/ImageUtils.cc:116:44
	vcvt.u32.f32	s6, s6
	vmov	r3, s6
.Ltmp182:
	@DEBUG_VALUE: int_gray <- $r3
	.loc	22 119 25                       @ ../../../../ThirdParty/ml-embedded-evaluation-kit/source/application/api/common/source/ImageUtils.cc:119:25
	cmp	r3, #255
	csel	r3, r3, r2, lo
.Ltmp183:
	@DEBUG_VALUE: RgbToGrayscale:dstPtr <- [DW_OP_plus_uconst 3, DW_OP_stack_value] $r1
	.loc	22 119 23 is_stmt 0             @ ../../../../ThirdParty/ml-embedded-evaluation-kit/source/application/api/common/source/ImageUtils.cc:119:23
	strb	r3, [r1, #-2]
.Ltmp184:
	@DEBUG_VALUE: i <- [DW_OP_plus_uconst 3, DW_OP_stack_value] undef
	@DEBUG_VALUE: RgbToGrayscale:srcPtr <- [DW_OP_plus_uconst 9, DW_OP_stack_value] $r0
	.loc	22 116 50 is_stmt 1             @ ../../../../ThirdParty/ml-embedded-evaluation-kit/source/application/api/common/source/ImageUtils.cc:116:50
	ldrb	r3, [r0, #-3]
	.loc	22 117 39                       @ ../../../../ThirdParty/ml-embedded-evaluation-kit/source/application/api/common/source/ImageUtils.cc:117:39
	ldrb	r4, [r0, #-2]
	.loc	22 118 39                       @ ../../../../ThirdParty/ml-embedded-evaluation-kit/source/application/api/common/source/ImageUtils.cc:118:39
	ldrb	r5, [r0, #-1]
	.loc	22 116 49                       @ ../../../../ThirdParty/ml-embedded-evaluation-kit/source/application/api/common/source/ImageUtils.cc:116:49
	vmov	s6, r3
	.loc	22 117 38                       @ ../../../../ThirdParty/ml-embedded-evaluation-kit/source/application/api/common/source/ImageUtils.cc:117:38
	vmov	s8, r4
	.loc	22 116 49                       @ ../../../../ThirdParty/ml-embedded-evaluation-kit/source/application/api/common/source/ImageUtils.cc:116:49
	vcvt.f32.u32	s6, s6
	.loc	22 117 38                       @ ../../../../ThirdParty/ml-embedded-evaluation-kit/source/application/api/common/source/ImageUtils.cc:117:38
	vcvt.f32.u32	s8, s8
	.loc	22 118 38                       @ ../../../../ThirdParty/ml-embedded-evaluation-kit/source/application/api/common/source/ImageUtils.cc:118:38
	vmov	s10, r5
	.loc	22 116 47                       @ ../../../../ThirdParty/ml-embedded-evaluation-kit/source/application/api/common/source/ImageUtils.cc:116:47
	vmul.f32	s6, s6, s0
	.loc	22 117 36                       @ ../../../../ThirdParty/ml-embedded-evaluation-kit/source/application/api/common/source/ImageUtils.cc:117:36
	vmul.f32	s8, s8, s2
	.loc	22 118 38                       @ ../../../../ThirdParty/ml-embedded-evaluation-kit/source/application/api/common/source/ImageUtils.cc:118:38
	vcvt.f32.u32	s10, s10
	.loc	22 116 59                       @ ../../../../ThirdParty/ml-embedded-evaluation-kit/source/application/api/common/source/ImageUtils.cc:116:59
	vadd.f32	s6, s6, s8
	.loc	22 118 36                       @ ../../../../ThirdParty/ml-embedded-evaluation-kit/source/application/api/common/source/ImageUtils.cc:118:36
	vmul.f32	s8, s10, s4
	.loc	22 117 54                       @ ../../../../ThirdParty/ml-embedded-evaluation-kit/source/application/api/common/source/ImageUtils.cc:117:54
	vadd.f32	s6, s6, s8
	.loc	22 116 44                       @ ../../../../ThirdParty/ml-embedded-evaluation-kit/source/application/api/common/source/ImageUtils.cc:116:44
	vcvt.u32.f32	s6, s6
	vmov	r3, s6
.Ltmp185:
	@DEBUG_VALUE: int_gray <- $r3
	.loc	22 119 25                       @ ../../../../ThirdParty/ml-embedded-evaluation-kit/source/application/api/common/source/ImageUtils.cc:119:25
	cmp	r3, #255
	csel	r3, r3, r2, lo
.Ltmp186:
	@DEBUG_VALUE: RgbToGrayscale:dstPtr <- $r1
	.loc	22 119 23 is_stmt 0             @ ../../../../ThirdParty/ml-embedded-evaluation-kit/source/application/api/common/source/ImageUtils.cc:119:23
	strb	r3, [r1, #-1]
.Ltmp187:
	@DEBUG_VALUE: i <- [DW_OP_plus_uconst 4, DW_OP_stack_value] undef
	@DEBUG_VALUE: RgbToGrayscale:srcPtr <- $r0
	.loc	22 115 9 is_stmt 1              @ ../../../../ThirdParty/ml-embedded-evaluation-kit/source/application/api/common/source/ImageUtils.cc:115:9
	le	lr, .LBB6_3
.Ltmp188:
.LBB6_4:
	@DEBUG_VALUE: RgbToGrayscale:dstPtr <- $r1
	@DEBUG_VALUE: RgbToGrayscale:srcPtr <- $r0
	@DEBUG_VALUE: RgbToGrayscale:R <- 2.990000e-01
	@DEBUG_VALUE: RgbToGrayscale:G <- 5.870000e-01
	@DEBUG_VALUE: RgbToGrayscale:B <- 1.140000e-01
	cmp.w	r12, #0
	beq	.LBB6_8
.Ltmp189:
@ %bb.5:
	@DEBUG_VALUE: RgbToGrayscale:dstPtr <- $r1
	@DEBUG_VALUE: RgbToGrayscale:srcPtr <- $r0
	@DEBUG_VALUE: RgbToGrayscale:R <- 2.990000e-01
	@DEBUG_VALUE: RgbToGrayscale:G <- 5.870000e-01
	@DEBUG_VALUE: RgbToGrayscale:B <- 1.140000e-01
	@DEBUG_VALUE: RgbToGrayscale:srcPtr <- $r0
	@DEBUG_VALUE: RgbToGrayscale:dstPtr <- $r1
	@DEBUG_VALUE: i <- undef
	.loc	22 116 50                       @ ../../../../ThirdParty/ml-embedded-evaluation-kit/source/application/api/common/source/ImageUtils.cc:116:50
	ldrb	r2, [r0]
	.loc	22 117 39                       @ ../../../../ThirdParty/ml-embedded-evaluation-kit/source/application/api/common/source/ImageUtils.cc:117:39
	ldrb	r3, [r0, #1]
	.loc	22 116 49                       @ ../../../../ThirdParty/ml-embedded-evaluation-kit/source/application/api/common/source/ImageUtils.cc:116:49
	vmov	s0, r2
	.loc	22 118 39                       @ ../../../../ThirdParty/ml-embedded-evaluation-kit/source/application/api/common/source/ImageUtils.cc:118:39
	ldrb.w	lr, [r0, #2]
	movs	r2, #255
	.loc	22 116 49                       @ ../../../../ThirdParty/ml-embedded-evaluation-kit/source/application/api/common/source/ImageUtils.cc:116:49
	vcvt.f32.u32	s4, s0
	vldr	s0, .LCPI6_0
	.loc	22 117 38                       @ ../../../../ThirdParty/ml-embedded-evaluation-kit/source/application/api/common/source/ImageUtils.cc:117:38
	vmov	s2, r3
	vcvt.f32.u32	s6, s2
	vldr	s2, .LCPI6_1
	.loc	22 116 47                       @ ../../../../ThirdParty/ml-embedded-evaluation-kit/source/application/api/common/source/ImageUtils.cc:116:47
	vmul.f32	s8, s4, s0
	.loc	22 118 38                       @ ../../../../ThirdParty/ml-embedded-evaluation-kit/source/application/api/common/source/ImageUtils.cc:118:38
	vmov	s4, lr
	.loc	22 117 36                       @ ../../../../ThirdParty/ml-embedded-evaluation-kit/source/application/api/common/source/ImageUtils.cc:117:36
	vmul.f32	s6, s6, s2
	.loc	22 118 38                       @ ../../../../ThirdParty/ml-embedded-evaluation-kit/source/application/api/common/source/ImageUtils.cc:118:38
	vcvt.f32.u32	s10, s4
	vldr	s4, .LCPI6_2
	.loc	22 116 59                       @ ../../../../ThirdParty/ml-embedded-evaluation-kit/source/application/api/common/source/ImageUtils.cc:116:59
	vadd.f32	s6, s8, s6
	.loc	22 118 36                       @ ../../../../ThirdParty/ml-embedded-evaluation-kit/source/application/api/common/source/ImageUtils.cc:118:36
	vmul.f32	s8, s10, s4
	.loc	22 117 54                       @ ../../../../ThirdParty/ml-embedded-evaluation-kit/source/application/api/common/source/ImageUtils.cc:117:54
	vadd.f32	s6, s6, s8
	.loc	22 116 44                       @ ../../../../ThirdParty/ml-embedded-evaluation-kit/source/application/api/common/source/ImageUtils.cc:116:44
	vcvt.u32.f32	s6, s6
	vmov	r3, s6
.Ltmp190:
	@DEBUG_VALUE: int_gray <- $r3
	.loc	22 119 25                       @ ../../../../ThirdParty/ml-embedded-evaluation-kit/source/application/api/common/source/ImageUtils.cc:119:25
	cmp	r3, #255
	csel	r3, r3, r2, lo
.Ltmp191:
	@DEBUG_VALUE: RgbToGrayscale:dstPtr <- [DW_OP_plus_uconst 1, DW_OP_stack_value] $r1
	.loc	22 115 9                        @ ../../../../ThirdParty/ml-embedded-evaluation-kit/source/application/api/common/source/ImageUtils.cc:115:9
	cmp.w	r12, #1
.Ltmp192:
	.loc	22 119 23                       @ ../../../../ThirdParty/ml-embedded-evaluation-kit/source/application/api/common/source/ImageUtils.cc:119:23
	strb	r3, [r1]
.Ltmp193:
	@DEBUG_VALUE: i <- [DW_OP_plus_uconst 1, DW_OP_stack_value] undef
	@DEBUG_VALUE: RgbToGrayscale:srcPtr <- [DW_OP_plus_uconst 3, DW_OP_stack_value] $r0
	.loc	22 115 9                        @ ../../../../ThirdParty/ml-embedded-evaluation-kit/source/application/api/common/source/ImageUtils.cc:115:9
	beq	.LBB6_8
.Ltmp194:
@ %bb.6:
	@DEBUG_VALUE: RgbToGrayscale:dstPtr <- [DW_OP_plus_uconst 1, DW_OP_stack_value] $r1
	@DEBUG_VALUE: RgbToGrayscale:srcPtr <- [DW_OP_plus_uconst 3, DW_OP_stack_value] $r0
	@DEBUG_VALUE: RgbToGrayscale:R <- 2.990000e-01
	@DEBUG_VALUE: RgbToGrayscale:G <- 5.870000e-01
	@DEBUG_VALUE: RgbToGrayscale:B <- 1.140000e-01
	@DEBUG_VALUE: RgbToGrayscale:srcPtr <- [DW_OP_plus_uconst 3, DW_OP_stack_value] $r0
	@DEBUG_VALUE: RgbToGrayscale:dstPtr <- [DW_OP_plus_uconst 1, DW_OP_stack_value] $r1
	@DEBUG_VALUE: i <- [DW_OP_plus_uconst 1, DW_OP_stack_value] undef
	.loc	22 116 50                       @ ../../../../ThirdParty/ml-embedded-evaluation-kit/source/application/api/common/source/ImageUtils.cc:116:50
	ldrb	r3, [r0, #3]
	.loc	22 117 39                       @ ../../../../ThirdParty/ml-embedded-evaluation-kit/source/application/api/common/source/ImageUtils.cc:117:39
	ldrb	r5, [r0, #4]
	.loc	22 118 39                       @ ../../../../ThirdParty/ml-embedded-evaluation-kit/source/application/api/common/source/ImageUtils.cc:118:39
	ldrb	r4, [r0, #5]
	.loc	22 116 49                       @ ../../../../ThirdParty/ml-embedded-evaluation-kit/source/application/api/common/source/ImageUtils.cc:116:49
	vmov	s6, r3
	.loc	22 117 38                       @ ../../../../ThirdParty/ml-embedded-evaluation-kit/source/application/api/common/source/ImageUtils.cc:117:38
	vmov	s8, r5
	.loc	22 116 49                       @ ../../../../ThirdParty/ml-embedded-evaluation-kit/source/application/api/common/source/ImageUtils.cc:116:49
	vcvt.f32.u32	s6, s6
	.loc	22 117 38                       @ ../../../../ThirdParty/ml-embedded-evaluation-kit/source/application/api/common/source/ImageUtils.cc:117:38
	vcvt.f32.u32	s8, s8
	.loc	22 118 38                       @ ../../../../ThirdParty/ml-embedded-evaluation-kit/source/application/api/common/source/ImageUtils.cc:118:38
	vmov	s10, r4
	.loc	22 116 47                       @ ../../../../ThirdParty/ml-embedded-evaluation-kit/source/application/api/common/source/ImageUtils.cc:116:47
	vmul.f32	s6, s6, s0
	.loc	22 117 36                       @ ../../../../ThirdParty/ml-embedded-evaluation-kit/source/application/api/common/source/ImageUtils.cc:117:36
	vmul.f32	s8, s8, s2
	.loc	22 118 38                       @ ../../../../ThirdParty/ml-embedded-evaluation-kit/source/application/api/common/source/ImageUtils.cc:118:38
	vcvt.f32.u32	s10, s10
	.loc	22 116 59                       @ ../../../../ThirdParty/ml-embedded-evaluation-kit/source/application/api/common/source/ImageUtils.cc:116:59
	vadd.f32	s6, s6, s8
	.loc	22 118 36                       @ ../../../../ThirdParty/ml-embedded-evaluation-kit/source/application/api/common/source/ImageUtils.cc:118:36
	vmul.f32	s8, s10, s4
	.loc	22 117 54                       @ ../../../../ThirdParty/ml-embedded-evaluation-kit/source/application/api/common/source/ImageUtils.cc:117:54
	vadd.f32	s6, s6, s8
	.loc	22 116 44                       @ ../../../../ThirdParty/ml-embedded-evaluation-kit/source/application/api/common/source/ImageUtils.cc:116:44
	vcvt.u32.f32	s6, s6
	vmov	r3, s6
.Ltmp195:
	@DEBUG_VALUE: int_gray <- $r3
	.loc	22 119 25                       @ ../../../../ThirdParty/ml-embedded-evaluation-kit/source/application/api/common/source/ImageUtils.cc:119:25
	cmp	r3, #255
	csel	r2, r3, r2, lo
.Ltmp196:
	@DEBUG_VALUE: RgbToGrayscale:dstPtr <- [DW_OP_plus_uconst 1, DW_OP_plus_uconst 1, DW_OP_stack_value] $r1
	.loc	22 115 9                        @ ../../../../ThirdParty/ml-embedded-evaluation-kit/source/application/api/common/source/ImageUtils.cc:115:9
	cmp.w	r12, #2
.Ltmp197:
	.loc	22 119 23                       @ ../../../../ThirdParty/ml-embedded-evaluation-kit/source/application/api/common/source/ImageUtils.cc:119:23
	strb	r2, [r1, #1]
.Ltmp198:
	@DEBUG_VALUE: i <- [DW_OP_plus_uconst 1, DW_OP_plus_uconst 1, DW_OP_stack_value] undef
	@DEBUG_VALUE: RgbToGrayscale:srcPtr <- [DW_OP_plus_uconst 6, DW_OP_stack_value] $r0
	.loc	22 122 5                        @ ../../../../ThirdParty/ml-embedded-evaluation-kit/source/application/api/common/source/ImageUtils.cc:122:5
	it	eq
	popeq	{r4, r5, r7, pc}
.Ltmp199:
.LBB6_7:
	@DEBUG_VALUE: int_gray <- $r3
	@DEBUG_VALUE: RgbToGrayscale:dstPtr <- [DW_OP_plus_uconst 1, DW_OP_plus_uconst 1, DW_OP_stack_value] $r1
	@DEBUG_VALUE: RgbToGrayscale:srcPtr <- [DW_OP_plus_uconst 6, DW_OP_stack_value] $r0
	@DEBUG_VALUE: RgbToGrayscale:R <- 2.990000e-01
	@DEBUG_VALUE: RgbToGrayscale:G <- 5.870000e-01
	@DEBUG_VALUE: RgbToGrayscale:B <- 1.140000e-01
	@DEBUG_VALUE: RgbToGrayscale:srcPtr <- [DW_OP_plus_uconst 6, DW_OP_stack_value] $r0
	@DEBUG_VALUE: RgbToGrayscale:dstPtr <- [DW_OP_plus_uconst 1, DW_OP_plus_uconst 1, DW_OP_stack_value] $r1
	@DEBUG_VALUE: i <- [DW_OP_plus_uconst 1, DW_OP_plus_uconst 1, DW_OP_stack_value] undef
	.loc	22 116 50                       @ ../../../../ThirdParty/ml-embedded-evaluation-kit/source/application/api/common/source/ImageUtils.cc:116:50
	ldrb	r2, [r0, #6]
	.loc	22 116 49 is_stmt 0             @ ../../../../ThirdParty/ml-embedded-evaluation-kit/source/application/api/common/source/ImageUtils.cc:116:49
	vmov	s6, r2
	vcvt.f32.u32	s6, s6
	.loc	22 117 39 is_stmt 1             @ ../../../../ThirdParty/ml-embedded-evaluation-kit/source/application/api/common/source/ImageUtils.cc:117:39
	ldrb	r2, [r0, #7]
	.loc	22 116 47                       @ ../../../../ThirdParty/ml-embedded-evaluation-kit/source/application/api/common/source/ImageUtils.cc:116:47
	vmul.f32	s0, s6, s0
	.loc	22 117 38                       @ ../../../../ThirdParty/ml-embedded-evaluation-kit/source/application/api/common/source/ImageUtils.cc:117:38
	vmov	s6, r2
	vcvt.f32.u32	s6, s6
	.loc	22 118 39                       @ ../../../../ThirdParty/ml-embedded-evaluation-kit/source/application/api/common/source/ImageUtils.cc:118:39
	ldrb	r0, [r0, #8]
.Ltmp200:
	.loc	22 117 36                       @ ../../../../ThirdParty/ml-embedded-evaluation-kit/source/application/api/common/source/ImageUtils.cc:117:36
	vmul.f32	s2, s6, s2
	.loc	22 118 38                       @ ../../../../ThirdParty/ml-embedded-evaluation-kit/source/application/api/common/source/ImageUtils.cc:118:38
	vmov	s6, r0
	vcvt.f32.u32	s6, s6
	.loc	22 116 59                       @ ../../../../ThirdParty/ml-embedded-evaluation-kit/source/application/api/common/source/ImageUtils.cc:116:59
	vadd.f32	s0, s0, s2
	.loc	22 118 36                       @ ../../../../ThirdParty/ml-embedded-evaluation-kit/source/application/api/common/source/ImageUtils.cc:118:36
	vmul.f32	s2, s6, s4
	.loc	22 117 54                       @ ../../../../ThirdParty/ml-embedded-evaluation-kit/source/application/api/common/source/ImageUtils.cc:117:54
	vadd.f32	s0, s0, s2
	.loc	22 116 44                       @ ../../../../ThirdParty/ml-embedded-evaluation-kit/source/application/api/common/source/ImageUtils.cc:116:44
	vcvt.u32.f32	s0, s0
	vmov	r0, s0
.Ltmp201:
	@DEBUG_VALUE: int_gray <- $r0
	.loc	22 119 25                       @ ../../../../ThirdParty/ml-embedded-evaluation-kit/source/application/api/common/source/ImageUtils.cc:119:25
	cmp	r0, #255
	it	hs
	movhs	r0, #255
.Ltmp202:
	@DEBUG_VALUE: RgbToGrayscale:dstPtr <- undef
	.loc	22 119 23 is_stmt 0             @ ../../../../ThirdParty/ml-embedded-evaluation-kit/source/application/api/common/source/ImageUtils.cc:119:23
	strb	r0, [r1, #2]
.Ltmp203:
	@DEBUG_VALUE: i <- [DW_OP_plus_uconst 1, DW_OP_plus_uconst 1, DW_OP_plus_uconst 1, DW_OP_stack_value] undef
	@DEBUG_VALUE: RgbToGrayscale:srcPtr <- undef
.LBB6_8:
	@DEBUG_VALUE: RgbToGrayscale:R <- 2.990000e-01
	@DEBUG_VALUE: RgbToGrayscale:G <- 5.870000e-01
	@DEBUG_VALUE: RgbToGrayscale:B <- 1.140000e-01
	.loc	22 122 5 is_stmt 1              @ ../../../../ThirdParty/ml-embedded-evaluation-kit/source/application/api/common/source/ImageUtils.cc:122:5
	pop	{r4, r5, r7, pc}
.Ltmp204:
	.p2align	2
@ %bb.9:
	.loc	22 0 5 is_stmt 0                @ ../../../../ThirdParty/ml-embedded-evaluation-kit/source/application/api/common/source/ImageUtils.cc:0:5
.LCPI6_0:
	.long	0x3e991687                      @ float 0.298999995
.LCPI6_1:
	.long	0x3f1645a2                      @ float 0.587000012
.LCPI6_2:
	.long	0x3de978d5                      @ float 0.114
.Lfunc_end6:
	.size	_ZN3arm3app5image14RgbToGrayscaleEPKhPhj, .Lfunc_end6-_ZN3arm3app5image14RgbToGrayscaleEPKhPhj
	.cfi_endproc
	.cantunwind
	.fnend
                                        @ -- End function
	.section	".text._ZNSt3__212forward_listIN3arm3app5image9DetectionENS_9allocatorIS4_EEE6__sortIZNS3_12CalculateNMSERS7_ifE3$_0EEPNS_19__forward_list_nodeIS4_PvEESE_iRT_","ax",%progbits
	.p2align	2                               @ -- Begin function _ZNSt3__212forward_listIN3arm3app5image9DetectionENS_9allocatorIS4_EEE6__sortIZNS3_12CalculateNMSERS7_ifE3$_0EEPNS_19__forward_list_nodeIS4_PvEESE_iRT_
	.type	_ZNSt3__212forward_listIN3arm3app5image9DetectionENS_9allocatorIS4_EEE6__sortIZNS3_12CalculateNMSERS7_ifE3$_0EEPNS_19__forward_list_nodeIS4_PvEESE_iRT_,%function
	.code	16                              @ @"_ZNSt3__212forward_listIN3arm3app5image9DetectionENS_9allocatorIS4_EEE6__sortIZNS3_12CalculateNMSERS7_ifE3$_0EEPNS_19__forward_list_nodeIS4_PvEESE_iRT_"
	.thumb_func
_ZNSt3__212forward_listIN3arm3app5image9DetectionENS_9allocatorIS4_EEE6__sortIZNS3_12CalculateNMSERS7_ifE3$_0EEPNS_19__forward_list_nodeIS4_PvEESE_iRT_:
.Lfunc_begin7:
	.loc	9 1656 0 is_stmt 1              @ Keil_v5\ARM\ARMCLANG\Bin\..\include\libcxx\forward_list:1656:0
	.fnstart
	.cfi_startproc
@ %bb.0:
	@DEBUG_VALUE: __sort<(lambda at ../../../../ThirdParty/ml-embedded-evaluation-kit/source/application/api/common/source/ImageUtils.cc:78:29)>:__f1 <- $r0
	@DEBUG_VALUE: __sort<(lambda at ../../../../ThirdParty/ml-embedded-evaluation-kit/source/application/api/common/source/ImageUtils.cc:78:29)>:__sz <- $r1
	@DEBUG_VALUE: __sort<(lambda at ../../../../ThirdParty/ml-embedded-evaluation-kit/source/application/api/common/source/ImageUtils.cc:78:29)>:__comp <- $r2
	.save	{r4, r5, r6, r7, lr}
	push	{r4, r5, r6, r7, lr}
	.cfi_def_cfa_offset 20
	.cfi_offset lr, -4
	.cfi_offset r7, -8
	.cfi_offset r6, -12
	.cfi_offset r5, -16
	.cfi_offset r4, -20
	.pad	#4
	sub	sp, #4
	.cfi_def_cfa_offset 24
	mov	r5, r2
.Ltmp205:
	@DEBUG_VALUE: __sort<(lambda at ../../../../ThirdParty/ml-embedded-evaluation-kit/source/application/api/common/source/ImageUtils.cc:78:29)>:__comp <- $r5
	@DEBUG_VALUE: __sort<(lambda at ../../../../ThirdParty/ml-embedded-evaluation-kit/source/application/api/common/source/ImageUtils.cc:78:29)>:__comp <- $r5
	@DEBUG_VALUE: __sort<(lambda at ../../../../ThirdParty/ml-embedded-evaluation-kit/source/application/api/common/source/ImageUtils.cc:78:29)>:__sz <- $r1
	.loc	9 1657 5 prologue_end           @ Keil_v5\ARM\ARMCLANG\Bin\..\include\libcxx\forward_list:1657:5
	cmp	r1, #2
	mov	r2, r0
.Ltmp206:
	@DEBUG_VALUE: __sort<(lambda at ../../../../ThirdParty/ml-embedded-evaluation-kit/source/application/api/common/source/ImageUtils.cc:78:29)>:__f1 <- $r2
	bhs	.LBB7_2
.Ltmp207:
.LBB7_1:
	@DEBUG_VALUE: __sort<(lambda at ../../../../ThirdParty/ml-embedded-evaluation-kit/source/application/api/common/source/ImageUtils.cc:78:29)>:__comp <- $r5
	@DEBUG_VALUE: __sort<(lambda at ../../../../ThirdParty/ml-embedded-evaluation-kit/source/application/api/common/source/ImageUtils.cc:78:29)>:__f1 <- $r2
	.loc	9 0 0 is_stmt 0                 @ Keil_v5\ARM\ARMCLANG\Bin\..\include\libcxx\forward_list:0:0
	mov	r0, r2
	.loc	9 1679 1 is_stmt 1              @ Keil_v5\ARM\ARMCLANG\Bin\..\include\libcxx\forward_list:1679:1
	add	sp, #4
	pop	{r4, r5, r6, r7, pc}
.Ltmp208:
.LBB7_2:
	@DEBUG_VALUE: __sort<(lambda at ../../../../ThirdParty/ml-embedded-evaluation-kit/source/application/api/common/source/ImageUtils.cc:78:29)>:__comp <- $r5
	@DEBUG_VALUE: __sort<(lambda at ../../../../ThirdParty/ml-embedded-evaluation-kit/source/application/api/common/source/ImageUtils.cc:78:29)>:__f1 <- $r2
	@DEBUG_VALUE: __sort<(lambda at ../../../../ThirdParty/ml-embedded-evaluation-kit/source/application/api/common/source/ImageUtils.cc:78:29)>:__sz <- $r1
	@DEBUG_VALUE: __sort<(lambda at ../../../../ThirdParty/ml-embedded-evaluation-kit/source/application/api/common/source/ImageUtils.cc:78:29)>:__sz <- $r1
	.loc	9 1657 5                        @ Keil_v5\ARM\ARMCLANG\Bin\..\include\libcxx\forward_list:1657:5
	bne	.LBB7_5
.Ltmp209:
@ %bb.3:
	@DEBUG_VALUE: __sort<(lambda at ../../../../ThirdParty/ml-embedded-evaluation-kit/source/application/api/common/source/ImageUtils.cc:78:29)>:__comp <- $r5
	@DEBUG_VALUE: __sort<(lambda at ../../../../ThirdParty/ml-embedded-evaluation-kit/source/application/api/common/source/ImageUtils.cc:78:29)>:__f1 <- $r2
	@DEBUG_VALUE: __sort<(lambda at ../../../../ThirdParty/ml-embedded-evaluation-kit/source/application/api/common/source/ImageUtils.cc:78:29)>:__sz <- $r1
	.loc	9 1663 26                       @ Keil_v5\ARM\ARMCLANG\Bin\..\include\libcxx\forward_list:1663:26
	ldr	r0, [r2]
.Ltmp210:
	@DEBUG_VALUE: operator[]:__n <- undef
	@DEBUG_VALUE: operator():prob1 <- [DW_OP_plus_uconst 4, DW_OP_stack_value] $r0
	.loc	22 79 31                        @ ../../../../ThirdParty/ml-embedded-evaluation-kit/source/application/api/common/source/ImageUtils.cc:79:31
	ldr	r1, [r5]
.Ltmp211:
	@DEBUG_VALUE: __sort<(lambda at ../../../../ThirdParty/ml-embedded-evaluation-kit/source/application/api/common/source/ImageUtils.cc:78:29)>:__sz <- [DW_OP_LLVM_entry_value 1] $r1
	@DEBUG_VALUE: operator[]:this <- [DW_OP_plus_uconst 4, DW_OP_plus_uconst 16, DW_OP_stack_value] $r0
	@DEBUG_VALUE: operator[]:__n <- $r1
	.loc	7 1550 18                       @ Keil_v5\ARM\ARMCLANG\Bin\..\include\libcxx\vector:1550:18
	ldr	r3, [r0, #20]
.Ltmp212:
	@DEBUG_VALUE: operator[]:this <- [DW_OP_plus_uconst 4, DW_OP_plus_uconst 16, DW_OP_stack_value] $r2
	.loc	7 1550 18 is_stmt 0             @ Keil_v5\ARM\ARMCLANG\Bin\..\include\libcxx\vector:1550:18
	ldr	r7, [r2, #20]
.Ltmp213:
	@DEBUG_VALUE: operator():prob2 <- [DW_OP_plus_uconst 4, DW_OP_stack_value] $r2
	@DEBUG_VALUE: operator():this <- undef
	.loc	7 1550 12                       @ Keil_v5\ARM\ARMCLANG\Bin\..\include\libcxx\vector:1550:12
	add.w	r3, r3, r1, lsl #2
.Ltmp214:
	@DEBUG_VALUE: operator[]:this <- [DW_OP_plus_uconst 4, DW_OP_plus_uconst 16, DW_OP_stack_value] $r0
	@DEBUG_VALUE: operator[]:__n <- $r1
	.loc	7 1550 12                       @ Keil_v5\ARM\ARMCLANG\Bin\..\include\libcxx\vector:1550:12
	add.w	r1, r7, r1, lsl #2
.Ltmp215:
	@DEBUG_VALUE: operator[]:this <- [DW_OP_plus_uconst 4, DW_OP_plus_uconst 16, DW_OP_stack_value] $r2
	.loc	22 79 20 is_stmt 1              @ ../../../../ThirdParty/ml-embedded-evaluation-kit/source/application/api/common/source/ImageUtils.cc:79:20
	vldr	s0, [r3]
	.loc	22 79 43 is_stmt 0              @ ../../../../ThirdParty/ml-embedded-evaluation-kit/source/application/api/common/source/ImageUtils.cc:79:43
	vldr	s2, [r1]
.Ltmp216:
	.loc	9 1663 13 is_stmt 1             @ Keil_v5\ARM\ARMCLANG\Bin\..\include\libcxx\forward_list:1663:13
	vcmp.f32	s0, s2
	vmrs	APSR_nzcv, fpscr
	ble	.LBB7_1
.Ltmp217:
@ %bb.4:
	@DEBUG_VALUE: __sort<(lambda at ../../../../ThirdParty/ml-embedded-evaluation-kit/source/application/api/common/source/ImageUtils.cc:78:29)>:__comp <- $r5
	@DEBUG_VALUE: __sort<(lambda at ../../../../ThirdParty/ml-embedded-evaluation-kit/source/application/api/common/source/ImageUtils.cc:78:29)>:__f1 <- $r2
	@DEBUG_VALUE: __sort<(lambda at ../../../../ThirdParty/ml-embedded-evaluation-kit/source/application/api/common/source/ImageUtils.cc:78:29)>:__sz <- [DW_OP_LLVM_entry_value 1] $r1
	@DEBUG_VALUE: __t <- $r0
	.loc	9 0 13 is_stmt 0                @ Keil_v5\ARM\ARMCLANG\Bin\..\include\libcxx\forward_list:0:13
	movs	r1, #0
.Ltmp218:
	.loc	9 1666 26 is_stmt 1             @ Keil_v5\ARM\ARMCLANG\Bin\..\include\libcxx\forward_list:1666:26
	str	r2, [r0]
	.loc	9 1667 27                       @ Keil_v5\ARM\ARMCLANG\Bin\..\include\libcxx\forward_list:1667:27
	str	r1, [r2]
.Ltmp219:
	@DEBUG_VALUE: __sort<(lambda at ../../../../ThirdParty/ml-embedded-evaluation-kit/source/application/api/common/source/ImageUtils.cc:78:29)>:__f1 <- $r0
	.loc	9 1679 1                        @ Keil_v5\ARM\ARMCLANG\Bin\..\include\libcxx\forward_list:1679:1
	add	sp, #4
	pop	{r4, r5, r6, r7, pc}
.Ltmp220:
.LBB7_5:
	@DEBUG_VALUE: __sort<(lambda at ../../../../ThirdParty/ml-embedded-evaluation-kit/source/application/api/common/source/ImageUtils.cc:78:29)>:__comp <- $r5
	@DEBUG_VALUE: __sort<(lambda at ../../../../ThirdParty/ml-embedded-evaluation-kit/source/application/api/common/source/ImageUtils.cc:78:29)>:__f1 <- $r2
	@DEBUG_VALUE: __sort<(lambda at ../../../../ThirdParty/ml-embedded-evaluation-kit/source/application/api/common/source/ImageUtils.cc:78:29)>:__sz <- $r1
	.loc	9 1672 34                       @ Keil_v5\ARM\ARMCLANG\Bin\..\include\libcxx\forward_list:1672:34
	add.w	r0, r1, r1, lsr #31
	mov	r3, r1
.Ltmp221:
	@DEBUG_VALUE: __sort<(lambda at ../../../../ThirdParty/ml-embedded-evaluation-kit/source/application/api/common/source/ImageUtils.cc:78:29)>:__sz <- $r3
	.loc	9 1673 34                       @ Keil_v5\ARM\ARMCLANG\Bin\..\include\libcxx\forward_list:1673:34
	sub.w	r6, r3, r0, asr #1
.Ltmp222:
	@DEBUG_VALUE: __advance<std::__forward_list_iterator<std::__forward_list_node<arm::app::image::Detection, void *> *> >:__i <- undef
	@DEBUG_VALUE: advance<std::__forward_list_iterator<std::__forward_list_node<arm::app::image::Detection, void *> *>, int>:__i <- undef
	@DEBUG_VALUE: next<std::__forward_list_iterator<std::__forward_list_node<arm::app::image::Detection, void *> *> >:__x <- $r2
	@DEBUG_VALUE: __sort<(lambda at ../../../../ThirdParty/ml-embedded-evaluation-kit/source/application/api/common/source/ImageUtils.cc:78:29)>:__sz2 <- $r6
	@DEBUG_VALUE: __advance<std::__forward_list_iterator<std::__forward_list_node<arm::app::image::Detection, void *> *> >:__n <- [DW_OP_constu 1, DW_OP_minus, DW_OP_stack_value] $r1
	@DEBUG_VALUE: advance<std::__forward_list_iterator<std::__forward_list_node<arm::app::image::Detection, void *> *>, int>:__n <- [DW_OP_constu 1, DW_OP_minus, DW_OP_stack_value] $r1
	@DEBUG_VALUE: advance<std::__forward_list_iterator<std::__forward_list_node<arm::app::image::Detection, void *> *>, int>:__orig_n <- [DW_OP_constu 1, DW_OP_minus, DW_OP_stack_value] $r1
	@DEBUG_VALUE: next<std::__forward_list_iterator<std::__forward_list_node<arm::app::image::Detection, void *> *> >:__n <- [DW_OP_constu 1, DW_OP_minus, DW_OP_stack_value] $r1
	.loc	9 1672 34                       @ Keil_v5\ARM\ARMCLANG\Bin\..\include\libcxx\forward_list:1672:34
	asrs	r1, r0, #1
.Ltmp223:
	@DEBUG_VALUE: __sort<(lambda at ../../../../ThirdParty/ml-embedded-evaluation-kit/source/application/api/common/source/ImageUtils.cc:78:29)>:__sz1 <- $r1
	.loc	9 0 34 is_stmt 0                @ Keil_v5\ARM\ARMCLANG\Bin\..\include\libcxx\forward_list:0:34
	mov	r0, r2
.Ltmp224:
	.loc	23 636 5 is_stmt 1              @ Keil_v5\ARM\ARMCLANG\Bin\..\include\libcxx\iterator:636:5
	cmp	r3, #4
	blt	.LBB7_11
.Ltmp225:
@ %bb.6:
	@DEBUG_VALUE: __sort<(lambda at ../../../../ThirdParty/ml-embedded-evaluation-kit/source/application/api/common/source/ImageUtils.cc:78:29)>:__sz2 <- $r6
	@DEBUG_VALUE: __sort<(lambda at ../../../../ThirdParty/ml-embedded-evaluation-kit/source/application/api/common/source/ImageUtils.cc:78:29)>:__comp <- $r5
	@DEBUG_VALUE: __sort<(lambda at ../../../../ThirdParty/ml-embedded-evaluation-kit/source/application/api/common/source/ImageUtils.cc:78:29)>:__sz <- $r3
	@DEBUG_VALUE: next<std::__forward_list_iterator<std::__forward_list_node<arm::app::image::Detection, void *> *> >:__x <- $r2
	@DEBUG_VALUE: __sort<(lambda at ../../../../ThirdParty/ml-embedded-evaluation-kit/source/application/api/common/source/ImageUtils.cc:78:29)>:__f1 <- $r2
	@DEBUG_VALUE: __sort<(lambda at ../../../../ThirdParty/ml-embedded-evaluation-kit/source/application/api/common/source/ImageUtils.cc:78:29)>:__sz1 <- $r1
	.loc	23 0 5 is_stmt 0                @ Keil_v5\ARM\ARMCLANG\Bin\..\include\libcxx\iterator:0:5
	mov	r0, r2
	mov	r3, r1
.Ltmp226:
	.p2align	2
.LBB7_7:                                @ =>This Inner Loop Header: Depth=1
	@DEBUG_VALUE: __sort<(lambda at ../../../../ThirdParty/ml-embedded-evaluation-kit/source/application/api/common/source/ImageUtils.cc:78:29)>:__sz2 <- $r6
	@DEBUG_VALUE: __sort<(lambda at ../../../../ThirdParty/ml-embedded-evaluation-kit/source/application/api/common/source/ImageUtils.cc:78:29)>:__comp <- $r5
	@DEBUG_VALUE: next<std::__forward_list_iterator<std::__forward_list_node<arm::app::image::Detection, void *> *> >:__x <- $r2
	@DEBUG_VALUE: __sort<(lambda at ../../../../ThirdParty/ml-embedded-evaluation-kit/source/application/api/common/source/ImageUtils.cc:78:29)>:__f1 <- $r2
	@DEBUG_VALUE: __sort<(lambda at ../../../../ThirdParty/ml-embedded-evaluation-kit/source/application/api/common/source/ImageUtils.cc:78:29)>:__sz1 <- $r1
	@DEBUG_VALUE: __advance<std::__forward_list_iterator<std::__forward_list_node<arm::app::image::Detection, void *> *> >:__n <- [DW_OP_constu 1, DW_OP_minus, DW_OP_stack_value] $r3
	@DEBUG_VALUE: operator++:this <- undef
	.loc	9 344 51 is_stmt 1              @ Keil_v5\ARM\ARMCLANG\Bin\..\include\libcxx\forward_list:344:51
	ldr	r0, [r0]
.Ltmp227:
	@DEBUG_VALUE: __advance<std::__forward_list_iterator<std::__forward_list_node<arm::app::image::Detection, void *> *> >:__n <- [DW_OP_constu 1, DW_OP_minus, DW_OP_constu 1, DW_OP_minus, DW_OP_stack_value] $r3
	.loc	23 636 5                        @ Keil_v5\ARM\ARMCLANG\Bin\..\include\libcxx\iterator:636:5
	cmp	r3, #2
	ble	.LBB7_11
.Ltmp228:
@ %bb.8:                                @   in Loop: Header=BB7_7 Depth=1
	@DEBUG_VALUE: __sort<(lambda at ../../../../ThirdParty/ml-embedded-evaluation-kit/source/application/api/common/source/ImageUtils.cc:78:29)>:__sz2 <- $r6
	@DEBUG_VALUE: __sort<(lambda at ../../../../ThirdParty/ml-embedded-evaluation-kit/source/application/api/common/source/ImageUtils.cc:78:29)>:__comp <- $r5
	@DEBUG_VALUE: __advance<std::__forward_list_iterator<std::__forward_list_node<arm::app::image::Detection, void *> *> >:__n <- [DW_OP_constu 1, DW_OP_minus, DW_OP_constu 1, DW_OP_minus, DW_OP_stack_value] $r3
	@DEBUG_VALUE: next<std::__forward_list_iterator<std::__forward_list_node<arm::app::image::Detection, void *> *> >:__x <- $r2
	@DEBUG_VALUE: __sort<(lambda at ../../../../ThirdParty/ml-embedded-evaluation-kit/source/application/api/common/source/ImageUtils.cc:78:29)>:__f1 <- $r2
	@DEBUG_VALUE: __sort<(lambda at ../../../../ThirdParty/ml-embedded-evaluation-kit/source/application/api/common/source/ImageUtils.cc:78:29)>:__sz1 <- $r1
	@DEBUG_VALUE: __advance<std::__forward_list_iterator<std::__forward_list_node<arm::app::image::Detection, void *> *> >:__n <- [DW_OP_constu 2, DW_OP_minus, DW_OP_stack_value] $r3
	@DEBUG_VALUE: operator++:this <- undef
	.loc	9 344 51                        @ Keil_v5\ARM\ARMCLANG\Bin\..\include\libcxx\forward_list:344:51
	ldr	r0, [r0]
.Ltmp229:
	@DEBUG_VALUE: __advance<std::__forward_list_iterator<std::__forward_list_node<arm::app::image::Detection, void *> *> >:__n <- [DW_OP_constu 2, DW_OP_minus, DW_OP_constu 1, DW_OP_minus, DW_OP_stack_value] $r3
	.loc	23 636 5                        @ Keil_v5\ARM\ARMCLANG\Bin\..\include\libcxx\iterator:636:5
	cmp	r3, #3
	beq	.LBB7_11
.Ltmp230:
@ %bb.9:                                @   in Loop: Header=BB7_7 Depth=1
	@DEBUG_VALUE: __sort<(lambda at ../../../../ThirdParty/ml-embedded-evaluation-kit/source/application/api/common/source/ImageUtils.cc:78:29)>:__sz2 <- $r6
	@DEBUG_VALUE: __sort<(lambda at ../../../../ThirdParty/ml-embedded-evaluation-kit/source/application/api/common/source/ImageUtils.cc:78:29)>:__comp <- $r5
	@DEBUG_VALUE: __advance<std::__forward_list_iterator<std::__forward_list_node<arm::app::image::Detection, void *> *> >:__n <- [DW_OP_constu 2, DW_OP_minus, DW_OP_constu 1, DW_OP_minus, DW_OP_stack_value] $r3
	@DEBUG_VALUE: next<std::__forward_list_iterator<std::__forward_list_node<arm::app::image::Detection, void *> *> >:__x <- $r2
	@DEBUG_VALUE: __sort<(lambda at ../../../../ThirdParty/ml-embedded-evaluation-kit/source/application/api/common/source/ImageUtils.cc:78:29)>:__f1 <- $r2
	@DEBUG_VALUE: __sort<(lambda at ../../../../ThirdParty/ml-embedded-evaluation-kit/source/application/api/common/source/ImageUtils.cc:78:29)>:__sz1 <- $r1
	@DEBUG_VALUE: __advance<std::__forward_list_iterator<std::__forward_list_node<arm::app::image::Detection, void *> *> >:__n <- [DW_OP_constu 3, DW_OP_minus, DW_OP_stack_value] $r3
	@DEBUG_VALUE: operator++:this <- undef
	.loc	9 344 51                        @ Keil_v5\ARM\ARMCLANG\Bin\..\include\libcxx\forward_list:344:51
	ldr	r0, [r0]
.Ltmp231:
	@DEBUG_VALUE: __advance<std::__forward_list_iterator<std::__forward_list_node<arm::app::image::Detection, void *> *> >:__n <- [DW_OP_constu 3, DW_OP_minus, DW_OP_constu 1, DW_OP_minus, DW_OP_stack_value] $r3
	.loc	23 636 5                        @ Keil_v5\ARM\ARMCLANG\Bin\..\include\libcxx\iterator:636:5
	cmp	r3, #5
	blt	.LBB7_11
.Ltmp232:
@ %bb.10:                               @   in Loop: Header=BB7_7 Depth=1
	@DEBUG_VALUE: __sort<(lambda at ../../../../ThirdParty/ml-embedded-evaluation-kit/source/application/api/common/source/ImageUtils.cc:78:29)>:__sz2 <- $r6
	@DEBUG_VALUE: __sort<(lambda at ../../../../ThirdParty/ml-embedded-evaluation-kit/source/application/api/common/source/ImageUtils.cc:78:29)>:__comp <- $r5
	@DEBUG_VALUE: __advance<std::__forward_list_iterator<std::__forward_list_node<arm::app::image::Detection, void *> *> >:__n <- [DW_OP_constu 3, DW_OP_minus, DW_OP_constu 1, DW_OP_minus, DW_OP_stack_value] $r3
	@DEBUG_VALUE: next<std::__forward_list_iterator<std::__forward_list_node<arm::app::image::Detection, void *> *> >:__x <- $r2
	@DEBUG_VALUE: __sort<(lambda at ../../../../ThirdParty/ml-embedded-evaluation-kit/source/application/api/common/source/ImageUtils.cc:78:29)>:__f1 <- $r2
	@DEBUG_VALUE: __sort<(lambda at ../../../../ThirdParty/ml-embedded-evaluation-kit/source/application/api/common/source/ImageUtils.cc:78:29)>:__sz1 <- $r1
	@DEBUG_VALUE: __advance<std::__forward_list_iterator<std::__forward_list_node<arm::app::image::Detection, void *> *> >:__n <- [DW_OP_constu 3, DW_OP_minus, DW_OP_stack_value] $r3
	.loc	9 0 0 is_stmt 0                 @ Keil_v5\ARM\ARMCLANG\Bin\..\include\libcxx\forward_list:0:0
	subs	r3, #4
.Ltmp233:
	@DEBUG_VALUE: operator++:this <- undef
	@DEBUG_VALUE: __advance<std::__forward_list_iterator<std::__forward_list_node<arm::app::image::Detection, void *> *> >:__n <- $r3
	.loc	9 344 51 is_stmt 1              @ Keil_v5\ARM\ARMCLANG\Bin\..\include\libcxx\forward_list:344:51
	ldr	r0, [r0]
.Ltmp234:
	@DEBUG_VALUE: __advance<std::__forward_list_iterator<std::__forward_list_node<arm::app::image::Detection, void *> *> >:__n <- [DW_OP_constu 1, DW_OP_minus, DW_OP_stack_value] $r3
	.loc	23 636 5                        @ Keil_v5\ARM\ARMCLANG\Bin\..\include\libcxx\iterator:636:5
	cmp	r3, #1
	bne	.LBB7_7
.Ltmp235:
.LBB7_11:
	@DEBUG_VALUE: __sort<(lambda at ../../../../ThirdParty/ml-embedded-evaluation-kit/source/application/api/common/source/ImageUtils.cc:78:29)>:__sz2 <- $r6
	@DEBUG_VALUE: __sort<(lambda at ../../../../ThirdParty/ml-embedded-evaluation-kit/source/application/api/common/source/ImageUtils.cc:78:29)>:__comp <- $r5
	@DEBUG_VALUE: __sort<(lambda at ../../../../ThirdParty/ml-embedded-evaluation-kit/source/application/api/common/source/ImageUtils.cc:78:29)>:__f1 <- $r2
	@DEBUG_VALUE: __sort<(lambda at ../../../../ThirdParty/ml-embedded-evaluation-kit/source/application/api/common/source/ImageUtils.cc:78:29)>:__sz1 <- $r1
	@DEBUG_VALUE: next<std::__forward_list_iterator<std::__forward_list_node<arm::app::image::Detection, void *> *> >:__x <- undef
	@DEBUG_VALUE: __sort<(lambda at ../../../../ThirdParty/ml-embedded-evaluation-kit/source/application/api/common/source/ImageUtils.cc:78:29)>:__t <- undef
	.loc	23 0 5 is_stmt 0                @ Keil_v5\ARM\ARMCLANG\Bin\..\include\libcxx\iterator:0:5
	movs	r3, #0
	.loc	9 1675 32 is_stmt 1             @ Keil_v5\ARM\ARMCLANG\Bin\..\include\libcxx\forward_list:1675:32
	ldr	r7, [r0]
.Ltmp236:
	@DEBUG_VALUE: __sort<(lambda at ../../../../ThirdParty/ml-embedded-evaluation-kit/source/application/api/common/source/ImageUtils.cc:78:29)>:__f2 <- $r7
	.loc	9 1676 18                       @ Keil_v5\ARM\ARMCLANG\Bin\..\include\libcxx\forward_list:1676:18
	str	r3, [r0]
	.loc	9 1677 20                       @ Keil_v5\ARM\ARMCLANG\Bin\..\include\libcxx\forward_list:1677:20
	mov	r0, r2
	mov	r2, r5
.Ltmp237:
	bl	_ZNSt3__212forward_listIN3arm3app5image9DetectionENS_9allocatorIS4_EEE6__sortIZNS3_12CalculateNMSERS7_ifE3$_0EEPNS_19__forward_list_nodeIS4_PvEESE_iRT_
.Ltmp238:
	mov	r4, r0
	.loc	9 1678 20                       @ Keil_v5\ARM\ARMCLANG\Bin\..\include\libcxx\forward_list:1678:20
	mov	r0, r7
	mov	r1, r6
	mov	r2, r5
	bl	_ZNSt3__212forward_listIN3arm3app5image9DetectionENS_9allocatorIS4_EEE6__sortIZNS3_12CalculateNMSERS7_ifE3$_0EEPNS_19__forward_list_nodeIS4_PvEESE_iRT_
.Ltmp239:
	@DEBUG_VALUE: __merge<(lambda at ../../../../ThirdParty/ml-embedded-evaluation-kit/source/application/api/common/source/ImageUtils.cc:78:29)>:__f1 <- $r4
	.loc	9 1602 9                        @ Keil_v5\ARM\ARMCLANG\Bin\..\include\libcxx\forward_list:1602:9
	cmp	r4, #0
.Ltmp240:
	@DEBUG_VALUE: __merge<(lambda at ../../../../ThirdParty/ml-embedded-evaluation-kit/source/application/api/common/source/ImageUtils.cc:78:29)>:__comp <- $r5
	@DEBUG_VALUE: __merge<(lambda at ../../../../ThirdParty/ml-embedded-evaluation-kit/source/application/api/common/source/ImageUtils.cc:78:29)>:__f2 <- $r0
	@DEBUG_VALUE: __merge<(lambda at ../../../../ThirdParty/ml-embedded-evaluation-kit/source/application/api/common/source/ImageUtils.cc:78:29)>:__f1 <- $r4
	beq.w	.LBB7_46
.Ltmp241:
@ %bb.12:
	@DEBUG_VALUE: __sort<(lambda at ../../../../ThirdParty/ml-embedded-evaluation-kit/source/application/api/common/source/ImageUtils.cc:78:29)>:__f2 <- $r7
	@DEBUG_VALUE: __sort<(lambda at ../../../../ThirdParty/ml-embedded-evaluation-kit/source/application/api/common/source/ImageUtils.cc:78:29)>:__sz2 <- $r6
	@DEBUG_VALUE: __merge<(lambda at ../../../../ThirdParty/ml-embedded-evaluation-kit/source/application/api/common/source/ImageUtils.cc:78:29)>:__comp <- $r5
	@DEBUG_VALUE: __sort<(lambda at ../../../../ThirdParty/ml-embedded-evaluation-kit/source/application/api/common/source/ImageUtils.cc:78:29)>:__comp <- $r5
	@DEBUG_VALUE: __merge<(lambda at ../../../../ThirdParty/ml-embedded-evaluation-kit/source/application/api/common/source/ImageUtils.cc:78:29)>:__f1 <- $r4
	@DEBUG_VALUE: __merge<(lambda at ../../../../ThirdParty/ml-embedded-evaluation-kit/source/application/api/common/source/ImageUtils.cc:78:29)>:__f2 <- $r0
	.loc	9 1604 9                        @ Keil_v5\ARM\ARMCLANG\Bin\..\include\libcxx\forward_list:1604:9
	cmp	r0, #0
	beq	.LBB7_23
.Ltmp242:
@ %bb.13:
	@DEBUG_VALUE: __sort<(lambda at ../../../../ThirdParty/ml-embedded-evaluation-kit/source/application/api/common/source/ImageUtils.cc:78:29)>:__f2 <- $r7
	@DEBUG_VALUE: __sort<(lambda at ../../../../ThirdParty/ml-embedded-evaluation-kit/source/application/api/common/source/ImageUtils.cc:78:29)>:__sz2 <- $r6
	@DEBUG_VALUE: __merge<(lambda at ../../../../ThirdParty/ml-embedded-evaluation-kit/source/application/api/common/source/ImageUtils.cc:78:29)>:__comp <- $r5
	@DEBUG_VALUE: __sort<(lambda at ../../../../ThirdParty/ml-embedded-evaluation-kit/source/application/api/common/source/ImageUtils.cc:78:29)>:__comp <- $r5
	@DEBUG_VALUE: __merge<(lambda at ../../../../ThirdParty/ml-embedded-evaluation-kit/source/application/api/common/source/ImageUtils.cc:78:29)>:__f1 <- $r4
	@DEBUG_VALUE: __merge<(lambda at ../../../../ThirdParty/ml-embedded-evaluation-kit/source/application/api/common/source/ImageUtils.cc:78:29)>:__f2 <- $r0
	@DEBUG_VALUE: operator():this <- $r5
	@DEBUG_VALUE: operator():prob1 <- [DW_OP_plus_uconst 4, DW_OP_stack_value] $r0
	@DEBUG_VALUE: operator():prob2 <- [DW_OP_plus_uconst 4, DW_OP_stack_value] $r4
	.loc	22 79 31                        @ ../../../../ThirdParty/ml-embedded-evaluation-kit/source/application/api/common/source/ImageUtils.cc:79:31
	ldr	r2, [r5]
.Ltmp243:
	@DEBUG_VALUE: operator[]:this <- [DW_OP_plus_uconst 4, DW_OP_plus_uconst 16, DW_OP_stack_value] $r0
	@DEBUG_VALUE: operator[]:__n <- $r2
	.loc	7 1550 18                       @ Keil_v5\ARM\ARMCLANG\Bin\..\include\libcxx\vector:1550:18
	ldr	r1, [r0, #20]
.Ltmp244:
	.loc	7 1550 18 is_stmt 0             @ Keil_v5\ARM\ARMCLANG\Bin\..\include\libcxx\vector:1550:18
	ldr	r3, [r4, #20]
.Ltmp245:
	.loc	7 1550 12                       @ Keil_v5\ARM\ARMCLANG\Bin\..\include\libcxx\vector:1550:12
	add.w	r1, r1, r2, lsl #2
.Ltmp246:
	@DEBUG_VALUE: operator[]:this <- [DW_OP_plus_uconst 4, DW_OP_plus_uconst 16, DW_OP_stack_value] $r0
	@DEBUG_VALUE: operator[]:__n <- $r2
	.loc	7 1550 12                       @ Keil_v5\ARM\ARMCLANG\Bin\..\include\libcxx\vector:1550:12
	add.w	r3, r3, r2, lsl #2
.Ltmp247:
	.loc	22 79 20 is_stmt 1              @ ../../../../ThirdParty/ml-embedded-evaluation-kit/source/application/api/common/source/ImageUtils.cc:79:20
	vldr	s2, [r1]
	@DEBUG_VALUE: operator[]:__n <- $r2
	@DEBUG_VALUE: operator[]:this <- [DW_OP_plus_uconst 4, DW_OP_plus_uconst 16, DW_OP_stack_value] $r4
	.loc	22 79 43 is_stmt 0              @ ../../../../ThirdParty/ml-embedded-evaluation-kit/source/application/api/common/source/ImageUtils.cc:79:43
	vldr	s0, [r3]
.Ltmp248:
	.loc	9 1607 9 is_stmt 1              @ Keil_v5\ARM\ARMCLANG\Bin\..\include\libcxx\forward_list:1607:9
	vcmp.f32	s2, s0
	vmrs	APSR_nzcv, fpscr
	ble	.LBB7_24
.Ltmp249:
@ %bb.14:
	@DEBUG_VALUE: __sort<(lambda at ../../../../ThirdParty/ml-embedded-evaluation-kit/source/application/api/common/source/ImageUtils.cc:78:29)>:__f2 <- $r7
	@DEBUG_VALUE: __sort<(lambda at ../../../../ThirdParty/ml-embedded-evaluation-kit/source/application/api/common/source/ImageUtils.cc:78:29)>:__sz2 <- $r6
	@DEBUG_VALUE: operator():this <- $r5
	@DEBUG_VALUE: __merge<(lambda at ../../../../ThirdParty/ml-embedded-evaluation-kit/source/application/api/common/source/ImageUtils.cc:78:29)>:__comp <- $r5
	@DEBUG_VALUE: __sort<(lambda at ../../../../ThirdParty/ml-embedded-evaluation-kit/source/application/api/common/source/ImageUtils.cc:78:29)>:__comp <- $r5
	@DEBUG_VALUE: operator[]:this <- [DW_OP_plus_uconst 4, DW_OP_plus_uconst 16, DW_OP_stack_value] $r4
	@DEBUG_VALUE: operator():prob2 <- [DW_OP_plus_uconst 4, DW_OP_stack_value] $r4
	@DEBUG_VALUE: __merge<(lambda at ../../../../ThirdParty/ml-embedded-evaluation-kit/source/application/api/common/source/ImageUtils.cc:78:29)>:__f1 <- $r4
	@DEBUG_VALUE: operator[]:__n <- $r2
	@DEBUG_VALUE: operator[]:__n <- $r2
	@DEBUG_VALUE: operator[]:this <- [DW_OP_plus_uconst 4, DW_OP_plus_uconst 16, DW_OP_stack_value] $r0
	@DEBUG_VALUE: operator():prob1 <- [DW_OP_plus_uconst 4, DW_OP_stack_value] $r0
	@DEBUG_VALUE: __merge<(lambda at ../../../../ThirdParty/ml-embedded-evaluation-kit/source/application/api/common/source/ImageUtils.cc:78:29)>:__f2 <- $r0
	.loc	9 0 0 is_stmt 0                 @ Keil_v5\ARM\ARMCLANG\Bin\..\include\libcxx\forward_list:0:0
	mov	r5, r0
.Ltmp250:
	@DEBUG_VALUE: __sort<(lambda at ../../../../ThirdParty/ml-embedded-evaluation-kit/source/application/api/common/source/ImageUtils.cc:78:29)>:__comp <- [DW_OP_LLVM_entry_value 1] $r2
.LBB7_15:                               @ =>This Inner Loop Header: Depth=1
	@DEBUG_VALUE: __sort<(lambda at ../../../../ThirdParty/ml-embedded-evaluation-kit/source/application/api/common/source/ImageUtils.cc:78:29)>:__sz2 <- $r6
	@DEBUG_VALUE: __merge<(lambda at ../../../../ThirdParty/ml-embedded-evaluation-kit/source/application/api/common/source/ImageUtils.cc:78:29)>:__f1 <- $r4
	@DEBUG_VALUE: __merge<(lambda at ../../../../ThirdParty/ml-embedded-evaluation-kit/source/application/api/common/source/ImageUtils.cc:78:29)>:__f2 <- $r0
	@DEBUG_VALUE: __sort<(lambda at ../../../../ThirdParty/ml-embedded-evaluation-kit/source/application/api/common/source/ImageUtils.cc:78:29)>:__comp <- [DW_OP_LLVM_entry_value 1] $r2
	@DEBUG_VALUE: __t <- $r5
	.loc	9 1610 21 is_stmt 1             @ Keil_v5\ARM\ARMCLANG\Bin\..\include\libcxx\forward_list:1610:21
	ldr	r3, [r5]
	.loc	9 1610 40 is_stmt 0             @ Keil_v5\ARM\ARMCLANG\Bin\..\include\libcxx\forward_list:1610:40
	cbz	r3, .LBB7_25
.Ltmp251:
@ %bb.16:                               @   in Loop: Header=BB7_15 Depth=1
	@DEBUG_VALUE: __sort<(lambda at ../../../../ThirdParty/ml-embedded-evaluation-kit/source/application/api/common/source/ImageUtils.cc:78:29)>:__sz2 <- $r6
	@DEBUG_VALUE: __t <- $r5
	@DEBUG_VALUE: __merge<(lambda at ../../../../ThirdParty/ml-embedded-evaluation-kit/source/application/api/common/source/ImageUtils.cc:78:29)>:__f1 <- $r4
	@DEBUG_VALUE: __merge<(lambda at ../../../../ThirdParty/ml-embedded-evaluation-kit/source/application/api/common/source/ImageUtils.cc:78:29)>:__f2 <- $r0
	@DEBUG_VALUE: __sort<(lambda at ../../../../ThirdParty/ml-embedded-evaluation-kit/source/application/api/common/source/ImageUtils.cc:78:29)>:__comp <- [DW_OP_LLVM_entry_value 1] $r2
	@DEBUG_VALUE: operator():this <- undef
	@DEBUG_VALUE: operator():prob1 <- [DW_OP_plus_uconst 4, DW_OP_stack_value] $r3
	@DEBUG_VALUE: operator():prob2 <- [DW_OP_plus_uconst 4, DW_OP_stack_value] $r4
	@DEBUG_VALUE: operator[]:this <- [DW_OP_plus_uconst 4, DW_OP_plus_uconst 16, DW_OP_stack_value] $r3
	@DEBUG_VALUE: operator[]:__n <- $r2
	.loc	7 1550 18 is_stmt 1             @ Keil_v5\ARM\ARMCLANG\Bin\..\include\libcxx\vector:1550:18
	ldr	r1, [r3, #20]
	.loc	7 1550 12 is_stmt 0             @ Keil_v5\ARM\ARMCLANG\Bin\..\include\libcxx\vector:1550:12
	add.w	r1, r1, r2, lsl #2
.Ltmp252:
	.loc	22 79 20 is_stmt 1              @ ../../../../ThirdParty/ml-embedded-evaluation-kit/source/application/api/common/source/ImageUtils.cc:79:20
	vldr	s2, [r1]
.Ltmp253:
	@DEBUG_VALUE: operator[]:__n <- $r2
	@DEBUG_VALUE: operator[]:this <- [DW_OP_plus_uconst 4, DW_OP_plus_uconst 16, DW_OP_stack_value] $r4
	.loc	9 1610 9                        @ Keil_v5\ARM\ARMCLANG\Bin\..\include\libcxx\forward_list:1610:9
	vcmp.f32	s2, s0
	vmrs	APSR_nzcv, fpscr
	ble	.LBB7_25
.Ltmp254:
@ %bb.17:                               @   in Loop: Header=BB7_15 Depth=1
	@DEBUG_VALUE: __sort<(lambda at ../../../../ThirdParty/ml-embedded-evaluation-kit/source/application/api/common/source/ImageUtils.cc:78:29)>:__sz2 <- $r6
	@DEBUG_VALUE: __t <- $r5
	@DEBUG_VALUE: __merge<(lambda at ../../../../ThirdParty/ml-embedded-evaluation-kit/source/application/api/common/source/ImageUtils.cc:78:29)>:__f1 <- $r4
	@DEBUG_VALUE: __merge<(lambda at ../../../../ThirdParty/ml-embedded-evaluation-kit/source/application/api/common/source/ImageUtils.cc:78:29)>:__f2 <- $r0
	@DEBUG_VALUE: __sort<(lambda at ../../../../ThirdParty/ml-embedded-evaluation-kit/source/application/api/common/source/ImageUtils.cc:78:29)>:__comp <- [DW_OP_LLVM_entry_value 1] $r2
	@DEBUG_VALUE: __t <- $r3
	.loc	9 1610 21 is_stmt 0             @ Keil_v5\ARM\ARMCLANG\Bin\..\include\libcxx\forward_list:1610:21
	ldr	r5, [r3]
	.loc	9 1610 40                       @ Keil_v5\ARM\ARMCLANG\Bin\..\include\libcxx\forward_list:1610:40
	cbz	r5, .LBB7_26
.Ltmp255:
@ %bb.18:                               @   in Loop: Header=BB7_15 Depth=1
	@DEBUG_VALUE: __sort<(lambda at ../../../../ThirdParty/ml-embedded-evaluation-kit/source/application/api/common/source/ImageUtils.cc:78:29)>:__sz2 <- $r6
	@DEBUG_VALUE: __merge<(lambda at ../../../../ThirdParty/ml-embedded-evaluation-kit/source/application/api/common/source/ImageUtils.cc:78:29)>:__f1 <- $r4
	@DEBUG_VALUE: __t <- $r3
	@DEBUG_VALUE: __merge<(lambda at ../../../../ThirdParty/ml-embedded-evaluation-kit/source/application/api/common/source/ImageUtils.cc:78:29)>:__f2 <- $r0
	@DEBUG_VALUE: __sort<(lambda at ../../../../ThirdParty/ml-embedded-evaluation-kit/source/application/api/common/source/ImageUtils.cc:78:29)>:__comp <- [DW_OP_LLVM_entry_value 1] $r2
	@DEBUG_VALUE: operator():this <- undef
	@DEBUG_VALUE: operator():prob1 <- [DW_OP_plus_uconst 4, DW_OP_stack_value] $r5
	@DEBUG_VALUE: operator():prob2 <- [DW_OP_plus_uconst 4, DW_OP_stack_value] $r4
	@DEBUG_VALUE: operator[]:this <- [DW_OP_plus_uconst 4, DW_OP_plus_uconst 16, DW_OP_stack_value] $r5
	@DEBUG_VALUE: operator[]:__n <- $r2
	.loc	7 1550 18 is_stmt 1             @ Keil_v5\ARM\ARMCLANG\Bin\..\include\libcxx\vector:1550:18
	ldr	r1, [r5, #20]
	.loc	7 1550 12 is_stmt 0             @ Keil_v5\ARM\ARMCLANG\Bin\..\include\libcxx\vector:1550:12
	add.w	r1, r1, r2, lsl #2
.Ltmp256:
	.loc	22 79 20 is_stmt 1              @ ../../../../ThirdParty/ml-embedded-evaluation-kit/source/application/api/common/source/ImageUtils.cc:79:20
	vldr	s2, [r1]
.Ltmp257:
	@DEBUG_VALUE: operator[]:__n <- $r2
	@DEBUG_VALUE: operator[]:this <- [DW_OP_plus_uconst 4, DW_OP_plus_uconst 16, DW_OP_stack_value] $r4
	.loc	9 1610 9                        @ Keil_v5\ARM\ARMCLANG\Bin\..\include\libcxx\forward_list:1610:9
	vcmp.f32	s2, s0
	vmrs	APSR_nzcv, fpscr
	ble	.LBB7_26
.Ltmp258:
@ %bb.19:                               @   in Loop: Header=BB7_15 Depth=1
	@DEBUG_VALUE: __sort<(lambda at ../../../../ThirdParty/ml-embedded-evaluation-kit/source/application/api/common/source/ImageUtils.cc:78:29)>:__sz2 <- $r6
	@DEBUG_VALUE: __merge<(lambda at ../../../../ThirdParty/ml-embedded-evaluation-kit/source/application/api/common/source/ImageUtils.cc:78:29)>:__f1 <- $r4
	@DEBUG_VALUE: __t <- $r3
	@DEBUG_VALUE: __merge<(lambda at ../../../../ThirdParty/ml-embedded-evaluation-kit/source/application/api/common/source/ImageUtils.cc:78:29)>:__f2 <- $r0
	@DEBUG_VALUE: __sort<(lambda at ../../../../ThirdParty/ml-embedded-evaluation-kit/source/application/api/common/source/ImageUtils.cc:78:29)>:__comp <- [DW_OP_LLVM_entry_value 1] $r2
	@DEBUG_VALUE: __t <- $r5
	.loc	9 1610 21 is_stmt 0             @ Keil_v5\ARM\ARMCLANG\Bin\..\include\libcxx\forward_list:1610:21
	ldr	r3, [r5]
	.loc	9 1610 40                       @ Keil_v5\ARM\ARMCLANG\Bin\..\include\libcxx\forward_list:1610:40
	cbz	r3, .LBB7_25
.Ltmp259:
@ %bb.20:                               @   in Loop: Header=BB7_15 Depth=1
	@DEBUG_VALUE: __sort<(lambda at ../../../../ThirdParty/ml-embedded-evaluation-kit/source/application/api/common/source/ImageUtils.cc:78:29)>:__sz2 <- $r6
	@DEBUG_VALUE: __t <- $r5
	@DEBUG_VALUE: __merge<(lambda at ../../../../ThirdParty/ml-embedded-evaluation-kit/source/application/api/common/source/ImageUtils.cc:78:29)>:__f1 <- $r4
	@DEBUG_VALUE: __merge<(lambda at ../../../../ThirdParty/ml-embedded-evaluation-kit/source/application/api/common/source/ImageUtils.cc:78:29)>:__f2 <- $r0
	@DEBUG_VALUE: __sort<(lambda at ../../../../ThirdParty/ml-embedded-evaluation-kit/source/application/api/common/source/ImageUtils.cc:78:29)>:__comp <- [DW_OP_LLVM_entry_value 1] $r2
	@DEBUG_VALUE: operator():this <- undef
	@DEBUG_VALUE: operator():prob1 <- [DW_OP_plus_uconst 4, DW_OP_stack_value] $r3
	@DEBUG_VALUE: operator():prob2 <- [DW_OP_plus_uconst 4, DW_OP_stack_value] $r4
	@DEBUG_VALUE: operator[]:this <- [DW_OP_plus_uconst 4, DW_OP_plus_uconst 16, DW_OP_stack_value] $r3
	@DEBUG_VALUE: operator[]:__n <- $r2
	.loc	7 1550 18 is_stmt 1             @ Keil_v5\ARM\ARMCLANG\Bin\..\include\libcxx\vector:1550:18
	ldr	r1, [r3, #20]
	.loc	7 1550 12 is_stmt 0             @ Keil_v5\ARM\ARMCLANG\Bin\..\include\libcxx\vector:1550:12
	add.w	r1, r1, r2, lsl #2
.Ltmp260:
	.loc	22 79 20 is_stmt 1              @ ../../../../ThirdParty/ml-embedded-evaluation-kit/source/application/api/common/source/ImageUtils.cc:79:20
	vldr	s2, [r1]
.Ltmp261:
	@DEBUG_VALUE: operator[]:__n <- $r2
	@DEBUG_VALUE: operator[]:this <- [DW_OP_plus_uconst 4, DW_OP_plus_uconst 16, DW_OP_stack_value] $r4
	.loc	9 1610 9                        @ Keil_v5\ARM\ARMCLANG\Bin\..\include\libcxx\forward_list:1610:9
	vcmp.f32	s2, s0
	vmrs	APSR_nzcv, fpscr
	ble	.LBB7_25
.Ltmp262:
@ %bb.21:                               @   in Loop: Header=BB7_15 Depth=1
	@DEBUG_VALUE: __sort<(lambda at ../../../../ThirdParty/ml-embedded-evaluation-kit/source/application/api/common/source/ImageUtils.cc:78:29)>:__sz2 <- $r6
	@DEBUG_VALUE: __t <- $r5
	@DEBUG_VALUE: __merge<(lambda at ../../../../ThirdParty/ml-embedded-evaluation-kit/source/application/api/common/source/ImageUtils.cc:78:29)>:__f1 <- $r4
	@DEBUG_VALUE: __merge<(lambda at ../../../../ThirdParty/ml-embedded-evaluation-kit/source/application/api/common/source/ImageUtils.cc:78:29)>:__f2 <- $r0
	@DEBUG_VALUE: __sort<(lambda at ../../../../ThirdParty/ml-embedded-evaluation-kit/source/application/api/common/source/ImageUtils.cc:78:29)>:__comp <- [DW_OP_LLVM_entry_value 1] $r2
	@DEBUG_VALUE: __t <- $r3
	.loc	9 1610 21 is_stmt 0             @ Keil_v5\ARM\ARMCLANG\Bin\..\include\libcxx\forward_list:1610:21
	ldr	r5, [r3]
	.loc	9 1610 40                       @ Keil_v5\ARM\ARMCLANG\Bin\..\include\libcxx\forward_list:1610:40
	cbz	r5, .LBB7_26
.Ltmp263:
@ %bb.22:                               @   in Loop: Header=BB7_15 Depth=1
	@DEBUG_VALUE: __sort<(lambda at ../../../../ThirdParty/ml-embedded-evaluation-kit/source/application/api/common/source/ImageUtils.cc:78:29)>:__sz2 <- $r6
	@DEBUG_VALUE: __merge<(lambda at ../../../../ThirdParty/ml-embedded-evaluation-kit/source/application/api/common/source/ImageUtils.cc:78:29)>:__f1 <- $r4
	@DEBUG_VALUE: __t <- $r3
	@DEBUG_VALUE: __merge<(lambda at ../../../../ThirdParty/ml-embedded-evaluation-kit/source/application/api/common/source/ImageUtils.cc:78:29)>:__f2 <- $r0
	@DEBUG_VALUE: __sort<(lambda at ../../../../ThirdParty/ml-embedded-evaluation-kit/source/application/api/common/source/ImageUtils.cc:78:29)>:__comp <- [DW_OP_LLVM_entry_value 1] $r2
	@DEBUG_VALUE: operator():this <- undef
	@DEBUG_VALUE: operator():prob1 <- [DW_OP_plus_uconst 4, DW_OP_stack_value] $r5
	@DEBUG_VALUE: operator():prob2 <- [DW_OP_plus_uconst 4, DW_OP_stack_value] $r4
	@DEBUG_VALUE: operator[]:this <- [DW_OP_plus_uconst 4, DW_OP_plus_uconst 16, DW_OP_stack_value] $r5
	@DEBUG_VALUE: operator[]:__n <- $r2
	.loc	7 1550 18 is_stmt 1             @ Keil_v5\ARM\ARMCLANG\Bin\..\include\libcxx\vector:1550:18
	ldr	r1, [r5, #20]
.Ltmp264:
	.loc	9 0 0 is_stmt 0                 @ Keil_v5\ARM\ARMCLANG\Bin\..\include\libcxx\forward_list:0:0
	mov	r7, r3
.Ltmp265:
	@DEBUG_VALUE: __t <- $r7
	@DEBUG_VALUE: __t <- $r7
	.loc	7 1550 12                       @ Keil_v5\ARM\ARMCLANG\Bin\..\include\libcxx\vector:1550:12
	add.w	r1, r1, r2, lsl #2
.Ltmp266:
	.loc	22 79 20 is_stmt 1              @ ../../../../ThirdParty/ml-embedded-evaluation-kit/source/application/api/common/source/ImageUtils.cc:79:20
	vldr	s2, [r1]
.Ltmp267:
	@DEBUG_VALUE: operator[]:__n <- $r2
	@DEBUG_VALUE: operator[]:this <- [DW_OP_plus_uconst 4, DW_OP_plus_uconst 16, DW_OP_stack_value] $r4
	.loc	9 1610 9                        @ Keil_v5\ARM\ARMCLANG\Bin\..\include\libcxx\forward_list:1610:9
	vcmp.f32	s2, s0
	vmrs	APSR_nzcv, fpscr
	bgt	.LBB7_15
	b	.LBB7_27
.Ltmp268:
.LBB7_23:
	@DEBUG_VALUE: __sort<(lambda at ../../../../ThirdParty/ml-embedded-evaluation-kit/source/application/api/common/source/ImageUtils.cc:78:29)>:__f2 <- $r7
	@DEBUG_VALUE: __sort<(lambda at ../../../../ThirdParty/ml-embedded-evaluation-kit/source/application/api/common/source/ImageUtils.cc:78:29)>:__sz2 <- $r6
	@DEBUG_VALUE: __sort<(lambda at ../../../../ThirdParty/ml-embedded-evaluation-kit/source/application/api/common/source/ImageUtils.cc:78:29)>:__comp <- $r5
	.loc	9 0 0 is_stmt 0                 @ Keil_v5\ARM\ARMCLANG\Bin\..\include\libcxx\forward_list:0:0
	mov	r0, r4
	.loc	9 1679 1 is_stmt 1              @ Keil_v5\ARM\ARMCLANG\Bin\..\include\libcxx\forward_list:1679:1
	add	sp, #4
	pop	{r4, r5, r6, r7, pc}
.Ltmp269:
.LBB7_24:
	@DEBUG_VALUE: __sort<(lambda at ../../../../ThirdParty/ml-embedded-evaluation-kit/source/application/api/common/source/ImageUtils.cc:78:29)>:__f2 <- $r7
	@DEBUG_VALUE: __sort<(lambda at ../../../../ThirdParty/ml-embedded-evaluation-kit/source/application/api/common/source/ImageUtils.cc:78:29)>:__sz2 <- $r6
	@DEBUG_VALUE: operator():this <- $r5
	@DEBUG_VALUE: __merge<(lambda at ../../../../ThirdParty/ml-embedded-evaluation-kit/source/application/api/common/source/ImageUtils.cc:78:29)>:__comp <- $r5
	@DEBUG_VALUE: __sort<(lambda at ../../../../ThirdParty/ml-embedded-evaluation-kit/source/application/api/common/source/ImageUtils.cc:78:29)>:__comp <- $r5
	@DEBUG_VALUE: operator[]:this <- [DW_OP_plus_uconst 4, DW_OP_plus_uconst 16, DW_OP_stack_value] $r4
	@DEBUG_VALUE: operator():prob2 <- [DW_OP_plus_uconst 4, DW_OP_stack_value] $r4
	@DEBUG_VALUE: __merge<(lambda at ../../../../ThirdParty/ml-embedded-evaluation-kit/source/application/api/common/source/ImageUtils.cc:78:29)>:__f1 <- $r4
	@DEBUG_VALUE: operator[]:__n <- $r2
	@DEBUG_VALUE: operator[]:__n <- $r2
	@DEBUG_VALUE: operator[]:this <- [DW_OP_plus_uconst 4, DW_OP_plus_uconst 16, DW_OP_stack_value] $r0
	@DEBUG_VALUE: operator():prob1 <- [DW_OP_plus_uconst 4, DW_OP_stack_value] $r0
	@DEBUG_VALUE: __merge<(lambda at ../../../../ThirdParty/ml-embedded-evaluation-kit/source/application/api/common/source/ImageUtils.cc:78:29)>:__f2 <- $r0
	.loc	9 0 1 is_stmt 0                 @ Keil_v5\ARM\ARMCLANG\Bin\..\include\libcxx\forward_list:0:1
	mov	r5, r0
.Ltmp270:
	@DEBUG_VALUE: __merge<(lambda at ../../../../ThirdParty/ml-embedded-evaluation-kit/source/application/api/common/source/ImageUtils.cc:78:29)>:__f2 <- $r5
	@DEBUG_VALUE: __sort<(lambda at ../../../../ThirdParty/ml-embedded-evaluation-kit/source/application/api/common/source/ImageUtils.cc:78:29)>:__comp <- [DW_OP_LLVM_entry_value 1] $r2
	mov	r0, r4
	b	.LBB7_28
.Ltmp271:
.LBB7_25:
	@DEBUG_VALUE: __sort<(lambda at ../../../../ThirdParty/ml-embedded-evaluation-kit/source/application/api/common/source/ImageUtils.cc:78:29)>:__sz2 <- $r6
	@DEBUG_VALUE: __t <- $r5
	@DEBUG_VALUE: __merge<(lambda at ../../../../ThirdParty/ml-embedded-evaluation-kit/source/application/api/common/source/ImageUtils.cc:78:29)>:__f1 <- $r4
	@DEBUG_VALUE: __merge<(lambda at ../../../../ThirdParty/ml-embedded-evaluation-kit/source/application/api/common/source/ImageUtils.cc:78:29)>:__f2 <- $r0
	@DEBUG_VALUE: __sort<(lambda at ../../../../ThirdParty/ml-embedded-evaluation-kit/source/application/api/common/source/ImageUtils.cc:78:29)>:__comp <- [DW_OP_LLVM_entry_value 1] $r2
	mov	r7, r5
.Ltmp272:
	@DEBUG_VALUE: __t <- $r7
	@DEBUG_VALUE: __t <- $r7
	.loc	9 1610 21 is_stmt 1             @ Keil_v5\ARM\ARMCLANG\Bin\..\include\libcxx\forward_list:1610:21
	mov	r5, r3
	b	.LBB7_27
.Ltmp273:
.LBB7_26:
	@DEBUG_VALUE: __sort<(lambda at ../../../../ThirdParty/ml-embedded-evaluation-kit/source/application/api/common/source/ImageUtils.cc:78:29)>:__sz2 <- $r6
	@DEBUG_VALUE: __merge<(lambda at ../../../../ThirdParty/ml-embedded-evaluation-kit/source/application/api/common/source/ImageUtils.cc:78:29)>:__f1 <- $r4
	@DEBUG_VALUE: __t <- $r3
	@DEBUG_VALUE: __merge<(lambda at ../../../../ThirdParty/ml-embedded-evaluation-kit/source/application/api/common/source/ImageUtils.cc:78:29)>:__f2 <- $r0
	@DEBUG_VALUE: __sort<(lambda at ../../../../ThirdParty/ml-embedded-evaluation-kit/source/application/api/common/source/ImageUtils.cc:78:29)>:__comp <- [DW_OP_LLVM_entry_value 1] $r2
	.loc	9 0 0 is_stmt 0                 @ Keil_v5\ARM\ARMCLANG\Bin\..\include\libcxx\forward_list:0:0
	mov	r7, r3
.Ltmp274:
	@DEBUG_VALUE: __t <- $r7
	@DEBUG_VALUE: __t <- $r7
.LBB7_27:
	@DEBUG_VALUE: __t <- $r7
	@DEBUG_VALUE: __sort<(lambda at ../../../../ThirdParty/ml-embedded-evaluation-kit/source/application/api/common/source/ImageUtils.cc:78:29)>:__sz2 <- $r6
	@DEBUG_VALUE: __merge<(lambda at ../../../../ThirdParty/ml-embedded-evaluation-kit/source/application/api/common/source/ImageUtils.cc:78:29)>:__f1 <- $r4
	@DEBUG_VALUE: __merge<(lambda at ../../../../ThirdParty/ml-embedded-evaluation-kit/source/application/api/common/source/ImageUtils.cc:78:29)>:__f2 <- $r0
	@DEBUG_VALUE: __sort<(lambda at ../../../../ThirdParty/ml-embedded-evaluation-kit/source/application/api/common/source/ImageUtils.cc:78:29)>:__comp <- [DW_OP_LLVM_entry_value 1] $r2
	@DEBUG_VALUE: __merge<(lambda at ../../../../ThirdParty/ml-embedded-evaluation-kit/source/application/api/common/source/ImageUtils.cc:78:29)>:__f2 <- $r5
	@DEBUG_VALUE: __merge<(lambda at ../../../../ThirdParty/ml-embedded-evaluation-kit/source/application/api/common/source/ImageUtils.cc:78:29)>:__r <- $r0
	.loc	9 1615 22 is_stmt 1             @ Keil_v5\ARM\ARMCLANG\Bin\..\include\libcxx\forward_list:1615:22
	str	r4, [r7]
.Ltmp275:
.LBB7_28:
	@DEBUG_VALUE: __sort<(lambda at ../../../../ThirdParty/ml-embedded-evaluation-kit/source/application/api/common/source/ImageUtils.cc:78:29)>:__sz2 <- $r6
	@DEBUG_VALUE: __merge<(lambda at ../../../../ThirdParty/ml-embedded-evaluation-kit/source/application/api/common/source/ImageUtils.cc:78:29)>:__f2 <- $r5
	@DEBUG_VALUE: __merge<(lambda at ../../../../ThirdParty/ml-embedded-evaluation-kit/source/application/api/common/source/ImageUtils.cc:78:29)>:__f1 <- $r4
	@DEBUG_VALUE: __sort<(lambda at ../../../../ThirdParty/ml-embedded-evaluation-kit/source/application/api/common/source/ImageUtils.cc:78:29)>:__comp <- [DW_OP_LLVM_entry_value 1] $r2
	@DEBUG_VALUE: __merge<(lambda at ../../../../ThirdParty/ml-embedded-evaluation-kit/source/application/api/common/source/ImageUtils.cc:78:29)>:__f1 <- undef
	@DEBUG_VALUE: __merge<(lambda at ../../../../ThirdParty/ml-embedded-evaluation-kit/source/application/api/common/source/ImageUtils.cc:78:29)>:__f2 <- $r5
	@DEBUG_VALUE: __merge<(lambda at ../../../../ThirdParty/ml-embedded-evaluation-kit/source/application/api/common/source/ImageUtils.cc:78:29)>:__r <- $r0
	@DEBUG_VALUE: __merge<(lambda at ../../../../ThirdParty/ml-embedded-evaluation-kit/source/application/api/common/source/ImageUtils.cc:78:29)>:__p <- $r4
	.loc	9 1621 28                       @ Keil_v5\ARM\ARMCLANG\Bin\..\include\libcxx\forward_list:1621:28
	cmp	r5, #0
	cset	r7, ne
	.loc	9 1621 5 is_stmt 0              @ Keil_v5\ARM\ARMCLANG\Bin\..\include\libcxx\forward_list:1621:5
	beq	.LBB7_45
.Ltmp276:
@ %bb.29:
	@DEBUG_VALUE: __sort<(lambda at ../../../../ThirdParty/ml-embedded-evaluation-kit/source/application/api/common/source/ImageUtils.cc:78:29)>:__sz2 <- $r6
	@DEBUG_VALUE: __merge<(lambda at ../../../../ThirdParty/ml-embedded-evaluation-kit/source/application/api/common/source/ImageUtils.cc:78:29)>:__f2 <- $r5
	@DEBUG_VALUE: __merge<(lambda at ../../../../ThirdParty/ml-embedded-evaluation-kit/source/application/api/common/source/ImageUtils.cc:78:29)>:__p <- $r4
	@DEBUG_VALUE: __merge<(lambda at ../../../../ThirdParty/ml-embedded-evaluation-kit/source/application/api/common/source/ImageUtils.cc:78:29)>:__r <- $r0
	@DEBUG_VALUE: __sort<(lambda at ../../../../ThirdParty/ml-embedded-evaluation-kit/source/application/api/common/source/ImageUtils.cc:78:29)>:__comp <- [DW_OP_LLVM_entry_value 1] $r2
	.loc	9 0 0                           @ Keil_v5\ARM\ARMCLANG\Bin\..\include\libcxx\forward_list:0:0
	ldr	r3, [r4]
.Ltmp277:
	@DEBUG_VALUE: __merge<(lambda at ../../../../ThirdParty/ml-embedded-evaluation-kit/source/application/api/common/source/ImageUtils.cc:78:29)>:__f1 <- $r3
	.loc	9 1621 5                        @ Keil_v5\ARM\ARMCLANG\Bin\..\include\libcxx\forward_list:1621:5
	cmp	r3, #0
	beq	.LBB7_45
.Ltmp278:
	.p2align	2
.LBB7_30:                               @ =>This Loop Header: Depth=1
                                        @     Child Loop BB7_32 Depth 2
	@DEBUG_VALUE: __merge<(lambda at ../../../../ThirdParty/ml-embedded-evaluation-kit/source/application/api/common/source/ImageUtils.cc:78:29)>:__f2 <- $r5
	@DEBUG_VALUE: __merge<(lambda at ../../../../ThirdParty/ml-embedded-evaluation-kit/source/application/api/common/source/ImageUtils.cc:78:29)>:__f1 <- $r3
	@DEBUG_VALUE: __merge<(lambda at ../../../../ThirdParty/ml-embedded-evaluation-kit/source/application/api/common/source/ImageUtils.cc:78:29)>:__r <- $r0
	@DEBUG_VALUE: __sort<(lambda at ../../../../ThirdParty/ml-embedded-evaluation-kit/source/application/api/common/source/ImageUtils.cc:78:29)>:__comp <- [DW_OP_LLVM_entry_value 1] $r2
	@DEBUG_VALUE: __merge<(lambda at ../../../../ThirdParty/ml-embedded-evaluation-kit/source/application/api/common/source/ImageUtils.cc:78:29)>:__f2 <- $r5
	@DEBUG_VALUE: operator():this <- undef
	@DEBUG_VALUE: operator():prob1 <- [DW_OP_plus_uconst 4, DW_OP_stack_value] $r5
	@DEBUG_VALUE: operator():prob2 <- [DW_OP_plus_uconst 4, DW_OP_stack_value] $r3
	@DEBUG_VALUE: operator[]:this <- [DW_OP_plus_uconst 4, DW_OP_plus_uconst 16, DW_OP_stack_value] $r5
	@DEBUG_VALUE: operator[]:__n <- $r2
	.loc	7 1550 18 is_stmt 1             @ Keil_v5\ARM\ARMCLANG\Bin\..\include\libcxx\vector:1550:18
	ldr	r1, [r5, #20]
.Ltmp279:
	.loc	7 1550 18 is_stmt 0             @ Keil_v5\ARM\ARMCLANG\Bin\..\include\libcxx\vector:1550:18
	ldr	r7, [r3, #20]
.Ltmp280:
	.loc	7 1550 12                       @ Keil_v5\ARM\ARMCLANG\Bin\..\include\libcxx\vector:1550:12
	add.w	r1, r1, r2, lsl #2
.Ltmp281:
	@DEBUG_VALUE: operator[]:__n <- $r2
	@DEBUG_VALUE: operator[]:this <- [DW_OP_plus_uconst 4, DW_OP_plus_uconst 16, DW_OP_stack_value] $r5
	.loc	7 1550 12                       @ Keil_v5\ARM\ARMCLANG\Bin\..\include\libcxx\vector:1550:12
	add.w	r7, r7, r2, lsl #2
.Ltmp282:
	.loc	22 79 20 is_stmt 1              @ ../../../../ThirdParty/ml-embedded-evaluation-kit/source/application/api/common/source/ImageUtils.cc:79:20
	vldr	s2, [r1]
	@DEBUG_VALUE: operator[]:__n <- $r2
	@DEBUG_VALUE: operator[]:this <- [DW_OP_plus_uconst 4, DW_OP_plus_uconst 16, DW_OP_stack_value] $r3
	.loc	22 79 43 is_stmt 0              @ ../../../../ThirdParty/ml-embedded-evaluation-kit/source/application/api/common/source/ImageUtils.cc:79:43
	vldr	s0, [r7]
.Ltmp283:
	.loc	9 1623 13 is_stmt 1             @ Keil_v5\ARM\ARMCLANG\Bin\..\include\libcxx\forward_list:1623:13
	vcmp.f32	s2, s0
	vmrs	APSR_nzcv, fpscr
	ble	.LBB7_43
.Ltmp284:
@ %bb.31:                               @   in Loop: Header=BB7_30 Depth=1
	@DEBUG_VALUE: operator[]:this <- [DW_OP_plus_uconst 4, DW_OP_plus_uconst 16, DW_OP_stack_value] $r5
	@DEBUG_VALUE: operator():prob1 <- [DW_OP_plus_uconst 4, DW_OP_stack_value] $r5
	@DEBUG_VALUE: __merge<(lambda at ../../../../ThirdParty/ml-embedded-evaluation-kit/source/application/api/common/source/ImageUtils.cc:78:29)>:__f2 <- $r5
	@DEBUG_VALUE: operator[]:this <- [DW_OP_plus_uconst 4, DW_OP_plus_uconst 16, DW_OP_stack_value] $r3
	@DEBUG_VALUE: operator():prob2 <- [DW_OP_plus_uconst 4, DW_OP_stack_value] $r3
	@DEBUG_VALUE: __merge<(lambda at ../../../../ThirdParty/ml-embedded-evaluation-kit/source/application/api/common/source/ImageUtils.cc:78:29)>:__f1 <- $r3
	@DEBUG_VALUE: operator[]:__n <- $r2
	@DEBUG_VALUE: operator[]:__n <- $r2
	@DEBUG_VALUE: __merge<(lambda at ../../../../ThirdParty/ml-embedded-evaluation-kit/source/application/api/common/source/ImageUtils.cc:78:29)>:__r <- $r0
	@DEBUG_VALUE: __sort<(lambda at ../../../../ThirdParty/ml-embedded-evaluation-kit/source/application/api/common/source/ImageUtils.cc:78:29)>:__comp <- [DW_OP_LLVM_entry_value 1] $r2
	.loc	9 0 0 is_stmt 0                 @ Keil_v5\ARM\ARMCLANG\Bin\..\include\libcxx\forward_list:0:0
	mov	r6, r5
.Ltmp285:
.LBB7_32:                               @   Parent Loop BB7_30 Depth=1
                                        @ =>  This Inner Loop Header: Depth=2
	@DEBUG_VALUE: __merge<(lambda at ../../../../ThirdParty/ml-embedded-evaluation-kit/source/application/api/common/source/ImageUtils.cc:78:29)>:__f2 <- $r5
	@DEBUG_VALUE: __merge<(lambda at ../../../../ThirdParty/ml-embedded-evaluation-kit/source/application/api/common/source/ImageUtils.cc:78:29)>:__f1 <- $r3
	@DEBUG_VALUE: __merge<(lambda at ../../../../ThirdParty/ml-embedded-evaluation-kit/source/application/api/common/source/ImageUtils.cc:78:29)>:__r <- $r0
	@DEBUG_VALUE: __sort<(lambda at ../../../../ThirdParty/ml-embedded-evaluation-kit/source/application/api/common/source/ImageUtils.cc:78:29)>:__comp <- [DW_OP_LLVM_entry_value 1] $r2
	@DEBUG_VALUE: __t <- $r6
	.loc	9 1626 25 is_stmt 1             @ Keil_v5\ARM\ARMCLANG\Bin\..\include\libcxx\forward_list:1626:25
	ldr	r7, [r6]
	.loc	9 1626 44 is_stmt 0             @ Keil_v5\ARM\ARMCLANG\Bin\..\include\libcxx\forward_list:1626:44
	cbz	r7, .LBB7_40
.Ltmp286:
@ %bb.33:                               @   in Loop: Header=BB7_32 Depth=2
	@DEBUG_VALUE: __t <- $r6
	@DEBUG_VALUE: __merge<(lambda at ../../../../ThirdParty/ml-embedded-evaluation-kit/source/application/api/common/source/ImageUtils.cc:78:29)>:__f2 <- $r5
	@DEBUG_VALUE: __merge<(lambda at ../../../../ThirdParty/ml-embedded-evaluation-kit/source/application/api/common/source/ImageUtils.cc:78:29)>:__f1 <- $r3
	@DEBUG_VALUE: __merge<(lambda at ../../../../ThirdParty/ml-embedded-evaluation-kit/source/application/api/common/source/ImageUtils.cc:78:29)>:__r <- $r0
	@DEBUG_VALUE: __sort<(lambda at ../../../../ThirdParty/ml-embedded-evaluation-kit/source/application/api/common/source/ImageUtils.cc:78:29)>:__comp <- [DW_OP_LLVM_entry_value 1] $r2
	@DEBUG_VALUE: operator():this <- undef
	@DEBUG_VALUE: operator():prob1 <- [DW_OP_plus_uconst 4, DW_OP_stack_value] $r7
	@DEBUG_VALUE: operator():prob2 <- [DW_OP_plus_uconst 4, DW_OP_stack_value] $r3
	@DEBUG_VALUE: operator[]:this <- [DW_OP_plus_uconst 4, DW_OP_plus_uconst 16, DW_OP_stack_value] $r7
	@DEBUG_VALUE: operator[]:__n <- $r2
	.loc	7 1550 18 is_stmt 1             @ Keil_v5\ARM\ARMCLANG\Bin\..\include\libcxx\vector:1550:18
	ldr	r1, [r7, #20]
	.loc	7 1550 12 is_stmt 0             @ Keil_v5\ARM\ARMCLANG\Bin\..\include\libcxx\vector:1550:12
	add.w	r1, r1, r2, lsl #2
.Ltmp287:
	.loc	22 79 20 is_stmt 1              @ ../../../../ThirdParty/ml-embedded-evaluation-kit/source/application/api/common/source/ImageUtils.cc:79:20
	vldr	s2, [r1]
.Ltmp288:
	@DEBUG_VALUE: operator[]:__n <- $r2
	@DEBUG_VALUE: operator[]:this <- [DW_OP_plus_uconst 4, DW_OP_plus_uconst 16, DW_OP_stack_value] $r3
	.loc	9 0 0 is_stmt 0                 @ Keil_v5\ARM\ARMCLANG\Bin\..\include\libcxx\forward_list:0:0
	mov	r1, r6
	.loc	9 1626 13 is_stmt 1             @ Keil_v5\ARM\ARMCLANG\Bin\..\include\libcxx\forward_list:1626:13
	vcmp.f32	s2, s0
	vmrs	APSR_nzcv, fpscr
	ble	.LBB7_42
.Ltmp289:
@ %bb.34:                               @   in Loop: Header=BB7_32 Depth=2
	@DEBUG_VALUE: __t <- $r6
	@DEBUG_VALUE: __merge<(lambda at ../../../../ThirdParty/ml-embedded-evaluation-kit/source/application/api/common/source/ImageUtils.cc:78:29)>:__f2 <- $r5
	@DEBUG_VALUE: __merge<(lambda at ../../../../ThirdParty/ml-embedded-evaluation-kit/source/application/api/common/source/ImageUtils.cc:78:29)>:__f1 <- $r3
	@DEBUG_VALUE: __merge<(lambda at ../../../../ThirdParty/ml-embedded-evaluation-kit/source/application/api/common/source/ImageUtils.cc:78:29)>:__r <- $r0
	@DEBUG_VALUE: __sort<(lambda at ../../../../ThirdParty/ml-embedded-evaluation-kit/source/application/api/common/source/ImageUtils.cc:78:29)>:__comp <- [DW_OP_LLVM_entry_value 1] $r2
	@DEBUG_VALUE: __t <- $r7
	.loc	9 1626 25 is_stmt 0             @ Keil_v5\ARM\ARMCLANG\Bin\..\include\libcxx\forward_list:1626:25
	ldr	r6, [r7]
	.loc	9 1626 44                       @ Keil_v5\ARM\ARMCLANG\Bin\..\include\libcxx\forward_list:1626:44
	cbz	r6, .LBB7_41
.Ltmp290:
@ %bb.35:                               @   in Loop: Header=BB7_32 Depth=2
	@DEBUG_VALUE: __t <- $r7
	@DEBUG_VALUE: __merge<(lambda at ../../../../ThirdParty/ml-embedded-evaluation-kit/source/application/api/common/source/ImageUtils.cc:78:29)>:__f2 <- $r5
	@DEBUG_VALUE: __merge<(lambda at ../../../../ThirdParty/ml-embedded-evaluation-kit/source/application/api/common/source/ImageUtils.cc:78:29)>:__f1 <- $r3
	@DEBUG_VALUE: __merge<(lambda at ../../../../ThirdParty/ml-embedded-evaluation-kit/source/application/api/common/source/ImageUtils.cc:78:29)>:__r <- $r0
	@DEBUG_VALUE: __sort<(lambda at ../../../../ThirdParty/ml-embedded-evaluation-kit/source/application/api/common/source/ImageUtils.cc:78:29)>:__comp <- [DW_OP_LLVM_entry_value 1] $r2
	@DEBUG_VALUE: operator():this <- undef
	@DEBUG_VALUE: operator():prob1 <- [DW_OP_plus_uconst 4, DW_OP_stack_value] $r6
	@DEBUG_VALUE: operator():prob2 <- [DW_OP_plus_uconst 4, DW_OP_stack_value] $r3
	@DEBUG_VALUE: operator[]:this <- [DW_OP_plus_uconst 4, DW_OP_plus_uconst 16, DW_OP_stack_value] $r6
	@DEBUG_VALUE: operator[]:__n <- $r2
	.loc	7 1550 18 is_stmt 1             @ Keil_v5\ARM\ARMCLANG\Bin\..\include\libcxx\vector:1550:18
	ldr	r1, [r6, #20]
	.loc	7 1550 12 is_stmt 0             @ Keil_v5\ARM\ARMCLANG\Bin\..\include\libcxx\vector:1550:12
	add.w	r1, r1, r2, lsl #2
.Ltmp291:
	.loc	22 79 20 is_stmt 1              @ ../../../../ThirdParty/ml-embedded-evaluation-kit/source/application/api/common/source/ImageUtils.cc:79:20
	vldr	s2, [r1]
.Ltmp292:
	@DEBUG_VALUE: operator[]:__n <- $r2
	@DEBUG_VALUE: operator[]:this <- [DW_OP_plus_uconst 4, DW_OP_plus_uconst 16, DW_OP_stack_value] $r3
	.loc	9 0 0 is_stmt 0                 @ Keil_v5\ARM\ARMCLANG\Bin\..\include\libcxx\forward_list:0:0
	mov	r1, r7
	.loc	9 1626 13 is_stmt 1             @ Keil_v5\ARM\ARMCLANG\Bin\..\include\libcxx\forward_list:1626:13
	vcmp.f32	s2, s0
	vmrs	APSR_nzcv, fpscr
	ble	.LBB7_42
.Ltmp293:
@ %bb.36:                               @   in Loop: Header=BB7_32 Depth=2
	@DEBUG_VALUE: __t <- $r7
	@DEBUG_VALUE: __merge<(lambda at ../../../../ThirdParty/ml-embedded-evaluation-kit/source/application/api/common/source/ImageUtils.cc:78:29)>:__f2 <- $r5
	@DEBUG_VALUE: __merge<(lambda at ../../../../ThirdParty/ml-embedded-evaluation-kit/source/application/api/common/source/ImageUtils.cc:78:29)>:__f1 <- $r3
	@DEBUG_VALUE: __merge<(lambda at ../../../../ThirdParty/ml-embedded-evaluation-kit/source/application/api/common/source/ImageUtils.cc:78:29)>:__r <- $r0
	@DEBUG_VALUE: __sort<(lambda at ../../../../ThirdParty/ml-embedded-evaluation-kit/source/application/api/common/source/ImageUtils.cc:78:29)>:__comp <- [DW_OP_LLVM_entry_value 1] $r2
	@DEBUG_VALUE: __t <- $r6
	.loc	9 1626 25 is_stmt 0             @ Keil_v5\ARM\ARMCLANG\Bin\..\include\libcxx\forward_list:1626:25
	ldr	r7, [r6]
	.loc	9 1626 44                       @ Keil_v5\ARM\ARMCLANG\Bin\..\include\libcxx\forward_list:1626:44
	cbz	r7, .LBB7_40
.Ltmp294:
@ %bb.37:                               @   in Loop: Header=BB7_32 Depth=2
	@DEBUG_VALUE: __t <- $r6
	@DEBUG_VALUE: __merge<(lambda at ../../../../ThirdParty/ml-embedded-evaluation-kit/source/application/api/common/source/ImageUtils.cc:78:29)>:__f2 <- $r5
	@DEBUG_VALUE: __merge<(lambda at ../../../../ThirdParty/ml-embedded-evaluation-kit/source/application/api/common/source/ImageUtils.cc:78:29)>:__f1 <- $r3
	@DEBUG_VALUE: __merge<(lambda at ../../../../ThirdParty/ml-embedded-evaluation-kit/source/application/api/common/source/ImageUtils.cc:78:29)>:__r <- $r0
	@DEBUG_VALUE: __sort<(lambda at ../../../../ThirdParty/ml-embedded-evaluation-kit/source/application/api/common/source/ImageUtils.cc:78:29)>:__comp <- [DW_OP_LLVM_entry_value 1] $r2
	@DEBUG_VALUE: operator():this <- undef
	@DEBUG_VALUE: operator():prob1 <- [DW_OP_plus_uconst 4, DW_OP_stack_value] $r7
	@DEBUG_VALUE: operator():prob2 <- [DW_OP_plus_uconst 4, DW_OP_stack_value] $r3
	@DEBUG_VALUE: operator[]:this <- [DW_OP_plus_uconst 4, DW_OP_plus_uconst 16, DW_OP_stack_value] $r7
	@DEBUG_VALUE: operator[]:__n <- $r2
	.loc	7 1550 18 is_stmt 1             @ Keil_v5\ARM\ARMCLANG\Bin\..\include\libcxx\vector:1550:18
	ldr	r1, [r7, #20]
	.loc	7 1550 12 is_stmt 0             @ Keil_v5\ARM\ARMCLANG\Bin\..\include\libcxx\vector:1550:12
	add.w	r1, r1, r2, lsl #2
.Ltmp295:
	.loc	22 79 20 is_stmt 1              @ ../../../../ThirdParty/ml-embedded-evaluation-kit/source/application/api/common/source/ImageUtils.cc:79:20
	vldr	s2, [r1]
.Ltmp296:
	@DEBUG_VALUE: operator[]:__n <- $r2
	@DEBUG_VALUE: operator[]:this <- [DW_OP_plus_uconst 4, DW_OP_plus_uconst 16, DW_OP_stack_value] $r3
	.loc	9 0 0 is_stmt 0                 @ Keil_v5\ARM\ARMCLANG\Bin\..\include\libcxx\forward_list:0:0
	mov	r1, r6
	.loc	9 1626 13 is_stmt 1             @ Keil_v5\ARM\ARMCLANG\Bin\..\include\libcxx\forward_list:1626:13
	vcmp.f32	s2, s0
	vmrs	APSR_nzcv, fpscr
	ble	.LBB7_42
.Ltmp297:
@ %bb.38:                               @   in Loop: Header=BB7_32 Depth=2
	@DEBUG_VALUE: __t <- $r6
	@DEBUG_VALUE: __merge<(lambda at ../../../../ThirdParty/ml-embedded-evaluation-kit/source/application/api/common/source/ImageUtils.cc:78:29)>:__f2 <- $r5
	@DEBUG_VALUE: __merge<(lambda at ../../../../ThirdParty/ml-embedded-evaluation-kit/source/application/api/common/source/ImageUtils.cc:78:29)>:__f1 <- $r3
	@DEBUG_VALUE: __merge<(lambda at ../../../../ThirdParty/ml-embedded-evaluation-kit/source/application/api/common/source/ImageUtils.cc:78:29)>:__r <- $r0
	@DEBUG_VALUE: __sort<(lambda at ../../../../ThirdParty/ml-embedded-evaluation-kit/source/application/api/common/source/ImageUtils.cc:78:29)>:__comp <- [DW_OP_LLVM_entry_value 1] $r2
	@DEBUG_VALUE: __t <- $r7
	.loc	9 1626 25 is_stmt 0             @ Keil_v5\ARM\ARMCLANG\Bin\..\include\libcxx\forward_list:1626:25
	ldr	r6, [r7]
	.loc	9 1626 44                       @ Keil_v5\ARM\ARMCLANG\Bin\..\include\libcxx\forward_list:1626:44
	cbz	r6, .LBB7_41
.Ltmp298:
@ %bb.39:                               @   in Loop: Header=BB7_32 Depth=2
	@DEBUG_VALUE: __t <- $r7
	@DEBUG_VALUE: __merge<(lambda at ../../../../ThirdParty/ml-embedded-evaluation-kit/source/application/api/common/source/ImageUtils.cc:78:29)>:__f2 <- $r5
	@DEBUG_VALUE: __merge<(lambda at ../../../../ThirdParty/ml-embedded-evaluation-kit/source/application/api/common/source/ImageUtils.cc:78:29)>:__f1 <- $r3
	@DEBUG_VALUE: __merge<(lambda at ../../../../ThirdParty/ml-embedded-evaluation-kit/source/application/api/common/source/ImageUtils.cc:78:29)>:__r <- $r0
	@DEBUG_VALUE: __sort<(lambda at ../../../../ThirdParty/ml-embedded-evaluation-kit/source/application/api/common/source/ImageUtils.cc:78:29)>:__comp <- [DW_OP_LLVM_entry_value 1] $r2
	@DEBUG_VALUE: operator():this <- undef
	@DEBUG_VALUE: operator():prob1 <- [DW_OP_plus_uconst 4, DW_OP_stack_value] $r6
	@DEBUG_VALUE: operator():prob2 <- [DW_OP_plus_uconst 4, DW_OP_stack_value] $r3
	@DEBUG_VALUE: operator[]:this <- [DW_OP_plus_uconst 4, DW_OP_plus_uconst 16, DW_OP_stack_value] $r6
	@DEBUG_VALUE: operator[]:__n <- $r2
	.loc	7 1550 18 is_stmt 1             @ Keil_v5\ARM\ARMCLANG\Bin\..\include\libcxx\vector:1550:18
	ldr	r1, [r6, #20]
	.loc	7 1550 12 is_stmt 0             @ Keil_v5\ARM\ARMCLANG\Bin\..\include\libcxx\vector:1550:12
	add.w	r1, r1, r2, lsl #2
.Ltmp299:
	.loc	22 79 20 is_stmt 1              @ ../../../../ThirdParty/ml-embedded-evaluation-kit/source/application/api/common/source/ImageUtils.cc:79:20
	vldr	s2, [r1]
.Ltmp300:
	@DEBUG_VALUE: operator[]:__n <- $r2
	@DEBUG_VALUE: operator[]:this <- [DW_OP_plus_uconst 4, DW_OP_plus_uconst 16, DW_OP_stack_value] $r3
	.loc	9 0 0 is_stmt 0                 @ Keil_v5\ARM\ARMCLANG\Bin\..\include\libcxx\forward_list:0:0
	mov	r1, r7
	.loc	9 1626 13 is_stmt 1             @ Keil_v5\ARM\ARMCLANG\Bin\..\include\libcxx\forward_list:1626:13
	vcmp.f32	s2, s0
	vmrs	APSR_nzcv, fpscr
	bgt	.LBB7_32
	b	.LBB7_42
.Ltmp301:
.LBB7_40:                               @   in Loop: Header=BB7_30 Depth=1
	@DEBUG_VALUE: __t <- $r6
	@DEBUG_VALUE: __merge<(lambda at ../../../../ThirdParty/ml-embedded-evaluation-kit/source/application/api/common/source/ImageUtils.cc:78:29)>:__f2 <- $r5
	@DEBUG_VALUE: __merge<(lambda at ../../../../ThirdParty/ml-embedded-evaluation-kit/source/application/api/common/source/ImageUtils.cc:78:29)>:__f1 <- $r3
	@DEBUG_VALUE: __merge<(lambda at ../../../../ThirdParty/ml-embedded-evaluation-kit/source/application/api/common/source/ImageUtils.cc:78:29)>:__r <- $r0
	@DEBUG_VALUE: __sort<(lambda at ../../../../ThirdParty/ml-embedded-evaluation-kit/source/application/api/common/source/ImageUtils.cc:78:29)>:__comp <- [DW_OP_LLVM_entry_value 1] $r2
	.loc	9 0 0 is_stmt 0                 @ Keil_v5\ARM\ARMCLANG\Bin\..\include\libcxx\forward_list:0:0
	mov	r1, r6
	b	.LBB7_42
.Ltmp302:
.LBB7_41:                               @   in Loop: Header=BB7_30 Depth=1
	@DEBUG_VALUE: __t <- $r7
	@DEBUG_VALUE: __merge<(lambda at ../../../../ThirdParty/ml-embedded-evaluation-kit/source/application/api/common/source/ImageUtils.cc:78:29)>:__f2 <- $r5
	@DEBUG_VALUE: __merge<(lambda at ../../../../ThirdParty/ml-embedded-evaluation-kit/source/application/api/common/source/ImageUtils.cc:78:29)>:__f1 <- $r3
	@DEBUG_VALUE: __merge<(lambda at ../../../../ThirdParty/ml-embedded-evaluation-kit/source/application/api/common/source/ImageUtils.cc:78:29)>:__r <- $r0
	@DEBUG_VALUE: __sort<(lambda at ../../../../ThirdParty/ml-embedded-evaluation-kit/source/application/api/common/source/ImageUtils.cc:78:29)>:__comp <- [DW_OP_LLVM_entry_value 1] $r2
	mov	r1, r7
.Ltmp303:
.LBB7_42:                               @   in Loop: Header=BB7_30 Depth=1
	@DEBUG_VALUE: __merge<(lambda at ../../../../ThirdParty/ml-embedded-evaluation-kit/source/application/api/common/source/ImageUtils.cc:78:29)>:__f2 <- $r5
	@DEBUG_VALUE: __merge<(lambda at ../../../../ThirdParty/ml-embedded-evaluation-kit/source/application/api/common/source/ImageUtils.cc:78:29)>:__f1 <- $r3
	@DEBUG_VALUE: __merge<(lambda at ../../../../ThirdParty/ml-embedded-evaluation-kit/source/application/api/common/source/ImageUtils.cc:78:29)>:__r <- $r0
	@DEBUG_VALUE: __sort<(lambda at ../../../../ThirdParty/ml-embedded-evaluation-kit/source/application/api/common/source/ImageUtils.cc:78:29)>:__comp <- [DW_OP_LLVM_entry_value 1] $r2
	.loc	9 1629 26 is_stmt 1             @ Keil_v5\ARM\ARMCLANG\Bin\..\include\libcxx\forward_list:1629:26
	str	r5, [r4]
	.loc	9 1630 25                       @ Keil_v5\ARM\ARMCLANG\Bin\..\include\libcxx\forward_list:1630:25
	ldr	r5, [r1]
.Ltmp304:
	@DEBUG_VALUE: __merge<(lambda at ../../../../ThirdParty/ml-embedded-evaluation-kit/source/application/api/common/source/ImageUtils.cc:78:29)>:__f2 <- $r5
	.loc	9 1631 26                       @ Keil_v5\ARM\ARMCLANG\Bin\..\include\libcxx\forward_list:1631:26
	str	r3, [r1]
.Ltmp305:
.LBB7_43:                               @   in Loop: Header=BB7_30 Depth=1
	@DEBUG_VALUE: __merge<(lambda at ../../../../ThirdParty/ml-embedded-evaluation-kit/source/application/api/common/source/ImageUtils.cc:78:29)>:__f2 <- $r5
	@DEBUG_VALUE: __merge<(lambda at ../../../../ThirdParty/ml-embedded-evaluation-kit/source/application/api/common/source/ImageUtils.cc:78:29)>:__f1 <- $r3
	@DEBUG_VALUE: __merge<(lambda at ../../../../ThirdParty/ml-embedded-evaluation-kit/source/application/api/common/source/ImageUtils.cc:78:29)>:__r <- $r0
	@DEBUG_VALUE: __sort<(lambda at ../../../../ThirdParty/ml-embedded-evaluation-kit/source/application/api/common/source/ImageUtils.cc:78:29)>:__comp <- [DW_OP_LLVM_entry_value 1] $r2
	@DEBUG_VALUE: __merge<(lambda at ../../../../ThirdParty/ml-embedded-evaluation-kit/source/application/api/common/source/ImageUtils.cc:78:29)>:__f1 <- undef
	@DEBUG_VALUE: __merge<(lambda at ../../../../ThirdParty/ml-embedded-evaluation-kit/source/application/api/common/source/ImageUtils.cc:78:29)>:__f2 <- $r5
	@DEBUG_VALUE: __merge<(lambda at ../../../../ThirdParty/ml-embedded-evaluation-kit/source/application/api/common/source/ImageUtils.cc:78:29)>:__p <- $r3
	.loc	9 1621 28                       @ Keil_v5\ARM\ARMCLANG\Bin\..\include\libcxx\forward_list:1621:28
	cmp	r5, #0
	.loc	9 0 0 is_stmt 0                 @ Keil_v5\ARM\ARMCLANG\Bin\..\include\libcxx\forward_list:0:0
	mov	r4, r3
	@DEBUG_VALUE: __merge<(lambda at ../../../../ThirdParty/ml-embedded-evaluation-kit/source/application/api/common/source/ImageUtils.cc:78:29)>:__f1 <- undef
	.loc	9 1621 28                       @ Keil_v5\ARM\ARMCLANG\Bin\..\include\libcxx\forward_list:1621:28
	cset	r7, ne
	.loc	9 1621 5                        @ Keil_v5\ARM\ARMCLANG\Bin\..\include\libcxx\forward_list:1621:5
	beq	.LBB7_45
.Ltmp306:
@ %bb.44:                               @   in Loop: Header=BB7_30 Depth=1
	@DEBUG_VALUE: __merge<(lambda at ../../../../ThirdParty/ml-embedded-evaluation-kit/source/application/api/common/source/ImageUtils.cc:78:29)>:__f2 <- $r5
	@DEBUG_VALUE: __merge<(lambda at ../../../../ThirdParty/ml-embedded-evaluation-kit/source/application/api/common/source/ImageUtils.cc:78:29)>:__p <- $r3
	@DEBUG_VALUE: __merge<(lambda at ../../../../ThirdParty/ml-embedded-evaluation-kit/source/application/api/common/source/ImageUtils.cc:78:29)>:__r <- $r0
	@DEBUG_VALUE: __sort<(lambda at ../../../../ThirdParty/ml-embedded-evaluation-kit/source/application/api/common/source/ImageUtils.cc:78:29)>:__comp <- [DW_OP_LLVM_entry_value 1] $r2
	.loc	9 0 0                           @ Keil_v5\ARM\ARMCLANG\Bin\..\include\libcxx\forward_list:0:0
	ldr	r3, [r3]
.Ltmp307:
	@DEBUG_VALUE: __merge<(lambda at ../../../../ThirdParty/ml-embedded-evaluation-kit/source/application/api/common/source/ImageUtils.cc:78:29)>:__f1 <- $r3
	.loc	9 1621 5                        @ Keil_v5\ARM\ARMCLANG\Bin\..\include\libcxx\forward_list:1621:5
	cbz	r3, .LBB7_45
	le	.LBB7_30
.Ltmp308:
.LBB7_45:
	@DEBUG_VALUE: __merge<(lambda at ../../../../ThirdParty/ml-embedded-evaluation-kit/source/application/api/common/source/ImageUtils.cc:78:29)>:__f2 <- $r5
	@DEBUG_VALUE: __merge<(lambda at ../../../../ThirdParty/ml-embedded-evaluation-kit/source/application/api/common/source/ImageUtils.cc:78:29)>:__r <- $r0
	@DEBUG_VALUE: __sort<(lambda at ../../../../ThirdParty/ml-embedded-evaluation-kit/source/application/api/common/source/ImageUtils.cc:78:29)>:__comp <- [DW_OP_LLVM_entry_value 1] $r2
	.loc	9 1636 9 is_stmt 1              @ Keil_v5\ARM\ARMCLANG\Bin\..\include\libcxx\forward_list:1636:9
	lsls	r1, r7, #31
.Ltmp309:
	.loc	9 1637 22                       @ Keil_v5\ARM\ARMCLANG\Bin\..\include\libcxx\forward_list:1637:22
	it	ne
	strne	r5, [r4]
.Ltmp310:
.LBB7_46:
	.loc	9 1679 1                        @ Keil_v5\ARM\ARMCLANG\Bin\..\include\libcxx\forward_list:1679:1
	add	sp, #4
	pop	{r4, r5, r6, r7, pc}
.Ltmp311:
.Lfunc_end7:
	.size	_ZNSt3__212forward_listIN3arm3app5image9DetectionENS_9allocatorIS4_EEE6__sortIZNS3_12CalculateNMSERS7_ifE3$_0EEPNS_19__forward_list_nodeIS4_PvEESE_iRT_, .Lfunc_end7-_ZNSt3__212forward_listIN3arm3app5image9DetectionENS_9allocatorIS4_EEE6__sortIZNS3_12CalculateNMSERS7_ifE3$_0EEPNS_19__forward_list_nodeIS4_PvEESE_iRT_
	.cfi_endproc
	.cantunwind
	.fnend
                                        @ -- End function