	.text
	.syntax unified
	.eabi_attribute	67, "2.09"	@ Tag_conformance
	.cpu	cortex-m55
	.eabi_attribute	6, 21	@ Tag_CPU_arch
	.eabi_attribute	7, 77	@ Tag_CPU_arch_profile
	.eabi_attribute	8, 0	@ Tag_ARM_ISA_use
	.eabi_attribute	9, 3	@ Tag_THUMB_ISA_use
	.fpu	fpv5-d16
	.eabi_attribute	36, 1	@ Tag_FP_HP_extension
	.eabi_attribute	48, 2	@ Tag_MVE_arch
	.eabi_attribute	46, 1	@ Tag_DSP_extension
	.eabi_attribute	34, 1	@ Tag_CPU_unaligned_access
	.eabi_attribute	17, 1	@ Tag_ABI_PCS_GOT_use
	.eabi_attribute	20, 2	@ Tag_ABI_FP_denormal
	.eabi_attribute	21, 0	@ Tag_ABI_FP_exceptions
	.eabi_attribute	23, 1	@ Tag_ABI_FP_number_model
	.eabi_attribute	24, 1	@ Tag_ABI_align_needed
	.eabi_attribute	25, 1	@ Tag_ABI_align_preserved
	.eabi_attribute	28, 1	@ Tag_ABI_VFP_args
	.eabi_attribute	38, 1	@ Tag_ABI_FP_16bit_format
	.eabi_attribute	18, 2	@ Tag_ABI_PCS_wchar_t
	.eabi_attribute	26, 1	@ Tag_ABI_enum_size
	.eabi_attribute	14, 0	@ Tag_ABI_PCS_R9_use
	.file	"Profiler.cc"
	.file	1 "C:\\" "Keil_v5\\ARM\\ARMCLANG\\Bin\\..\\include\\libcxx\\utility"
	.file	2 "C:\\" "Keil_v5\\ARM\\ARMCLANG\\Bin\\..\\include\\libcxx\\__string"
	.file	3 "C:\\" "Keil_v5\\ARM\\ARMCLANG\\Bin\\..\\include\\stdio.h"
	.file	4 "C:\\" "Keil_v5\\ARM\\ARMCLANG\\Bin\\..\\include\\libcxx\\memory"
	.file	5 "C:\\" "Keil_v5\\ARM\\ARMCLANG\\Bin\\..\\include\\stdlib.h"
	.file	6 "C:\\" "Keil_v5\\ARM\\ARMCLANG\\Bin\\..\\include\\libcxx\\string"
	.file	7 "C:\\" "Keil_v5\\ARM\\ARMCLANG\\Bin\\..\\include\\libcxx\\__memory\\allocator_traits.h"
	.file	8 "C:\\" "Keil_v5\\ARM\\ARMCLANG\\Bin\\..\\include\\libcxx\\string_view"
	.file	9 "C:\\" "Keil_v5\\ARM\\ARMCLANG\\Bin\\..\\include\\libcxx\\type_traits"
	.file	10 "C:\\" "Keil_v5\\ARM\\ARMCLANG\\Bin\\..\\include\\libcxx\\limits"
	.file	11 "C:\\" "Keil_v5\\ARM\\ARMCLANG\\Bin\\..\\include\\libcxx\\iosfwd"
	.file	12 "C:\\Users\\CYCHEN38\\OpenNuvoton\\firmware\\M55M1BSP\\SampleCode\\MachineLearning\\ObjectDetection_FreeRTOS_yoloxn\\KEIL" "../../../../ThirdParty/ml-embedded-evaluation-kit/source/profiler/include\\Profiler.hpp"
	.file	13 "C:\\" "Keil_v5\\ARM\\ARMCLANG\\Bin\\..\\include\\stdint.h"
	.file	14 "C:\\" "Keil_v5\\ARM\\ARMCLANG\\Bin\\..\\include\\libcxx\\vector"
	.file	15 "C:\\" "Keil_v5\\ARM\\ARMCLANG\\Bin\\..\\include\\libcxx\\iterator"
	.file	16 "C:\\" "Keil_v5\\ARM\\ARMCLANG\\Bin\\..\\include\\stddef.h"
	.file	17 "C:\\" "Keil_v5\\ARM\\ARMCLANG\\Bin\\..\\include\\libcxx\\__split_buffer"
	.file	18 "C:\\" "Keil_v5\\ARM\\ARMCLANG\\Bin\\..\\include\\libcxx\\__functional_base"
	.file	19 "C:\\" "Keil_v5\\ARM\\ARMCLANG\\Bin\\..\\include\\libcxx\\map"
	.file	20 "C:\\" "Keil_v5\\ARM\\ARMCLANG\\Bin\\..\\include\\libcxx\\__tree"
	.file	21 "C:\\" "Keil_v5\\ARM\\ARMCLANG\\Bin\\..\\include\\libcxx\\__memory\\pointer_traits.h"
	.file	22 "C:\\" "Keil_v5\\ARM\\ARMCLANG\\Bin\\..\\include\\libcxx\\__nullptr"
	.file	23 "C:\\" "Keil_v5\\ARM\\ARMCLANG\\Bin\\..\\include\\libcxx\\__tuple"
	.file	24 "C:\\" "Keil_v5\\ARM\\ARMCLANG\\Bin\\..\\include\\libcxx\\tuple"
	.file	25 "C:\\" "Keil_v5\\ARM\\ARMCLANG\\Bin\\..\\include\\libcxx\\cstddef"
	.file	26 "C:\\" "Keil_v5\\ARM\\ARMCLANG\\Bin\\..\\include\\string.h"
	.file	27 "C:\\" "Keil_v5\\ARM\\ARMCLANG\\Bin\\..\\include\\libcxx\\cstring"
	.file	28 "C:\\" "Keil_v5\\ARM\\ARMCLANG\\Bin\\..\\include\\libcxx\\string.h"
	.file	29 "C:\\" "Keil_v5\\ARM\\ARMCLANG\\Bin\\..\\include\\libcxx\\cstdint"
	.file	30 "C:\\" "Keil_v5\\ARM\\ARMCLANG\\Bin\\..\\include\\libcxx\\stddef.h"
	.file	31 "C:\\" "Keil_v5\\ARM\\ARMCLANG\\Bin\\..\\include\\wchar.h"
	.file	32 "C:\\" "Keil_v5\\ARM\\ARMCLANG\\Bin\\..\\include\\libcxx\\cstdlib"
	.file	33 "C:\\" "Keil_v5\\ARM\\ARMCLANG\\Bin\\..\\include\\libcxx\\stdlib.h"
	.file	34 "C:\\" "Keil_v5\\ARM\\ARMCLANG\\Bin\\..\\include\\libcxx\\cstdio"
	.file	35 "C:\\" "Keil_v5\\ARM\\ARMCLANG\\Bin\\..\\include\\ctype.h"
	.file	36 "C:\\" "Keil_v5\\ARM\\ARMCLANG\\Bin\\..\\include\\libcxx\\cctype"
	.file	37 "C:\\" "Keil_v5\\ARM\\ARMCLANG\\Bin\\..\\include\\wctype.h"
	.file	38 "C:\\" "Keil_v5\\ARM\\ARMCLANG\\Bin\\..\\include\\libcxx\\cwctype"
	.file	39 "C:\\" "Keil_v5\\ARM\\ARMCLANG\\Bin\\..\\include\\libcxx\\cwchar"
	.file	40 "C:\\" "Keil_v5\\ARM\\ARMCLANG\\Bin\\..\\include\\libcxx\\wchar.h"
	.section	.text._ZN3arm3app8ProfilerC2Ev,"ax",%progbits
	.hidden	_ZN3arm3app8ProfilerC2Ev        @ -- Begin function _ZN3arm3app8ProfilerC2Ev
	.globl	_ZN3arm3app8ProfilerC2Ev
	.p2align	2
	.type	_ZN3arm3app8ProfilerC2Ev,%function
	.code	16                              @ @_ZN3arm3app8ProfilerC2Ev
	.thumb_func
_ZN3arm3app8ProfilerC2Ev:
.Lfunc_begin0:
	.file	41 "C:\\Users\\CYCHEN38\\OpenNuvoton\\firmware\\M55M1BSP\\SampleCode\\MachineLearning\\ObjectDetection_FreeRTOS_yoloxn\\KEIL" "../../../../ThirdParty/ml-embedded-evaluation-kit/source/profiler/Profiler.cc"
	.loc	41 27 0                         @ ../../../../ThirdParty/ml-embedded-evaluation-kit/source/profiler/Profiler.cc:27:0
	.fnstart
	.cfi_sections .debug_frame
	.cfi_startproc
@ %bb.0:
	@DEBUG_VALUE: Profiler:this <- $r0
	@DEBUG_VALUE: Profiler:this <- $r0
	@DEBUG_VALUE: map:this <- $r0
	@DEBUG_VALUE: __tree:this <- $r0
	@DEBUG_VALUE: __compressed_pair<true, void>:this <- [DW_OP_plus_uconst 4, DW_OP_stack_value] $r0
	@DEBUG_VALUE: __compressed_pair_elem:this <- [DW_OP_plus_uconst 4, DW_OP_stack_value] $r0
	@DEBUG_VALUE: __tree_end_node:this <- [DW_OP_plus_uconst 4, DW_OP_stack_value] $r0
	.save	{r4, r5, r6, lr}
	push	{r4, r5, r6, lr}
	.cfi_def_cfa_offset 16
	.cfi_offset lr, -4
	.cfi_offset r6, -8
	.cfi_offset r5, -12
	.cfi_offset r4, -16
	movs	r6, #0
	@DEBUG_VALUE: __tree_end_node:this <- [DW_OP_plus_uconst 4, DW_OP_stack_value] $r4
	@DEBUG_VALUE: __compressed_pair_elem:this <- [DW_OP_plus_uconst 4, DW_OP_stack_value] $r4
	@DEBUG_VALUE: __compressed_pair<true, void>:this <- [DW_OP_plus_uconst 4, DW_OP_stack_value] $r4
	@DEBUG_VALUE: __tree:this <- $r4
	@DEBUG_VALUE: map:this <- $r4
	@DEBUG_VALUE: Profiler:this <- $r4
.Ltmp0:
	@DEBUG_VALUE: Profiler:this <- $r4
	mov	r4, r0
.Ltmp1:
	@DEBUG_VALUE: __tree:__comp <- undef
	.loc	20 713 35 prologue_end          @ Keil_v5\ARM\ARMCLANG\Bin\..\include\libcxx\__tree:713:35
	str	r6, [r0, #4]!
.Ltmp2:
	@DEBUG_VALUE: __compressed_pair_elem<int, void>:__u <- undef
	@DEBUG_VALUE: __compressed_pair_elem<int, void>:this <- [DW_OP_plus_uconst 8, DW_OP_stack_value] $r4
	@DEBUG_VALUE: __compressed_pair<int, const std::__map_value_compare<std::string, std::__value_type<std::string, std::vector<arm::app::Statistics> >, std::less<std::string>, true> &>:__t2 <- undef
	@DEBUG_VALUE: __compressed_pair<int, const std::__map_value_compare<std::string, std::__value_type<std::string, std::vector<arm::app::Statistics> >, std::less<std::string>, true> &>:__t1 <- undef
	@DEBUG_VALUE: __compressed_pair<int, const std::__map_value_compare<std::string, std::__value_type<std::string, std::vector<arm::app::Statistics> >, std::less<std::string>, true> &>:this <- [DW_OP_plus_uconst 8, DW_OP_stack_value] $r4
	.loc	12 102 38                       @ ../../../../ThirdParty/ml-embedded-evaluation-kit/source/profiler/include\Profiler.hpp:102:38
	movs	r1, #165
.Ltmp3:
	.loc	20 1543 20                      @ Keil_v5\ARM\ARMCLANG\Bin\..\include\libcxx\__tree:1543:20
	str	r0, [r4]
.Ltmp4:
	.loc	12 102 28                       @ ../../../../ThirdParty/ml-embedded-evaluation-kit/source/profiler/include\Profiler.hpp:102:28
	add.w	r0, r4, #16
.Ltmp5:
	.loc	4 1229 9                        @ Keil_v5\ARM\ARMCLANG\Bin\..\include\libcxx\memory:1229:9
	str	r6, [r4, #8]
.Ltmp6:
	@DEBUG_VALUE: __begin_node:this <- $r4
	@DEBUG_VALUE: __get:this <- [DW_OP_plus_uconst 4, DW_OP_stack_value] $r4
	@DEBUG_VALUE: first:this <- [DW_OP_plus_uconst 4, DW_OP_stack_value] $r4
	@DEBUG_VALUE: __end_node:this <- $r4
	.loc	12 103 28                       @ ../../../../ThirdParty/ml-embedded-evaluation-kit/source/profiler/include\Profiler.hpp:103:28
	add.w	r5, r4, #184
	.loc	12 104 28                       @ ../../../../ThirdParty/ml-embedded-evaluation-kit/source/profiler/include\Profiler.hpp:104:28
	strb.w	r6, [r4, #352]
	.loc	12 102 38                       @ ../../../../ThirdParty/ml-embedded-evaluation-kit/source/profiler/include\Profiler.hpp:102:38
	bl	__aeabi_memclr8
.Ltmp7:
	.loc	12 103 39                       @ ../../../../ThirdParty/ml-embedded-evaluation-kit/source/profiler/include\Profiler.hpp:103:39
	mov	r0, r5
	movs	r1, #165
	bl	__aeabi_memclr8
.Ltmp8:
	.loc	12 0 39 is_stmt 0               @ ../../../../ThirdParty/ml-embedded-evaluation-kit/source/profiler/include\Profiler.hpp:0:39
	movs	r0, #7
.Ltmp9:
	@DEBUG_VALUE: __set_short_size:this <- [DW_OP_plus_uconst 356, DW_OP_stack_value] $r4
	@DEBUG_VALUE: __init:this <- [DW_OP_plus_uconst 356, DW_OP_stack_value] $r4
	@DEBUG_VALUE: __set_short_size:__s <- 7
	@DEBUG_VALUE: __init:__sz <- 7
	@DEBUG_VALUE: basic_string<nullptr_t>:this <- [DW_OP_plus_uconst 356, DW_OP_stack_value] $r4
	.loc	2 363 73 is_stmt 1              @ Keil_v5\ARM\ARMCLANG\Bin\..\include\libcxx\__string:363:73
	strb.w	r6, [r4, #363]
.Ltmp10:
	@DEBUG_VALUE: __init:__p <- [DW_OP_plus_uconst 356, DW_OP_stack_value] $r4
	@DEBUG_VALUE: __init:this <- [DW_OP_plus_uconst 356, DW_OP_stack_value] $r4
	@DEBUG_VALUE: __init:__sz <- 7
	@DEBUG_VALUE: basic_string<nullptr_t>:this <- [DW_OP_plus_uconst 356, DW_OP_stack_value] $r4
	@DEBUG_VALUE: Profiler:this <- $r4
	.loc	6 1489 35                       @ Keil_v5\ARM\ARMCLANG\Bin\..\include\libcxx\string:1489:35
	strb.w	r0, [r4, #367]
	movw	r0, #28245
	movt	r0, #28267
.Ltmp11:
	@DEBUG_VALUE: copy:__s1 <- [DW_OP_plus_uconst 356, DW_OP_stack_value] $r4
	@DEBUG_VALUE: __init:__p <- [DW_OP_plus_uconst 356, DW_OP_stack_value] $r4
	@DEBUG_VALUE: copy:__n <- 7
	@DEBUG_VALUE: __get_short_pointer:this <- [DW_OP_plus_uconst 356, DW_OP_stack_value] $r4
	.loc	2 388 56                        @ Keil_v5\ARM\ARMCLANG\Bin\..\include\libcxx\__string:388:56
	str.w	r0, [r4, #356]
	movw	r0, #28526
	movt	r0, #28279
	str.w	r0, [r4, #359]
.Ltmp12:
	@DEBUG_VALUE: assign:__c2 <- undef
	@DEBUG_VALUE: copy:__s2 <- undef
	@DEBUG_VALUE: __init:__s <- undef
	@DEBUG_VALUE: length:__s <- undef
	@DEBUG_VALUE: basic_string<nullptr_t>:__s <- undef
	@DEBUG_VALUE: Profiler:name <- undef
	.loc	41 27 6                         @ ../../../../ThirdParty/ml-embedded-evaluation-kit/source/profiler/Profiler.cc:27:6
	mov	r0, r4
.Ltmp13:
	@DEBUG_VALUE: Profiler:this <- $r0
	@DEBUG_VALUE: assign:__c1 <- [DW_OP_plus_uconst 363, DW_OP_stack_value] $r4
	pop	{r4, r5, r6, pc}
.Ltmp14:
.Lfunc_end0:
	.size	_ZN3arm3app8ProfilerC2Ev, .Lfunc_end0-_ZN3arm3app8ProfilerC2Ev
	.cfi_endproc
	.file	42 "C:\\Users\\CYCHEN38\\OpenNuvoton\\firmware\\M55M1BSP\\SampleCode\\MachineLearning\\ObjectDetection_FreeRTOS_yoloxn\\KEIL" "../ProfilerCounter/include\\pmu_counter.h"
	.cantunwind
	.fnend
                                        @ -- End function
	.section	.text._ZN3arm3app8ProfilerC2EPKc,"ax",%progbits
	.hidden	_ZN3arm3app8ProfilerC2EPKc      @ -- Begin function _ZN3arm3app8ProfilerC2EPKc
	.globl	_ZN3arm3app8ProfilerC2EPKc
	.p2align	2
	.type	_ZN3arm3app8ProfilerC2EPKc,%function
	.code	16                              @ @_ZN3arm3app8ProfilerC2EPKc
	.thumb_func
_ZN3arm3app8ProfilerC2EPKc:
.Lfunc_begin1:
	.loc	41 31 0                         @ ../../../../ThirdParty/ml-embedded-evaluation-kit/source/profiler/Profiler.cc:31:0
	.fnstart
	.cfi_startproc
@ %bb.0:
	@DEBUG_VALUE: Profiler:this <- $r0
	@DEBUG_VALUE: Profiler:name <- $r1
	@DEBUG_VALUE: map:this <- $r0
	@DEBUG_VALUE: __tree:this <- $r0
	@DEBUG_VALUE: __compressed_pair<true, void>:this <- [DW_OP_plus_uconst 4, DW_OP_stack_value] $r0
	@DEBUG_VALUE: __compressed_pair_elem:this <- [DW_OP_plus_uconst 4, DW_OP_stack_value] $r0
	@DEBUG_VALUE: __tree_end_node:this <- [DW_OP_plus_uconst 4, DW_OP_stack_value] $r0
	.save	{r4, r5, r6, r7, r8, lr}
	push.w	{r4, r5, r6, r7, r8, lr}
	.cfi_def_cfa_offset 24
	.cfi_offset lr, -4
	.cfi_offset r8, -8
	.cfi_offset r7, -12
	.cfi_offset r6, -16
	.cfi_offset r5, -20
	.cfi_offset r4, -24
	mov	r8, r1
.Ltmp15:
	@DEBUG_VALUE: Profiler:name <- $r8
	movs	r1, #0
	@DEBUG_VALUE: __tree_end_node:this <- [DW_OP_plus_uconst 4, DW_OP_stack_value] $r4
	@DEBUG_VALUE: __compressed_pair_elem:this <- [DW_OP_plus_uconst 4, DW_OP_stack_value] $r4
	@DEBUG_VALUE: __compressed_pair<true, void>:this <- [DW_OP_plus_uconst 4, DW_OP_stack_value] $r4
	@DEBUG_VALUE: __tree:this <- $r4
	@DEBUG_VALUE: map:this <- $r4
	@DEBUG_VALUE: Profiler:name <- $r8
.Ltmp16:
	@DEBUG_VALUE: Profiler:this <- $r4
	mov	r4, r0
.Ltmp17:
	@DEBUG_VALUE: __tree:__comp <- undef
	.loc	20 713 35 prologue_end          @ Keil_v5\ARM\ARMCLANG\Bin\..\include\libcxx\__tree:713:35
	str	r1, [r0, #4]!
.Ltmp18:
	@DEBUG_VALUE: __compressed_pair_elem<int, void>:__u <- undef
	@DEBUG_VALUE: __compressed_pair_elem<int, void>:this <- [DW_OP_plus_uconst 8, DW_OP_stack_value] $r4
	@DEBUG_VALUE: __compressed_pair<int, const std::__map_value_compare<std::string, std::__value_type<std::string, std::vector<arm::app::Statistics> >, std::less<std::string>, true> &>:__t2 <- undef
	@DEBUG_VALUE: __compressed_pair<int, const std::__map_value_compare<std::string, std::__value_type<std::string, std::vector<arm::app::Statistics> >, std::less<std::string>, true> &>:__t1 <- undef
	@DEBUG_VALUE: __compressed_pair<int, const std::__map_value_compare<std::string, std::__value_type<std::string, std::vector<arm::app::Statistics> >, std::less<std::string>, true> &>:this <- [DW_OP_plus_uconst 8, DW_OP_stack_value] $r4
	.loc	4 1229 9                        @ Keil_v5\ARM\ARMCLANG\Bin\..\include\libcxx\memory:1229:9
	str	r1, [r4, #8]
.Ltmp19:
	@DEBUG_VALUE: __begin_node:this <- $r4
	@DEBUG_VALUE: __get:this <- [DW_OP_plus_uconst 4, DW_OP_stack_value] $r4
	@DEBUG_VALUE: first:this <- [DW_OP_plus_uconst 4, DW_OP_stack_value] $r4
	@DEBUG_VALUE: __end_node:this <- $r4
	.loc	12 103 28                       @ ../../../../ThirdParty/ml-embedded-evaluation-kit/source/profiler/include\Profiler.hpp:103:28
	add.w	r7, r4, #184
.Ltmp20:
	.loc	20 1543 20                      @ Keil_v5\ARM\ARMCLANG\Bin\..\include\libcxx\__tree:1543:20
	str	r0, [r4]
.Ltmp21:
	.loc	12 102 28                       @ ../../../../ThirdParty/ml-embedded-evaluation-kit/source/profiler/include\Profiler.hpp:102:28
	add.w	r0, r4, #16
	.loc	12 104 28                       @ ../../../../ThirdParty/ml-embedded-evaluation-kit/source/profiler/include\Profiler.hpp:104:28
	strb.w	r1, [r4, #352]
	.loc	12 102 38                       @ ../../../../ThirdParty/ml-embedded-evaluation-kit/source/profiler/include\Profiler.hpp:102:38
	movs	r1, #165
	.loc	41 30 11                        @ ../../../../ThirdParty/ml-embedded-evaluation-kit/source/profiler/Profiler.cc:30:11
	add.w	r6, r4, #356
	.loc	12 102 38                       @ ../../../../ThirdParty/ml-embedded-evaluation-kit/source/profiler/include\Profiler.hpp:102:38
	bl	__aeabi_memclr8
.Ltmp22:
	.loc	12 103 39                       @ ../../../../ThirdParty/ml-embedded-evaluation-kit/source/profiler/include\Profiler.hpp:103:39
	mov	r0, r7
	movs	r1, #165
	bl	__aeabi_memclr8
.Ltmp23:
	@DEBUG_VALUE: length:__s <- $r8
	@DEBUG_VALUE: basic_string<nullptr_t>:__s <- $r8
	@DEBUG_VALUE: basic_string<nullptr_t>:this <- $r6
	.loc	2 372 53                        @ Keil_v5\ARM\ARMCLANG\Bin\..\include\libcxx\__string:372:53
	mov	r0, r8
	bl	strlen
.Ltmp24:
	@DEBUG_VALUE: __init:__s <- $r8
	@DEBUG_VALUE: __init:this <- undef
	@DEBUG_VALUE: __init:__sz <- $r0
	.loc	6 1861 9                        @ Keil_v5\ARM\ARMCLANG\Bin\..\include\libcxx\string:1861:9
	cmn.w	r0, #16
	bhs	.LBB1_6
.Ltmp25:
@ %bb.1:
	@DEBUG_VALUE: __init:__s <- $r8
	@DEBUG_VALUE: basic_string<nullptr_t>:__s <- $r8
	@DEBUG_VALUE: Profiler:name <- $r8
	@DEBUG_VALUE: basic_string<nullptr_t>:this <- $r6
	@DEBUG_VALUE: __init:__sz <- $r0
	.loc	6 0 0 is_stmt 0                 @ Keil_v5\ARM\ARMCLANG\Bin\..\include\libcxx\string:0:0
	mov	r7, r0
.Ltmp26:
	@DEBUG_VALUE: __init:__sz <- $r7
	.loc	6 1864 9 is_stmt 1              @ Keil_v5\ARM\ARMCLANG\Bin\..\include\libcxx\string:1864:9
	cmp	r0, #11
	bhs	.LBB1_3
.Ltmp27:
@ %bb.2:
	@DEBUG_VALUE: __init:__s <- $r8
	@DEBUG_VALUE: basic_string<nullptr_t>:__s <- $r8
	@DEBUG_VALUE: Profiler:name <- $r8
	@DEBUG_VALUE: __init:__sz <- $r7
	@DEBUG_VALUE: basic_string<nullptr_t>:this <- $r6
	@DEBUG_VALUE: __set_short_size:__s <- $r7
	@DEBUG_VALUE: __set_short_size:this <- $r6
	.loc	6 1489 35                       @ Keil_v5\ARM\ARMCLANG\Bin\..\include\libcxx\string:1489:35
	strb	r7, [r6, #11]
	@DEBUG_VALUE: copy:__s1 <- undef
.Ltmp28:
	@DEBUG_VALUE: __get_short_pointer:this <- $r6
	@DEBUG_VALUE: copy:__n <- $r7
	@DEBUG_VALUE: copy:__s2 <- $r8
	@DEBUG_VALUE: __init:__p <- undef
	.loc	6 0 35 is_stmt 0                @ Keil_v5\ARM\ARMCLANG\Bin\..\include\libcxx\string:0:35
	cbnz	r7, .LBB1_4
	b	.LBB1_5
.Ltmp29:
.LBB1_3:
	@DEBUG_VALUE: __init:__s <- $r8
	@DEBUG_VALUE: basic_string<nullptr_t>:__s <- $r8
	@DEBUG_VALUE: Profiler:name <- $r8
	@DEBUG_VALUE: __init:__sz <- $r7
	@DEBUG_VALUE: basic_string<nullptr_t>:this <- $r6
	@DEBUG_VALUE: __recommend:__s <- $r7
	.loc	6 1575 13 is_stmt 1             @ Keil_v5\ARM\ARMCLANG\Bin\..\include\libcxx\string:1575:13
	add.w	r0, r7, #16
	bic	r5, r0, #15
.Ltmp30:
	@DEBUG_VALUE: __libcpp_allocate:__align <- 1
	@DEBUG_VALUE: allocate:this <- undef
	@DEBUG_VALUE: allocate:__a <- undef
	@DEBUG_VALUE: __libcpp_operator_new<unsigned int>:__args <- $r5
	@DEBUG_VALUE: __libcpp_allocate:__size <- $r5
	@DEBUG_VALUE: allocate:__n <- $r5
	@DEBUG_VALUE: allocate:__n <- $r5
	@DEBUG_VALUE: __cap <- [DW_OP_constu 1, DW_OP_minus, DW_OP_stack_value] $r5
	.file	43 "C:\\" "Keil_v5\\ARM\\ARMCLANG\\Bin\\..\\include\\libcxx\\new"
	.loc	43 241 10                       @ Keil_v5\ARM\ARMCLANG\Bin\..\include\libcxx\new:241:10
	mov	r0, r5
	bl	_Znwj
.Ltmp31:
	mov	r6, r0
.Ltmp32:
	@DEBUG_VALUE: __set_long_cap:__s <- $r5
	@DEBUG_VALUE: __set_long_cap:this <- $r6
	@DEBUG_VALUE: __init:__p <- $r6
	.loc	6 1532 49                       @ Keil_v5\ARM\ARMCLANG\Bin\..\include\libcxx\string:1532:49
	orr	r0, r5, #-2147483648
.Ltmp33:
	@DEBUG_VALUE: __set_long_pointer:this <- $r6
	@DEBUG_VALUE: __set_long_pointer:__p <- $r6
	@DEBUG_VALUE: __set_long_size:__s <- $r7
	@DEBUG_VALUE: __set_long_size:this <- $r6
	.loc	6 1539 35                       @ Keil_v5\ARM\ARMCLANG\Bin\..\include\libcxx\string:1539:35
	strd	r6, r7, [r4, #356]
.Ltmp34:
	.loc	6 1532 35                       @ Keil_v5\ARM\ARMCLANG\Bin\..\include\libcxx\string:1532:35
	str.w	r0, [r4, #364]
.Ltmp35:
	@DEBUG_VALUE: copy:__n <- $r7
	@DEBUG_VALUE: copy:__s2 <- $r8
	@DEBUG_VALUE: __set_long_cap:this <- $r6
.LBB1_4:
	@DEBUG_VALUE: copy:__s2 <- $r8
	@DEBUG_VALUE: __init:__s <- $r8
	@DEBUG_VALUE: basic_string<nullptr_t>:__s <- $r8
	@DEBUG_VALUE: Profiler:name <- $r8
	@DEBUG_VALUE: copy:__n <- $r7
	@DEBUG_VALUE: __init:__sz <- $r7
	.loc	2 388 56                        @ Keil_v5\ARM\ARMCLANG\Bin\..\include\libcxx\__string:388:56
	mov	r0, r6
	mov	r1, r8
	mov	r2, r7
	bl	__aeabi_memcpy
.Ltmp36:
.LBB1_5:
	@DEBUG_VALUE: __init:__s <- $r8
	@DEBUG_VALUE: basic_string<nullptr_t>:__s <- $r8
	@DEBUG_VALUE: Profiler:name <- $r8
	@DEBUG_VALUE: __init:__sz <- $r7
	@DEBUG_VALUE: assign:__c1 <- undef
	@DEBUG_VALUE: assign:__c2 <- undef
	.loc	2 0 56 is_stmt 0                @ Keil_v5\ARM\ARMCLANG\Bin\..\include\libcxx\__string:0:56
	movs	r1, #0
	.loc	41 31 6 is_stmt 1               @ ../../../../ThirdParty/ml-embedded-evaluation-kit/source/profiler/Profiler.cc:31:6
	mov	r0, r4
.Ltmp37:
	.loc	2 363 73                        @ Keil_v5\ARM\ARMCLANG\Bin\..\include\libcxx\__string:363:73
	strb	r1, [r6, r7]
.Ltmp38:
	.loc	41 31 6                         @ ../../../../ThirdParty/ml-embedded-evaluation-kit/source/profiler/Profiler.cc:31:6
	pop.w	{r4, r5, r6, r7, r8, pc}
.Ltmp39:
.LBB1_6:
	@DEBUG_VALUE: __init:__s <- $r8
	@DEBUG_VALUE: basic_string<nullptr_t>:__s <- $r8
	@DEBUG_VALUE: Profiler:name <- $r8
	@DEBUG_VALUE: basic_string<nullptr_t>:this <- $r6
	@DEBUG_VALUE: __init:__sz <- $r0
	.loc	6 1862 15                       @ Keil_v5\ARM\ARMCLANG\Bin\..\include\libcxx\string:1862:15
	mov	r0, r6
.Ltmp40:
	@DEBUG_VALUE: basic_string<nullptr_t>:this <- $r0
	bl	_ZNKSt3__221__basic_string_commonILb1EE20__throw_length_errorEv
.Ltmp41:
.Lfunc_end1:
	.size	_ZN3arm3app8ProfilerC2EPKc, .Lfunc_end1-_ZN3arm3app8ProfilerC2EPKc
	.cfi_endproc
	.cantunwind
	.fnend
                                        @ -- End function
	.section	.text._ZN3arm3app8Profiler14StartProfilingEPKc,"ax",%progbits
	.hidden	_ZN3arm3app8Profiler14StartProfilingEPKc @ -- Begin function _ZN3arm3app8Profiler14StartProfilingEPKc
	.globl	_ZN3arm3app8Profiler14StartProfilingEPKc
	.p2align	2
	.type	_ZN3arm3app8Profiler14StartProfilingEPKc,%function
	.code	16                              @ @_ZN3arm3app8Profiler14StartProfilingEPKc
	.thumb_func
_ZN3arm3app8Profiler14StartProfilingEPKc:
.Lfunc_begin2:
	.loc	41 34 0                         @ ../../../../ThirdParty/ml-embedded-evaluation-kit/source/profiler/Profiler.cc:34:0
	.fnstart
	.cfi_startproc
@ %bb.0:
	@DEBUG_VALUE: StartProfiling:this <- $r0
	@DEBUG_VALUE: StartProfiling:name <- $r1
	@DEBUG_VALUE: StartProfiling:name <- $r1
	.save	{r4, r5, r6, r7, r8, r9, lr}
	push.w	{r4, r5, r6, r7, r8, r9, lr}
	.cfi_def_cfa_offset 28
	.cfi_offset lr, -4
	.cfi_offset r9, -8
	.cfi_offset r8, -12
	.cfi_offset r7, -16
	.cfi_offset r6, -20
	.cfi_offset r5, -24
	.cfi_offset r4, -28
	.pad	#44
	sub	sp, #44
	.cfi_def_cfa_offset 72
	mov	r8, r0
.Ltmp42:
	@DEBUG_VALUE: StartProfiling:this <- $r8
	@DEBUG_VALUE: StartProfiling:this <- $r8
	.loc	41 35 13 prologue_end           @ ../../../../ThirdParty/ml-embedded-evaluation-kit/source/profiler/Profiler.cc:35:13
	cbz	r1, .LBB2_9
.Ltmp43:
@ %bb.1:
	@DEBUG_VALUE: StartProfiling:this <- $r8
	@DEBUG_VALUE: StartProfiling:name <- $r1
	.loc	2 372 53                        @ Keil_v5\ARM\ARMCLANG\Bin\..\include\libcxx\__string:372:53
	mov	r0, r1
	mov	r5, r1
.Ltmp44:
	@DEBUG_VALUE: StartProfiling:name <- $r5
	@DEBUG_VALUE: StartProfiling:name <- $r5
	@DEBUG_VALUE: SetName:this <- $r8
	@DEBUG_VALUE: SetName:str <- $r5
	@DEBUG_VALUE: basic_string<nullptr_t>:this <- [DW_OP_plus_uconst 16, DW_OP_stack_value] $sp
	@DEBUG_VALUE: basic_string<nullptr_t>:__s <- $r5
	@DEBUG_VALUE: length:__s <- $r5
	bl	strlen
.Ltmp45:
	@DEBUG_VALUE: __init:__s <- $r5
	@DEBUG_VALUE: __init:this <- [DW_OP_plus_uconst 16, DW_OP_stack_value] $sp
	@DEBUG_VALUE: __init:__sz <- $r0
	.loc	6 1861 9                        @ Keil_v5\ARM\ARMCLANG\Bin\..\include\libcxx\string:1861:9
	cmn.w	r0, #16
	bhs.w	.LBB2_47
.Ltmp46:
@ %bb.2:
	@DEBUG_VALUE: SetName:this <- $r8
	@DEBUG_VALUE: StartProfiling:this <- $r8
	@DEBUG_VALUE: __init:__s <- $r5
	@DEBUG_VALUE: basic_string<nullptr_t>:__s <- $r5
	@DEBUG_VALUE: SetName:str <- $r5
	@DEBUG_VALUE: StartProfiling:name <- $r5
	@DEBUG_VALUE: __init:__sz <- $r0
	@DEBUG_VALUE: __init:this <- [DW_OP_plus_uconst 16, DW_OP_stack_value] $sp
	@DEBUG_VALUE: basic_string<nullptr_t>:this <- [DW_OP_plus_uconst 16, DW_OP_stack_value] $sp
	.loc	6 0 0 is_stmt 0                 @ Keil_v5\ARM\ARMCLANG\Bin\..\include\libcxx\string:0:0
	mov	r6, r0
.Ltmp47:
	@DEBUG_VALUE: __init:__sz <- $r6
	.loc	6 1864 9 is_stmt 1              @ Keil_v5\ARM\ARMCLANG\Bin\..\include\libcxx\string:1864:9
	cmp	r0, #11
	bhs	.LBB2_4
.Ltmp48:
@ %bb.3:
	@DEBUG_VALUE: SetName:this <- $r8
	@DEBUG_VALUE: StartProfiling:this <- $r8
	@DEBUG_VALUE: __init:__sz <- $r6
	@DEBUG_VALUE: __init:__s <- $r5
	@DEBUG_VALUE: basic_string<nullptr_t>:__s <- $r5
	@DEBUG_VALUE: SetName:str <- $r5
	@DEBUG_VALUE: StartProfiling:name <- $r5
	@DEBUG_VALUE: __init:this <- [DW_OP_plus_uconst 16, DW_OP_stack_value] $sp
	@DEBUG_VALUE: basic_string<nullptr_t>:this <- [DW_OP_plus_uconst 16, DW_OP_stack_value] $sp
	@DEBUG_VALUE: copy:__s1 <- [DW_OP_plus_uconst 16, DW_OP_stack_value] $sp
	@DEBUG_VALUE: __init:__p <- [DW_OP_plus_uconst 16, DW_OP_stack_value] $sp
	.loc	6 0 9 is_stmt 0                 @ Keil_v5\ARM\ARMCLANG\Bin\..\include\libcxx\string:0:9
	add	r7, sp, #16
.Ltmp49:
	@DEBUG_VALUE: __set_short_size:__s <- $r6
	@DEBUG_VALUE: __set_short_size:this <- [DW_OP_plus_uconst 16, DW_OP_stack_value] $sp
	.loc	6 1489 35 is_stmt 1             @ Keil_v5\ARM\ARMCLANG\Bin\..\include\libcxx\string:1489:35
	strb.w	r6, [sp, #27]
.Ltmp50:
	@DEBUG_VALUE: copy:__n <- $r6
	@DEBUG_VALUE: copy:__s2 <- $r5
	@DEBUG_VALUE: copy:__s1 <- [DW_OP_plus_uconst 16, DW_OP_stack_value] $sp
	.loc	2 388 26                        @ Keil_v5\ARM\ARMCLANG\Bin\..\include\libcxx\__string:388:26
	cbnz	r6, .LBB2_5
	b	.LBB2_6
.Ltmp51:
.LBB2_4:
	@DEBUG_VALUE: SetName:this <- $r8
	@DEBUG_VALUE: StartProfiling:this <- $r8
	@DEBUG_VALUE: __init:__sz <- $r6
	@DEBUG_VALUE: __init:__s <- $r5
	@DEBUG_VALUE: basic_string<nullptr_t>:__s <- $r5
	@DEBUG_VALUE: SetName:str <- $r5
	@DEBUG_VALUE: StartProfiling:name <- $r5
	@DEBUG_VALUE: __init:this <- [DW_OP_plus_uconst 16, DW_OP_stack_value] $sp
	@DEBUG_VALUE: basic_string<nullptr_t>:this <- [DW_OP_plus_uconst 16, DW_OP_stack_value] $sp
	@DEBUG_VALUE: __recommend:__s <- $r6
	.loc	6 1575 13                       @ Keil_v5\ARM\ARMCLANG\Bin\..\include\libcxx\string:1575:13
	add.w	r0, r6, #16
	bic	r4, r0, #15
.Ltmp52:
	@DEBUG_VALUE: __libcpp_allocate:__align <- 1
	@DEBUG_VALUE: allocate:this <- undef
	@DEBUG_VALUE: allocate:__a <- undef
	@DEBUG_VALUE: __libcpp_operator_new<unsigned int>:__args <- $r4
	@DEBUG_VALUE: __libcpp_allocate:__size <- $r4
	@DEBUG_VALUE: allocate:__n <- $r4
	@DEBUG_VALUE: allocate:__n <- $r4
	@DEBUG_VALUE: __cap <- [DW_OP_constu 1, DW_OP_minus, DW_OP_stack_value] $r4
	.loc	43 241 10                       @ Keil_v5\ARM\ARMCLANG\Bin\..\include\libcxx\new:241:10
	mov	r0, r4
	bl	_Znwj
.Ltmp53:
	mov	r7, r0
.Ltmp54:
	@DEBUG_VALUE: __set_long_pointer:this <- [DW_OP_plus_uconst 16, DW_OP_stack_value] $sp
	@DEBUG_VALUE: __set_long_pointer:__p <- $r7
	@DEBUG_VALUE: __init:__p <- $r7
	.loc	6 1539 35                       @ Keil_v5\ARM\ARMCLANG\Bin\..\include\libcxx\string:1539:35
	str	r0, [sp, #16]
.Ltmp55:
	@DEBUG_VALUE: __set_long_cap:__s <- $r4
	@DEBUG_VALUE: __set_long_cap:this <- [DW_OP_plus_uconst 16, DW_OP_stack_value] $sp
	.loc	6 1532 49                       @ Keil_v5\ARM\ARMCLANG\Bin\..\include\libcxx\string:1532:49
	orr	r0, r4, #-2147483648
.Ltmp56:
	@DEBUG_VALUE: __set_long_size:__s <- $r6
	@DEBUG_VALUE: __set_long_size:this <- [DW_OP_plus_uconst 16, DW_OP_stack_value] $sp
	.loc	6 1522 35                       @ Keil_v5\ARM\ARMCLANG\Bin\..\include\libcxx\string:1522:35
	strd	r6, r0, [sp, #20]
.Ltmp57:
	@DEBUG_VALUE: copy:__n <- $r6
	@DEBUG_VALUE: copy:__s2 <- $r5
.LBB2_5:
	@DEBUG_VALUE: SetName:this <- $r8
	@DEBUG_VALUE: StartProfiling:this <- $r8
	@DEBUG_VALUE: copy:__n <- $r6
	@DEBUG_VALUE: __init:__sz <- $r6
	@DEBUG_VALUE: copy:__s2 <- $r5
	@DEBUG_VALUE: __init:__s <- $r5
	@DEBUG_VALUE: basic_string<nullptr_t>:__s <- $r5
	@DEBUG_VALUE: SetName:str <- $r5
	@DEBUG_VALUE: StartProfiling:name <- $r5
	@DEBUG_VALUE: __init:this <- [DW_OP_plus_uconst 16, DW_OP_stack_value] $sp
	@DEBUG_VALUE: basic_string<nullptr_t>:this <- [DW_OP_plus_uconst 16, DW_OP_stack_value] $sp
	.loc	2 388 56                        @ Keil_v5\ARM\ARMCLANG\Bin\..\include\libcxx\__string:388:56
	mov	r0, r7
	mov	r1, r5
	mov	r2, r6
	bl	__aeabi_memcpy
.Ltmp58:
.LBB2_6:
	@DEBUG_VALUE: SetName:this <- $r8
	@DEBUG_VALUE: StartProfiling:this <- $r8
	@DEBUG_VALUE: __init:__sz <- $r6
	@DEBUG_VALUE: __init:__s <- $r5
	@DEBUG_VALUE: basic_string<nullptr_t>:__s <- $r5
	@DEBUG_VALUE: SetName:str <- $r5
	@DEBUG_VALUE: StartProfiling:name <- $r5
	@DEBUG_VALUE: __init:this <- [DW_OP_plus_uconst 16, DW_OP_stack_value] $sp
	@DEBUG_VALUE: basic_string<nullptr_t>:this <- [DW_OP_plus_uconst 16, DW_OP_stack_value] $sp
	@DEBUG_VALUE: assign:__c1 <- undef
	@DEBUG_VALUE: assign:__c2 <- undef
	.loc	2 0 56 is_stmt 0                @ Keil_v5\ARM\ARMCLANG\Bin\..\include\libcxx\__string:0:56
	movs	r0, #0
	.loc	41 152 15 is_stmt 1             @ ../../../../ThirdParty/ml-embedded-evaluation-kit/source/profiler/Profiler.cc:152:15
	add.w	r4, r8, #356
.Ltmp59:
	@DEBUG_VALUE: __move_assign:__str <- [DW_OP_plus_uconst 16, DW_OP_stack_value] $sp
	@DEBUG_VALUE: operator=:__str <- [DW_OP_plus_uconst 16, DW_OP_stack_value] $sp
	@DEBUG_VALUE: __is_long:this <- $r4
	@DEBUG_VALUE: __move_assign:this <- $r4
	@DEBUG_VALUE: operator=:this <- $r4
	.loc	2 363 73                        @ Keil_v5\ARM\ARMCLANG\Bin\..\include\libcxx\__string:363:73
	strb	r0, [r7, r6]
.Ltmp60:
	.loc	6 1463 39                       @ Keil_v5\ARM\ARMCLANG\Bin\..\include\libcxx\string:1463:39
	ldrsb.w	r0, [r8, #367]
.Ltmp61:
	.loc	6 2434 7                        @ Keil_v5\ARM\ARMCLANG\Bin\..\include\libcxx\string:2434:7
	cmp.w	r0, #-1
	bgt	.LBB2_8
.Ltmp62:
@ %bb.7:
	@DEBUG_VALUE: SetName:this <- $r8
	@DEBUG_VALUE: StartProfiling:this <- $r8
	@DEBUG_VALUE: SetName:str <- $r5
	@DEBUG_VALUE: StartProfiling:name <- $r5
	@DEBUG_VALUE: operator=:this <- $r4
	@DEBUG_VALUE: __move_assign:this <- $r4
	@DEBUG_VALUE: operator=:__str <- [DW_OP_plus_uconst 16, DW_OP_stack_value] $sp
	@DEBUG_VALUE: __move_assign:__str <- [DW_OP_plus_uconst 16, DW_OP_stack_value] $sp
	@DEBUG_VALUE: __get_long_pointer:this <- $r4
	.loc	6 1542 34                       @ Keil_v5\ARM\ARMCLANG\Bin\..\include\libcxx\string:1542:34
	ldr	r0, [r4]
.Ltmp63:
	@DEBUG_VALUE: __do_deallocate_handle_size<>:__size <- undef
	@DEBUG_VALUE: __libcpp_deallocate:__align <- 1
	@DEBUG_VALUE: __libcpp_deallocate:__size <- undef
	@DEBUG_VALUE: deallocate:__n <- undef
	@DEBUG_VALUE: deallocate:this <- undef
	@DEBUG_VALUE: deallocate:__n <- undef
	@DEBUG_VALUE: deallocate:__a <- undef
	@DEBUG_VALUE: __libcpp_operator_delete<void *>:__args <- $r0
	@DEBUG_VALUE: __do_deallocate_handle_size<>:__ptr <- $r0
	@DEBUG_VALUE: __libcpp_deallocate:__ptr <- $r0
	@DEBUG_VALUE: deallocate:__p <- $r0
	@DEBUG_VALUE: deallocate:__p <- $r0
	.loc	43 251 3                        @ Keil_v5\ARM\ARMCLANG\Bin\..\include\libcxx\new:251:3
	bl	_ZdlPv
.Ltmp64:
.LBB2_8:
	@DEBUG_VALUE: SetName:this <- $r8
	@DEBUG_VALUE: StartProfiling:this <- $r8
	@DEBUG_VALUE: SetName:str <- $r5
	@DEBUG_VALUE: StartProfiling:name <- $r5
	@DEBUG_VALUE: operator=:this <- $r4
	@DEBUG_VALUE: __move_assign:this <- $r4
	@DEBUG_VALUE: operator=:__str <- [DW_OP_plus_uconst 16, DW_OP_stack_value] $sp
	@DEBUG_VALUE: __move_assign:__str <- [DW_OP_plus_uconst 16, DW_OP_stack_value] $sp
	.loc	6 2445 16                       @ Keil_v5\ARM\ARMCLANG\Bin\..\include\libcxx\string:2445:16
	add	r2, sp, #16
	ldm	r2, {r0, r1, r2}
.Ltmp65:
	@DEBUG_VALUE: assign:__c1 <- [DW_OP_plus_uconst 16, DW_OP_stack_value] $sp
	@DEBUG_VALUE: __is_long:this <- [DW_OP_plus_uconst 16, DW_OP_stack_value] $sp
	@DEBUG_VALUE: assign:__c2 <- undef
	@DEBUG_VALUE: __set_short_size:__s <- 0
	@DEBUG_VALUE: __set_short_size:this <- [DW_OP_plus_uconst 16, DW_OP_stack_value] $sp
	stm	r4!, {r0, r1, r2}
.Ltmp66:
.LBB2_9:
	@DEBUG_VALUE: StartProfiling:this <- $r8
	.loc	41 39 20                        @ ../../../../ThirdParty/ml-embedded-evaluation-kit/source/profiler/Profiler.cc:39:20
	ldrb.w	r0, [r8, #352]
.Ltmp67:
	.loc	41 39 13 is_stmt 0              @ ../../../../ThirdParty/ml-embedded-evaluation-kit/source/profiler/Profiler.cc:39:13
	cbz	r0, .LBB2_11
.Ltmp68:
.LBB2_10:
	@DEBUG_VALUE: StartProfiling:this <- $r8
	.loc	41 54 9 is_stmt 1               @ ../../../../ThirdParty/ml-embedded-evaluation-kit/source/profiler/Profiler.cc:54:9
	movw	r0, :lower16:.L.str.1
	movt	r0, :upper16:.L.str.1
	bl	__2printf
.Ltmp69:
	.loc	6 1463 39                       @ Keil_v5\ARM\ARMCLANG\Bin\..\include\libcxx\string:1463:39
	ldrsb.w	r0, [r8, #367]
.Ltmp70:
	.loc	41 54 9                         @ ../../../../ThirdParty/ml-embedded-evaluation-kit/source/profiler/Profiler.cc:54:9
	add.w	r1, r8, #356
	@DEBUG_VALUE: __is_long:this <- $r1
.Ltmp71:
	@DEBUG_VALUE: __get_pointer:this <- $r1
	@DEBUG_VALUE: data:this <- $r1
	@DEBUG_VALUE: c_str:this <- $r1
	@DEBUG_VALUE: __get_long_pointer:this <- $r1
	.loc	6 1557 17                       @ Keil_v5\ARM\ARMCLANG\Bin\..\include\libcxx\string:1557:17
	cmp.w	r0, #-1
.Ltmp72:
	.loc	6 1545 34                       @ Keil_v5\ARM\ARMCLANG\Bin\..\include\libcxx\string:1545:34
	it	le
	ldrle	r1, [r1]
.Ltmp73:
	.loc	41 54 9                         @ ../../../../ThirdParty/ml-embedded-evaluation-kit/source/profiler/Profiler.cc:54:9
	adr	r0, .LCPI2_0
	bl	__2printf
.Ltmp74:
	.loc	41 0 9 is_stmt 0                @ ../../../../ThirdParty/ml-embedded-evaluation-kit/source/profiler/Profiler.cc:0:9
	movs	r0, #0
	.loc	41 56 5 is_stmt 1               @ ../../../../ThirdParty/ml-embedded-evaluation-kit/source/profiler/Profiler.cc:56:5
	add	sp, #44
	pop.w	{r4, r5, r6, r7, r8, r9, pc}
.Ltmp75:
.LBB2_11:
	@DEBUG_VALUE: StartProfiling:this <- $r8
	.loc	41 40 13                        @ ../../../../ThirdParty/ml-embedded-evaluation-kit/source/profiler/Profiler.cc:40:13
	bl	pmu_reset_counters
.Ltmp76:
	.loc	41 0 13 is_stmt 0               @ ../../../../ThirdParty/ml-embedded-evaluation-kit/source/profiler/Profiler.cc:0:13
	movs	r1, #0
	.loc	41 41 19 is_stmt 1              @ ../../../../ThirdParty/ml-embedded-evaluation-kit/source/profiler/Profiler.cc:41:19
	add.w	r0, r8, #16
	.loc	41 41 42 is_stmt 0              @ ../../../../ThirdParty/ml-embedded-evaluation-kit/source/profiler/Profiler.cc:41:42
	strb.w	r1, [r8, #180]
	.loc	41 42 13 is_stmt 1              @ ../../../../ThirdParty/ml-embedded-evaluation-kit/source/profiler/Profiler.cc:42:13
	bl	pmu_get_counters
.Ltmp77:
	.loc	41 43 34                        @ ../../../../ThirdParty/ml-embedded-evaluation-kit/source/profiler/Profiler.cc:43:34
	ldrb.w	r0, [r8, #180]
.Ltmp78:
	.loc	41 43 17 is_stmt 0              @ ../../../../ThirdParty/ml-embedded-evaluation-kit/source/profiler/Profiler.cc:43:17
	cmp	r0, #0
	beq	.LBB2_10
.Ltmp79:
@ %bb.12:
	@DEBUG_VALUE: StartProfiling:this <- $r8
	.loc	41 44 51 is_stmt 1              @ ../../../../ThirdParty/ml-embedded-evaluation-kit/source/profiler/Profiler.cc:44:51
	add.w	r5, r8, #356
.Ltmp80:
	@DEBUG_VALUE: count:this <- $r8
	@DEBUG_VALUE: count:__k <- $r5
	.loc	19 1396 25                      @ Keil_v5\ARM\ARMCLANG\Bin\..\include\libcxx\map:1396:25
	mov	r0, r8
	mov	r1, r5
	bl	_ZNKSt3__26__treeINS_12__value_typeINS_12basic_stringIcNS_11char_traitsIcEENS_9allocatorIcEEEENS_6vectorIN3arm3app10StatisticsENS5_ISB_EEEEEENS_19__map_value_compareIS7_SE_NS_4lessIS7_EELb1EEENS5_ISE_EEE14__count_uniqueIS7_EEjRKT_
.Ltmp81:
	.loc	41 44 21                        @ ../../../../ThirdParty/ml-embedded-evaluation-kit/source/profiler/Profiler.cc:44:21
	cmp	r0, #0
	bne.w	.LBB2_46
.Ltmp82:
@ %bb.13:
	@DEBUG_VALUE: StartProfiling:this <- $r8
	.loc	41 47 92                        @ ../../../../ThirdParty/ml-embedded-evaluation-kit/source/profiler/Profiler.cc:47:92
	ldr.w	r4, [r8, #176]
	movs	r7, #0
.Ltmp83:
	@DEBUG_VALUE: __vector_base:this <- [DW_OP_plus_uconst 4, DW_OP_stack_value] $sp
	@DEBUG_VALUE: vector:this <- [DW_OP_plus_uconst 4, DW_OP_stack_value] $sp
	@DEBUG_VALUE: vector:__n <- $r4
	.loc	14 436 7                        @ Keil_v5\ARM\ARMCLANG\Bin\..\include\libcxx\vector:436:7
	strd	r7, r7, [sp, #4]
.Ltmp84:
	@DEBUG_VALUE: __compressed_pair_elem<nullptr_t, void>:__u <- undef
	@DEBUG_VALUE: __compressed_pair<nullptr_t, std::__default_init_tag>:__t2 <- undef
	@DEBUG_VALUE: __compressed_pair<nullptr_t, std::__default_init_tag>:__t1 <- undef
	@DEBUG_VALUE: __compressed_pair_elem<nullptr_t, void>:this <- [DW_OP_plus_uconst 4, DW_OP_plus_uconst 8, DW_OP_stack_value] $sp
	@DEBUG_VALUE: __compressed_pair<nullptr_t, std::__default_init_tag>:this <- [DW_OP_plus_uconst 4, DW_OP_plus_uconst 8, DW_OP_stack_value] $sp
	.loc	4 1229 9                        @ Keil_v5\ARM\ARMCLANG\Bin\..\include\libcxx\memory:1229:9
	str	r7, [sp, #12]
.Ltmp85:
	@DEBUG_VALUE: __vector_base:this <- [DW_OP_plus_uconst 4, DW_OP_stack_value] $sp
	.loc	14 1124 9                       @ Keil_v5\ARM\ARMCLANG\Bin\..\include\libcxx\vector:1124:9
	cbz	r4, .LBB2_16
.Ltmp86:
@ %bb.14:
	@DEBUG_VALUE: StartProfiling:this <- $r8
	@DEBUG_VALUE: vector:__n <- $r4
	@DEBUG_VALUE: vector:this <- [DW_OP_plus_uconst 4, DW_OP_stack_value] $sp
	@DEBUG_VALUE: __vallocate:this <- [DW_OP_plus_uconst 4, DW_OP_stack_value] $sp
	@DEBUG_VALUE: __vallocate:__n <- $r4
	.loc	14 991 9                        @ Keil_v5\ARM\ARMCLANG\Bin\..\include\libcxx\vector:991:9
	cmp.w	r4, #67108864
	bhs.w	.LBB2_48
.Ltmp87:
@ %bb.15:
	@DEBUG_VALUE: StartProfiling:this <- $r8
	@DEBUG_VALUE: __vallocate:__n <- $r4
	@DEBUG_VALUE: vector:__n <- $r4
	@DEBUG_VALUE: __vallocate:this <- [DW_OP_plus_uconst 4, DW_OP_stack_value] $sp
	@DEBUG_VALUE: vector:this <- [DW_OP_plus_uconst 4, DW_OP_stack_value] $sp
	@DEBUG_VALUE: allocate:__a <- undef
	@DEBUG_VALUE: allocate:__n <- $r4
	@DEBUG_VALUE: allocate:this <- undef
	@DEBUG_VALUE: allocate:__n <- $r4
	.loc	4 840 67                        @ Keil_v5\ARM\ARMCLANG\Bin\..\include\libcxx\memory:840:67
	lsl.w	r9, r4, #6
.Ltmp88:
	@DEBUG_VALUE: __libcpp_allocate:__align <- 8
	@DEBUG_VALUE: __libcpp_operator_new<unsigned int>:__args <- $r9
	@DEBUG_VALUE: __libcpp_allocate:__size <- $r9
	.loc	43 241 10                       @ Keil_v5\ARM\ARMCLANG\Bin\..\include\libcxx\new:241:10
	mov	r0, r9
	bl	_Znwj
.Ltmp89:
	.loc	14 994 40                       @ Keil_v5\ARM\ARMCLANG\Bin\..\include\libcxx\vector:994:40
	add.w	r7, r0, r4, lsl #6
.Ltmp90:
	.loc	6 1564 26                       @ Keil_v5\ARM\ARMCLANG\Bin\..\include\libcxx\string:1564:26
	mov	r1, r9
.Ltmp91:
	.loc	43 241 10                       @ Keil_v5\ARM\ARMCLANG\Bin\..\include\libcxx\new:241:10
	mov	r6, r0
.Ltmp92:
	.loc	14 993 20                       @ Keil_v5\ARM\ARMCLANG\Bin\..\include\libcxx\vector:993:20
	str	r0, [sp, #4]
	.loc	14 994 23                       @ Keil_v5\ARM\ARMCLANG\Bin\..\include\libcxx\vector:994:23
	str	r7, [sp, #12]
.Ltmp93:
	@DEBUG_VALUE: __construct_at_end:__new_end <- undef
	@DEBUG_VALUE: __construct_at_end:__tx <- [DW_OP_LLVM_fragment 64 32] undef
	@DEBUG_VALUE: __construct_at_end:__tx <- [DW_OP_plus_uconst 4, DW_OP_stack_value, DW_OP_LLVM_fragment 0 32] $sp
	@DEBUG_VALUE: __construct_at_end:__n <- undef
	@DEBUG_VALUE: __construct_at_end:this <- [DW_OP_plus_uconst 4, DW_OP_stack_value] $sp
	@DEBUG_VALUE: __construct_at_end:__tx <- [DW_OP_LLVM_fragment 32 32] $r6
	@DEBUG_VALUE: __pos <- $r6
	.loc	6 1564 26                       @ Keil_v5\ARM\ARMCLANG\Bin\..\include\libcxx\string:1564:26
	bl	__aeabi_memclr4
.Ltmp94:
	@DEBUG_VALUE: ~_ConstructTransaction:this <- undef
	@DEBUG_VALUE: __zero:__a <- [DW_OP_plus_uconst 12, DW_OP_stack_value] undef
	@DEBUG_VALUE: __zero:this <- [DW_OP_plus_uconst 12, DW_OP_stack_value] undef
	@DEBUG_VALUE: basic_string:this <- [DW_OP_plus_uconst 12, DW_OP_stack_value] undef
	@DEBUG_VALUE: __i <- [DW_OP_plus_uconst 1, DW_OP_stack_value] undef
	@DEBUG_VALUE: __zero:__a <- undef
	@DEBUG_VALUE: __zero:this <- undef
	@DEBUG_VALUE: basic_string:this <- undef
	@DEBUG_VALUE: Statistics:this <- undef
	@DEBUG_VALUE: construct<arm::app::Statistics>:__p <- undef
	@DEBUG_VALUE: construct<arm::app::Statistics>:this <- undef
	@DEBUG_VALUE: construct<arm::app::Statistics, void>:__p <- undef
	@DEBUG_VALUE: construct<arm::app::Statistics, void>:__a <- undef
	@DEBUG_VALUE: __construct_at_end:__tx <- [DW_OP_plus_uconst 64, DW_OP_stack_value, DW_OP_LLVM_fragment 32 32] undef
	@DEBUG_VALUE: __pos <- [DW_OP_plus_uconst 64, DW_OP_stack_value] undef
	.loc	14 905 19                       @ Keil_v5\ARM\ARMCLANG\Bin\..\include\libcxx\vector:905:19
	str	r7, [sp, #8]
	b	.LBB2_17
.Ltmp95:
.LBB2_16:
	@DEBUG_VALUE: StartProfiling:this <- $r8
	@DEBUG_VALUE: vector:__n <- $r4
	@DEBUG_VALUE: __compressed_pair<nullptr_t, std::__default_init_tag>:this <- [DW_OP_plus_uconst 4, DW_OP_plus_uconst 8, DW_OP_stack_value] $sp
	@DEBUG_VALUE: __compressed_pair_elem<nullptr_t, void>:this <- [DW_OP_plus_uconst 4, DW_OP_plus_uconst 8, DW_OP_stack_value] $sp
	@DEBUG_VALUE: vector:this <- [DW_OP_plus_uconst 4, DW_OP_stack_value] $sp
	@DEBUG_VALUE: __vector_base:this <- [DW_OP_plus_uconst 4, DW_OP_stack_value] $sp
	.loc	14 0 19 is_stmt 0               @ Keil_v5\ARM\ARMCLANG\Bin\..\include\libcxx\vector:0:19
	movs	r6, #0
.Ltmp96:
.LBB2_17:
	@DEBUG_VALUE: StartProfiling:this <- $r8
	@DEBUG_VALUE: pair<std::string &, std::vector<arm::app::Statistics>, false>:this <- [DW_OP_plus_uconst 16, DW_OP_stack_value] $sp
	@DEBUG_VALUE: pair<std::string &, std::vector<arm::app::Statistics>, false>:__u1 <- $r5
	@DEBUG_VALUE: pair<std::string &, std::vector<arm::app::Statistics>, false>:__u2 <- [DW_OP_plus_uconst 4, DW_OP_stack_value] $sp
	@DEBUG_VALUE: basic_string:this <- [DW_OP_plus_uconst 16, DW_OP_stack_value] $sp
	@DEBUG_VALUE: basic_string:__str <- $r5
	@DEBUG_VALUE: __is_long:this <- $r5
	.loc	6 1463 39 is_stmt 1             @ Keil_v5\ARM\ARMCLANG\Bin\..\include\libcxx\string:1463:39
	ldrsb.w	r0, [r5, #11]
.Ltmp97:
	.loc	6 1921 9                        @ Keil_v5\ARM\ARMCLANG\Bin\..\include\libcxx\string:1921:9
	cmp	r0, #0
	bmi	.LBB2_19
.Ltmp98:
@ %bb.18:
	@DEBUG_VALUE: StartProfiling:this <- $r8
	@DEBUG_VALUE: basic_string:__str <- $r5
	@DEBUG_VALUE: pair<std::string &, std::vector<arm::app::Statistics>, false>:__u1 <- $r5
	@DEBUG_VALUE: basic_string:this <- [DW_OP_plus_uconst 16, DW_OP_stack_value] $sp
	@DEBUG_VALUE: pair<std::string &, std::vector<arm::app::Statistics>, false>:__u2 <- [DW_OP_plus_uconst 4, DW_OP_stack_value] $sp
	@DEBUG_VALUE: pair<std::string &, std::vector<arm::app::Statistics>, false>:this <- [DW_OP_plus_uconst 16, DW_OP_stack_value] $sp
	.loc	6 1922 26                       @ Keil_v5\ARM\ARMCLANG\Bin\..\include\libcxx\string:1922:26
	ldrd	r0, r2, [r5]
	ldr	r1, [r5, #8]
	str	r1, [sp, #24]
	strd	r0, r2, [sp, #16]
.Ltmp99:
	.loc	14 1295 24                      @ Keil_v5\ARM\ARMCLANG\Bin\..\include\libcxx\vector:1295:24
	mov	r0, r7
	b	.LBB2_20
.Ltmp100:
.LBB2_19:
	@DEBUG_VALUE: StartProfiling:this <- $r8
	@DEBUG_VALUE: basic_string:__str <- $r5
	@DEBUG_VALUE: pair<std::string &, std::vector<arm::app::Statistics>, false>:__u1 <- $r5
	@DEBUG_VALUE: basic_string:this <- [DW_OP_plus_uconst 16, DW_OP_stack_value] $sp
	@DEBUG_VALUE: pair<std::string &, std::vector<arm::app::Statistics>, false>:__u2 <- [DW_OP_plus_uconst 4, DW_OP_stack_value] $sp
	@DEBUG_VALUE: pair<std::string &, std::vector<arm::app::Statistics>, false>:this <- [DW_OP_plus_uconst 16, DW_OP_stack_value] $sp
	@DEBUG_VALUE: __get_long_pointer:this <- undef
	@DEBUG_VALUE: __get_long_size:this <- undef
	.loc	6 1545 34                       @ Keil_v5\ARM\ARMCLANG\Bin\..\include\libcxx\string:1545:34
	ldrd	r1, r2, [r8, #356]
	add	r0, sp, #16
.Ltmp101:
	@DEBUG_VALUE: basic_string:this <- [DW_OP_plus_uconst 16, DW_OP_stack_value] $sp
	.loc	6 1924 9                        @ Keil_v5\ARM\ARMCLANG\Bin\..\include\libcxx\string:1924:9
	bl	_ZNSt3__212basic_stringIcNS_11char_traitsIcEENS_9allocatorIcEEE25__init_copy_ctor_externalEPKcj
.Ltmp102:
	.loc	14 1294 26                      @ Keil_v5\ARM\ARMCLANG\Bin\..\include\libcxx\vector:1294:26
	ldrd	r6, r0, [sp, #4]
	.loc	14 1296 29                      @ Keil_v5\ARM\ARMCLANG\Bin\..\include\libcxx\vector:1296:29
	ldr	r7, [sp, #12]
.Ltmp103:
.LBB2_20:
	@DEBUG_VALUE: StartProfiling:this <- $r8
	@DEBUG_VALUE: pair<std::string &, std::vector<arm::app::Statistics>, false>:__u1 <- $r5
	@DEBUG_VALUE: pair<std::string &, std::vector<arm::app::Statistics>, false>:__u2 <- [DW_OP_plus_uconst 4, DW_OP_stack_value] $sp
	@DEBUG_VALUE: pair<std::string &, std::vector<arm::app::Statistics>, false>:this <- [DW_OP_plus_uconst 16, DW_OP_stack_value] $sp
	@DEBUG_VALUE: vector:this <- [DW_OP_plus_uconst 16, DW_OP_plus_uconst 12, DW_OP_stack_value] $sp
	@DEBUG_VALUE: vector:__x <- [DW_OP_plus_uconst 4, DW_OP_stack_value] $sp
	@DEBUG_VALUE: __vector_base:this <- [DW_OP_plus_uconst 16, DW_OP_plus_uconst 12, DW_OP_stack_value] $sp
	@DEBUG_VALUE: __vector_base:__a <- undef
	@DEBUG_VALUE: __compressed_pair<nullptr_t, std::allocator<arm::app::Statistics> >:this <- [DW_OP_plus_uconst 16, DW_OP_plus_uconst 12, DW_OP_plus_uconst 8, DW_OP_stack_value] $sp
	@DEBUG_VALUE: __compressed_pair<nullptr_t, std::allocator<arm::app::Statistics> >:__t1 <- undef
	@DEBUG_VALUE: __compressed_pair<nullptr_t, std::allocator<arm::app::Statistics> >:__t2 <- undef
	@DEBUG_VALUE: __compressed_pair_elem<nullptr_t, void>:this <- [DW_OP_plus_uconst 16, DW_OP_plus_uconst 12, DW_OP_plus_uconst 8, DW_OP_stack_value] $sp
	@DEBUG_VALUE: __compressed_pair_elem<nullptr_t, void>:__u <- undef
	.loc	14 1294 20                      @ Keil_v5\ARM\ARMCLANG\Bin\..\include\libcxx\vector:1294:20
	strd	r6, r0, [sp, #28]
	movs	r4, #0
	add	r1, sp, #40
	add	r2, sp, #16
.Ltmp104:
	@DEBUG_VALUE: __emplace_unique_key_args<std::string, std::pair<std::string, std::vector<arm::app::Statistics> > >:__k <- [DW_OP_plus_uconst 16, DW_OP_stack_value] $sp
	@DEBUG_VALUE: __emplace_unique_extract_key<std::pair<std::string, std::vector<arm::app::Statistics> > >:__x <- [DW_OP_plus_uconst 16, DW_OP_stack_value] $sp
	@DEBUG_VALUE: __emplace_unique<std::pair<std::string, std::vector<arm::app::Statistics> > >:__x <- [DW_OP_plus_uconst 16, DW_OP_stack_value] $sp
	@DEBUG_VALUE: __insert_unique<std::pair<std::string, std::vector<arm::app::Statistics> >, void>:__v <- [DW_OP_plus_uconst 16, DW_OP_stack_value] $sp
	@DEBUG_VALUE: insert<std::pair<std::string, std::vector<arm::app::Statistics> >, void>:__p <- [DW_OP_plus_uconst 16, DW_OP_stack_value] $sp
	@DEBUG_VALUE: insert<std::pair<std::string, std::vector<arm::app::Statistics> >, void>:this <- $r8
	.loc	20 2091 36                      @ Keil_v5\ARM\ARMCLANG\Bin\..\include\libcxx\__tree:2091:36
	mov	r0, r8
.Ltmp105:
	.loc	14 1296 23                      @ Keil_v5\ARM\ARMCLANG\Bin\..\include\libcxx\vector:1296:23
	str	r7, [sp, #36]
	.loc	14 1297 49                      @ Keil_v5\ARM\ARMCLANG\Bin\..\include\libcxx\vector:1297:49
	str	r4, [sp, #12]
	.loc	14 1297 18 is_stmt 0            @ Keil_v5\ARM\ARMCLANG\Bin\..\include\libcxx\vector:1297:18
	strd	r4, r4, [sp, #4]
.Ltmp106:
	@DEBUG_VALUE: __emplace_unique_key_args<std::string, std::pair<std::string, std::vector<arm::app::Statistics> > >:__parent <- [DW_OP_plus_uconst 40, DW_OP_deref] $sp
	@DEBUG_VALUE: __emplace_unique_key_args<std::string, std::pair<std::string, std::vector<arm::app::Statistics> > >:__args <- [DW_OP_plus_uconst 16, DW_OP_stack_value] $sp
	.loc	20 2091 36 is_stmt 1            @ Keil_v5\ARM\ARMCLANG\Bin\..\include\libcxx\__tree:2091:36
	bl	_ZNSt3__26__treeINS_12__value_typeINS_12basic_stringIcNS_11char_traitsIcEENS_9allocatorIcEEEENS_6vectorIN3arm3app10StatisticsENS5_ISB_EEEEEENS_19__map_value_compareIS7_SE_NS_4lessIS7_EELb1EEENS5_ISE_EEE12__find_equalIS7_EERPNS_16__tree_node_baseIPvEERPNS_15__tree_end_nodeISP_EERKT_
.Ltmp107:
	mov	r5, r0
.Ltmp108:
	@DEBUG_VALUE: __emplace_unique_key_args<std::string, std::pair<std::string, std::vector<arm::app::Statistics> > >:__child <- $r5
	.loc	20 2092 54                      @ Keil_v5\ARM\ARMCLANG\Bin\..\include\libcxx\__tree:2092:54
	ldr	r0, [r0]
.Ltmp109:
	@DEBUG_VALUE: __emplace_unique_key_args<std::string, std::pair<std::string, std::vector<arm::app::Statistics> > >:__inserted <- 0
	@DEBUG_VALUE: __emplace_unique_key_args<std::string, std::pair<std::string, std::vector<arm::app::Statistics> > >:__r <- $r0
	@DEBUG_VALUE: __emplace_unique_key_args<std::string, std::pair<std::string, std::vector<arm::app::Statistics> > >:this <- $r8
	@DEBUG_VALUE: __emplace_unique_extract_key<std::pair<std::string, std::vector<arm::app::Statistics> > >:this <- $r8
	@DEBUG_VALUE: __emplace_unique<std::pair<std::string, std::vector<arm::app::Statistics> > >:this <- $r8
	@DEBUG_VALUE: __insert_unique<std::pair<std::string, std::vector<arm::app::Statistics> >, void>:this <- $r8
	.loc	20 2094 9                       @ Keil_v5\ARM\ARMCLANG\Bin\..\include\libcxx\__tree:2094:9
	cbnz	r0, .LBB2_22
.Ltmp110:
@ %bb.21:
	@DEBUG_VALUE: __insert_unique<std::pair<std::string, std::vector<arm::app::Statistics> >, void>:this <- $r8
	@DEBUG_VALUE: __emplace_unique<std::pair<std::string, std::vector<arm::app::Statistics> > >:this <- $r8
	@DEBUG_VALUE: __emplace_unique_extract_key<std::pair<std::string, std::vector<arm::app::Statistics> > >:this <- $r8
	@DEBUG_VALUE: __emplace_unique_key_args<std::string, std::pair<std::string, std::vector<arm::app::Statistics> > >:this <- $r8
	@DEBUG_VALUE: insert<std::pair<std::string, std::vector<arm::app::Statistics> >, void>:this <- $r8
	@DEBUG_VALUE: StartProfiling:this <- $r8
	@DEBUG_VALUE: __emplace_unique_key_args<std::string, std::pair<std::string, std::vector<arm::app::Statistics> > >:__child <- $r5
	@DEBUG_VALUE: __emplace_unique_key_args<std::string, std::pair<std::string, std::vector<arm::app::Statistics> > >:__r <- $r0
	@DEBUG_VALUE: __emplace_unique_key_args<std::string, std::pair<std::string, std::vector<arm::app::Statistics> > >:__args <- [DW_OP_plus_uconst 16, DW_OP_stack_value] $sp
	@DEBUG_VALUE: __emplace_unique_key_args<std::string, std::pair<std::string, std::vector<arm::app::Statistics> > >:__parent <- [DW_OP_plus_uconst 40, DW_OP_deref] $sp
	@DEBUG_VALUE: insert<std::pair<std::string, std::vector<arm::app::Statistics> >, void>:__p <- [DW_OP_plus_uconst 16, DW_OP_stack_value] $sp
	@DEBUG_VALUE: __insert_unique<std::pair<std::string, std::vector<arm::app::Statistics> >, void>:__v <- [DW_OP_plus_uconst 16, DW_OP_stack_value] $sp
	@DEBUG_VALUE: __emplace_unique<std::pair<std::string, std::vector<arm::app::Statistics> > >:__x <- [DW_OP_plus_uconst 16, DW_OP_stack_value] $sp
	@DEBUG_VALUE: __emplace_unique_extract_key<std::pair<std::string, std::vector<arm::app::Statistics> > >:__x <- [DW_OP_plus_uconst 16, DW_OP_stack_value] $sp
	@DEBUG_VALUE: __emplace_unique_key_args<std::string, std::pair<std::string, std::vector<arm::app::Statistics> > >:__k <- [DW_OP_plus_uconst 16, DW_OP_stack_value] $sp
	@DEBUG_VALUE: __emplace_unique_key_args<std::string, std::pair<std::string, std::vector<arm::app::Statistics> > >:__inserted <- 0
	@DEBUG_VALUE: __construct_node<std::pair<std::string, std::vector<arm::app::Statistics> > >:__args <- [DW_OP_plus_uconst 16, DW_OP_stack_value] $sp
	@DEBUG_VALUE: allocate:__n <- 1
	@DEBUG_VALUE: allocate:__n <- 1
	@DEBUG_VALUE: __libcpp_allocate:__size <- 40
	@DEBUG_VALUE: __libcpp_allocate:__align <- 4
	@DEBUG_VALUE: __libcpp_operator_new<unsigned int>:__args <- 40
	.loc	43 241 10                       @ Keil_v5\ARM\ARMCLANG\Bin\..\include\libcxx\new:241:10
	movs	r0, #40
.Ltmp111:
	bl	_Znwj
.Ltmp112:
	mov	r1, r0
.Ltmp113:
	@DEBUG_VALUE: basic_string:__str <- [DW_OP_plus_uconst 16, DW_OP_stack_value] $sp
	@DEBUG_VALUE: pair<std::string, std::vector<arm::app::Statistics>, false>:__p <- [DW_OP_plus_uconst 16, DW_OP_stack_value] $sp
	@DEBUG_VALUE: construct<std::pair<const std::string, std::vector<arm::app::Statistics> >, std::pair<std::string, std::vector<arm::app::Statistics> > >:__args <- [DW_OP_plus_uconst 16, DW_OP_stack_value] $sp
	@DEBUG_VALUE: construct<std::pair<const std::string, std::vector<arm::app::Statistics> >, std::pair<std::string, std::vector<arm::app::Statistics> > , void>:__args <- [DW_OP_plus_uconst 16, DW_OP_stack_value] $sp
	@DEBUG_VALUE: __compressed_pair_elem<nullptr_t, void>:this <- [DW_OP_plus_uconst 16, DW_OP_plus_uconst 12, DW_OP_plus_uconst 8, DW_OP_stack_value] $r1
	@DEBUG_VALUE: __compressed_pair<nullptr_t, std::allocator<arm::app::Statistics> >:this <- [DW_OP_plus_uconst 16, DW_OP_plus_uconst 12, DW_OP_plus_uconst 8, DW_OP_stack_value] $r1
	@DEBUG_VALUE: __vector_base:__a <- undef
	@DEBUG_VALUE: __vector_base:this <- [DW_OP_plus_uconst 16, DW_OP_plus_uconst 12, DW_OP_stack_value] $r1
	@DEBUG_VALUE: __i <- [DW_OP_plus_uconst 1, DW_OP_stack_value] undef
	@DEBUG_VALUE: basic_string:this <- [DW_OP_plus_uconst 16, DW_OP_stack_value] $r1
	@DEBUG_VALUE: pair<std::string, std::vector<arm::app::Statistics>, false>:this <- [DW_OP_plus_uconst 16, DW_OP_stack_value] $r1
	@DEBUG_VALUE: construct<std::pair<const std::string, std::vector<arm::app::Statistics> >, std::pair<std::string, std::vector<arm::app::Statistics> > >:__p <- [DW_OP_plus_uconst 16, DW_OP_stack_value] $r1
	@DEBUG_VALUE: construct<std::pair<const std::string, std::vector<arm::app::Statistics> >, std::pair<std::string, std::vector<arm::app::Statistics> > , void>:__p <- [DW_OP_plus_uconst 16, DW_OP_stack_value] $r1
	@DEBUG_VALUE: __construct_node<std::pair<std::string, std::vector<arm::app::Statistics> > >:__h <- [DW_OP_LLVM_fragment 0 32] $r1
	@DEBUG_VALUE: __h <- [DW_OP_LLVM_fragment 0 32] $r1
	.loc	14 1295 24                      @ Keil_v5\ARM\ARMCLANG\Bin\..\include\libcxx\vector:1295:24
	ldrd	r6, r0, [sp, #32]
.Ltmp114:
	@DEBUG_VALUE: basic_string:__str <- [DW_OP_plus_uconst 16, DW_OP_stack_value] $sp
	@DEBUG_VALUE: basic_string:this <- [DW_OP_plus_uconst 16, DW_OP_stack_value] $r1
	.loc	6 1976 7                        @ Keil_v5\ARM\ARMCLANG\Bin\..\include\libcxx\string:1976:7
	ldrd	r12, r2, [sp, #16]
.Ltmp115:
	@DEBUG_VALUE: __compressed_pair_elem<nullptr_t, void>:__u <- undef
	@DEBUG_VALUE: __compressed_pair<nullptr_t, std::allocator<arm::app::Statistics> >:__t2 <- undef
	@DEBUG_VALUE: __compressed_pair<nullptr_t, std::allocator<arm::app::Statistics> >:__t1 <- undef
	@DEBUG_VALUE: vector:__x <- [DW_OP_plus_uconst 16, DW_OP_plus_uconst 12, DW_OP_stack_value] $sp
	@DEBUG_VALUE: vector:this <- [DW_OP_plus_uconst 16, DW_OP_plus_uconst 12, DW_OP_stack_value] $r1
	ldrd	r3, r7, [sp, #24]
.Ltmp116:
	@DEBUG_VALUE: __zero:__a <- [DW_OP_plus_uconst 16, DW_OP_stack_value] $sp
	@DEBUG_VALUE: __zero:this <- [DW_OP_plus_uconst 16, DW_OP_stack_value] $sp
	@DEBUG_VALUE: basic_string:__str <- [DW_OP_plus_uconst 16, DW_OP_stack_value] $sp
	@DEBUG_VALUE: basic_string:this <- [DW_OP_plus_uconst 16, DW_OP_stack_value] $r1
	.loc	6 1564 26                       @ Keil_v5\ARM\ARMCLANG\Bin\..\include\libcxx\string:1564:26
	strd	r4, r4, [sp, #16]
.Ltmp117:
	.loc	14 1295 18                      @ Keil_v5\ARM\ARMCLANG\Bin\..\include\libcxx\vector:1295:18
	strd	r6, r0, [r1, #32]
.Ltmp118:
	.loc	20 2097 26                      @ Keil_v5\ARM\ARMCLANG\Bin\..\include\libcxx\__tree:2097:26
	ldr	r0, [sp, #40]
.Ltmp119:
	@DEBUG_VALUE: __insert_node_at:__child <- $r5
	@DEBUG_VALUE: __insert_node_at:__parent <- $r0
	@DEBUG_VALUE: __insert_node_at:__new_node <- $r1
	@DEBUG_VALUE: __emplace_unique_key_args<std::string, std::pair<std::string, std::vector<arm::app::Statistics> > >:__parent <- $r0
	.loc	6 1564 26                       @ Keil_v5\ARM\ARMCLANG\Bin\..\include\libcxx\string:1564:26
	str	r4, [sp, #24]
.Ltmp120:
	@DEBUG_VALUE: vector:__x <- [DW_OP_plus_uconst 16, DW_OP_plus_uconst 12, DW_OP_stack_value] $sp
	@DEBUG_VALUE: vector:this <- [DW_OP_plus_uconst 16, DW_OP_plus_uconst 12, DW_OP_stack_value] $r1
	.loc	6 1976 7                        @ Keil_v5\ARM\ARMCLANG\Bin\..\include\libcxx\string:1976:7
	strd	r12, r2, [r1, #16]
	strd	r3, r7, [r1, #24]
.Ltmp121:
	@DEBUG_VALUE: vector:__x <- [DW_OP_plus_uconst 16, DW_OP_plus_uconst 12, DW_OP_stack_value] $sp
	@DEBUG_VALUE: vector:this <- [DW_OP_plus_uconst 16, DW_OP_plus_uconst 12, DW_OP_stack_value] $r1
	.loc	14 1297 49                      @ Keil_v5\ARM\ARMCLANG\Bin\..\include\libcxx\vector:1297:49
	str	r4, [sp, #36]
	.loc	14 1297 18 is_stmt 0            @ Keil_v5\ARM\ARMCLANG\Bin\..\include\libcxx\vector:1297:18
	strd	r4, r4, [sp, #28]
.Ltmp122:
	@DEBUG_VALUE: __construct_node<std::pair<std::string, std::vector<arm::app::Statistics> > >:__h <- [DW_OP_LLVM_fragment 64 8] 1
	@DEBUG_VALUE: __h <- [DW_OP_LLVM_fragment 64 8] 1
	.loc	20 2074 27 is_stmt 1            @ Keil_v5\ARM\ARMCLANG\Bin\..\include\libcxx\__tree:2074:27
	strd	r4, r4, [r1]
	.loc	20 2076 27                      @ Keil_v5\ARM\ARMCLANG\Bin\..\include\libcxx\__tree:2076:27
	str	r0, [r1, #8]
	.loc	20 2078 13                      @ Keil_v5\ARM\ARMCLANG\Bin\..\include\libcxx\__tree:2078:13
	str	r1, [r5]
.Ltmp123:
	.loc	20 2079 9                       @ Keil_v5\ARM\ARMCLANG\Bin\..\include\libcxx\__tree:2079:9
	ldr.w	r0, [r8]
.Ltmp124:
	.loc	20 2079 25 is_stmt 0            @ Keil_v5\ARM\ARMCLANG\Bin\..\include\libcxx\__tree:2079:25
	ldr	r0, [r0]
.Ltmp125:
	.loc	20 2079 9                       @ Keil_v5\ARM\ARMCLANG\Bin\..\include\libcxx\__tree:2079:9
	cmp	r0, #0
.Ltmp126:
	@DEBUG_VALUE: __begin_node:this <- $r8
	@DEBUG_VALUE: __insert_node_at:this <- $r8
	@DEBUG_VALUE: construct<std::pair<const std::string, std::vector<arm::app::Statistics> >, std::pair<std::string, std::vector<arm::app::Statistics> > >:this <- [DW_OP_plus_uconst 4, DW_OP_stack_value] $r8
	@DEBUG_VALUE: construct<std::pair<const std::string, std::vector<arm::app::Statistics> >, std::pair<std::string, std::vector<arm::app::Statistics> > , void>:__a <- [DW_OP_plus_uconst 4, DW_OP_stack_value] $r8
	@DEBUG_VALUE: __construct_node<std::pair<std::string, std::vector<arm::app::Statistics> > >:__h <- [DW_OP_plus_uconst 4, DW_OP_stack_value, DW_OP_LLVM_fragment 32 32] $r8
	@DEBUG_VALUE: __h <- [DW_OP_plus_uconst 4, DW_OP_stack_value, DW_OP_LLVM_fragment 32 32] $r8
	@DEBUG_VALUE: allocate:this <- [DW_OP_plus_uconst 4, DW_OP_stack_value] $r8
	@DEBUG_VALUE: allocate:__a <- [DW_OP_plus_uconst 4, DW_OP_stack_value] $r8
	@DEBUG_VALUE: __construct_node<std::pair<std::string, std::vector<arm::app::Statistics> > >:__na <- [DW_OP_plus_uconst 4, DW_OP_stack_value] $r8
	@DEBUG_VALUE: __construct_node<std::pair<std::string, std::vector<arm::app::Statistics> > >:this <- $r8
	@DEBUG_VALUE: __begin_node:this <- $r8
	.loc	20 2080 24 is_stmt 1            @ Keil_v5\ARM\ARMCLANG\Bin\..\include\libcxx\__tree:2080:24
	itt	ne
	strne.w	r0, [r8]
.Ltmp127:
	.loc	20 2081 63                      @ Keil_v5\ARM\ARMCLANG\Bin\..\include\libcxx\__tree:2081:63
	ldrne	r1, [r5]
.Ltmp128:
	@DEBUG_VALUE: __begin_node:this <- $r8
	.loc	20 2081 54 is_stmt 0            @ Keil_v5\ARM\ARMCLANG\Bin\..\include\libcxx\__tree:2081:54
	ldr.w	r0, [r8, #4]
	.loc	20 2081 5                       @ Keil_v5\ARM\ARMCLANG\Bin\..\include\libcxx\__tree:2081:5
	bl	_ZNSt3__227__tree_balance_after_insertIPNS_16__tree_node_baseIPvEEEEvT_S5_
.Ltmp129:
	.loc	20 2082 5 is_stmt 1             @ Keil_v5\ARM\ARMCLANG\Bin\..\include\libcxx\__tree:2082:5
	ldr.w	r0, [r8, #8]
	adds	r0, #1
	str.w	r0, [r8, #8]
.Ltmp130:
	@DEBUG_VALUE: __get:this <- [DW_OP_plus_uconst 8, DW_OP_stack_value] $r8
	@DEBUG_VALUE: first:this <- [DW_OP_plus_uconst 8, DW_OP_stack_value] $r8
	@DEBUG_VALUE: size:this <- $r8
	@DEBUG_VALUE: reset:__tmp <- 0
	@DEBUG_VALUE: reset:__p <- 0
	@DEBUG_VALUE: reset:this <- undef
	@DEBUG_VALUE: ~unique_ptr:this <- undef
	@DEBUG_VALUE: __construct_node<std::pair<std::string, std::vector<arm::app::Statistics> > >:__h <- [DW_OP_LLVM_fragment 0 32] 0
	@DEBUG_VALUE: __h <- [DW_OP_LLVM_fragment 0 32] 0
	@DEBUG_VALUE: __emplace_unique_key_args<std::string, std::pair<std::string, std::vector<arm::app::Statistics> > >:__inserted <- 1
	@DEBUG_VALUE: __emplace_unique_key_args<std::string, std::pair<std::string, std::vector<arm::app::Statistics> > >:__r <- undef
.LBB2_22:
	@DEBUG_VALUE: StartProfiling:this <- $r8
	@DEBUG_VALUE: __emplace_unique_key_args<std::string, std::pair<std::string, std::vector<arm::app::Statistics> > >:__r <- undef
	@DEBUG_VALUE: ~pair:this <- [DW_OP_plus_uconst 16, DW_OP_stack_value] $sp
	@DEBUG_VALUE: ~vector:this <- [DW_OP_plus_uconst 12, DW_OP_stack_value] undef
	@DEBUG_VALUE: ~__vector_base:this <- [DW_OP_plus_uconst 12, DW_OP_stack_value] undef
	.loc	14 463 9                        @ Keil_v5\ARM\ARMCLANG\Bin\..\include\libcxx\vector:463:9
	ldr	r4, [sp, #28]
.Ltmp131:
	.loc	14 463 9 is_stmt 0              @ Keil_v5\ARM\ARMCLANG\Bin\..\include\libcxx\vector:463:9
	cbz	r4, .LBB2_33
.Ltmp132:
@ %bb.23:
	@DEBUG_VALUE: StartProfiling:this <- $r8
	@DEBUG_VALUE: ~pair:this <- [DW_OP_plus_uconst 16, DW_OP_stack_value] $sp
	@DEBUG_VALUE: __destruct_at_end:__new_last <- $r4
	.loc	14 426 32 is_stmt 1             @ Keil_v5\ARM\ARMCLANG\Bin\..\include\libcxx\vector:426:32
	ldr	r0, [sp, #32]
.Ltmp133:
	@DEBUG_VALUE: __destruct_at_end:__soon_to_be_end <- $r0
	.loc	14 427 5                        @ Keil_v5\ARM\ARMCLANG\Bin\..\include\libcxx\vector:427:5
	cmp	r0, r4
.Ltmp134:
	@DEBUG_VALUE: __destruct_at_end:this <- [DW_OP_plus_uconst 16, DW_OP_plus_uconst 12, DW_OP_stack_value] $sp
	@DEBUG_VALUE: clear:this <- [DW_OP_plus_uconst 16, DW_OP_plus_uconst 12, DW_OP_stack_value] $sp
	beq	.LBB2_31
.Ltmp135:
@ %bb.24:
	@DEBUG_VALUE: StartProfiling:this <- $r8
	@DEBUG_VALUE: __destruct_at_end:__new_last <- $r4
	@DEBUG_VALUE: __destruct_at_end:__soon_to_be_end <- $r0
	@DEBUG_VALUE: clear:this <- [DW_OP_plus_uconst 16, DW_OP_plus_uconst 12, DW_OP_stack_value] $sp
	@DEBUG_VALUE: __destruct_at_end:this <- [DW_OP_plus_uconst 16, DW_OP_plus_uconst 12, DW_OP_stack_value] $sp
	@DEBUG_VALUE: ~pair:this <- [DW_OP_plus_uconst 16, DW_OP_stack_value] $sp
	sub.w	r5, r0, #64
	subs	r6, r4, r0
	b	.LBB2_26
.Ltmp136:
	.p2align	2
.LBB2_25:                               @   in Loop: Header=BB2_26 Depth=1
	@DEBUG_VALUE: StartProfiling:this <- $r8
	@DEBUG_VALUE: __destruct_at_end:__soon_to_be_end <- $r5
	@DEBUG_VALUE: __destruct_at_end:__new_last <- $r4
	@DEBUG_VALUE: clear:this <- [DW_OP_plus_uconst 16, DW_OP_plus_uconst 12, DW_OP_stack_value] $sp
	@DEBUG_VALUE: __destruct_at_end:this <- [DW_OP_plus_uconst 16, DW_OP_plus_uconst 12, DW_OP_stack_value] $sp
	@DEBUG_VALUE: ~pair:this <- [DW_OP_plus_uconst 16, DW_OP_stack_value] $sp
	@DEBUG_VALUE: __destruct_at_end:__soon_to_be_end <- $r5
	.loc	14 427 23 is_stmt 0             @ Keil_v5\ARM\ARMCLANG\Bin\..\include\libcxx\vector:427:23
	adds	r6, #64
	sub.w	r5, r5, #64
.Ltmp137:
	.loc	14 427 5                        @ Keil_v5\ARM\ARMCLANG\Bin\..\include\libcxx\vector:427:5
	beq	.LBB2_30
.Ltmp138:
.LBB2_26:                               @ =>This Inner Loop Header: Depth=1
	@DEBUG_VALUE: StartProfiling:this <- $r8
	@DEBUG_VALUE: __destruct_at_end:__new_last <- $r4
	@DEBUG_VALUE: clear:this <- [DW_OP_plus_uconst 16, DW_OP_plus_uconst 12, DW_OP_stack_value] $sp
	@DEBUG_VALUE: __destruct_at_end:this <- [DW_OP_plus_uconst 16, DW_OP_plus_uconst 12, DW_OP_stack_value] $sp
	@DEBUG_VALUE: ~pair:this <- [DW_OP_plus_uconst 16, DW_OP_stack_value] $sp
	@DEBUG_VALUE: __destruct_at_end:__soon_to_be_end <- $r5
	@DEBUG_VALUE: destroy<arm::app::Statistics, void>:__p <- $r5
	@DEBUG_VALUE: destroy:__p <- $r5
	@DEBUG_VALUE: ~Statistics:this <- $r5
	@DEBUG_VALUE: ~basic_string:this <- [DW_OP_plus_uconst 64, DW_OP_constu 52, DW_OP_minus, DW_OP_stack_value] $r5
	@DEBUG_VALUE: __is_long:this <- [DW_OP_plus_uconst 64, DW_OP_constu 52, DW_OP_minus, DW_OP_stack_value] $r5
	.loc	6 1463 39 is_stmt 1             @ Keil_v5\ARM\ARMCLANG\Bin\..\include\libcxx\string:1463:39
	ldrsb.w	r0, [r5, #23]
.Ltmp139:
	.loc	6 2237 9                        @ Keil_v5\ARM\ARMCLANG\Bin\..\include\libcxx\string:2237:9
	cmp.w	r0, #-1
.Ltmp140:
	@DEBUG_VALUE: destroy:this <- [DW_OP_plus_uconst 16, DW_OP_plus_uconst 12, DW_OP_plus_uconst 8, DW_OP_stack_value] $sp
	@DEBUG_VALUE: destroy<arm::app::Statistics, void>:__a <- [DW_OP_plus_uconst 16, DW_OP_plus_uconst 12, DW_OP_plus_uconst 8, DW_OP_stack_value] $sp
	bgt	.LBB2_28
.Ltmp141:
@ %bb.27:                               @   in Loop: Header=BB2_26 Depth=1
	@DEBUG_VALUE: StartProfiling:this <- $r8
	@DEBUG_VALUE: ~basic_string:this <- [DW_OP_plus_uconst 64, DW_OP_constu 52, DW_OP_minus, DW_OP_stack_value] $r5
	@DEBUG_VALUE: ~Statistics:this <- $r5
	@DEBUG_VALUE: destroy:__p <- $r5
	@DEBUG_VALUE: destroy<arm::app::Statistics, void>:__p <- $r5
	@DEBUG_VALUE: __destruct_at_end:__soon_to_be_end <- $r5
	@DEBUG_VALUE: __destruct_at_end:__new_last <- $r4
	@DEBUG_VALUE: destroy<arm::app::Statistics, void>:__a <- [DW_OP_plus_uconst 16, DW_OP_plus_uconst 12, DW_OP_plus_uconst 8, DW_OP_stack_value] $sp
	@DEBUG_VALUE: destroy:this <- [DW_OP_plus_uconst 16, DW_OP_plus_uconst 12, DW_OP_plus_uconst 8, DW_OP_stack_value] $sp
	@DEBUG_VALUE: clear:this <- [DW_OP_plus_uconst 16, DW_OP_plus_uconst 12, DW_OP_stack_value] $sp
	@DEBUG_VALUE: __destruct_at_end:this <- [DW_OP_plus_uconst 16, DW_OP_plus_uconst 12, DW_OP_stack_value] $sp
	@DEBUG_VALUE: ~pair:this <- [DW_OP_plus_uconst 16, DW_OP_stack_value] $sp
	@DEBUG_VALUE: __get_long_pointer:this <- [DW_OP_plus_uconst 64, DW_OP_constu 52, DW_OP_minus, DW_OP_stack_value] $r5
	.loc	6 1542 34                       @ Keil_v5\ARM\ARMCLANG\Bin\..\include\libcxx\string:1542:34
	ldr	r0, [r5, #12]
.Ltmp142:
	@DEBUG_VALUE: __do_deallocate_handle_size<>:__size <- undef
	@DEBUG_VALUE: __libcpp_deallocate:__align <- 1
	@DEBUG_VALUE: __libcpp_deallocate:__size <- undef
	@DEBUG_VALUE: deallocate:__n <- undef
	@DEBUG_VALUE: deallocate:this <- undef
	@DEBUG_VALUE: deallocate:__n <- undef
	@DEBUG_VALUE: deallocate:__a <- undef
	@DEBUG_VALUE: __libcpp_operator_delete<void *>:__args <- $r0
	@DEBUG_VALUE: __do_deallocate_handle_size<>:__ptr <- $r0
	@DEBUG_VALUE: __libcpp_deallocate:__ptr <- $r0
	@DEBUG_VALUE: deallocate:__p <- $r0
	@DEBUG_VALUE: deallocate:__p <- $r0
	.loc	43 251 3                        @ Keil_v5\ARM\ARMCLANG\Bin\..\include\libcxx\new:251:3
	bl	_ZdlPv
.Ltmp143:
.LBB2_28:                               @   in Loop: Header=BB2_26 Depth=1
	@DEBUG_VALUE: StartProfiling:this <- $r8
	@DEBUG_VALUE: ~Statistics:this <- $r5
	@DEBUG_VALUE: destroy:__p <- $r5
	@DEBUG_VALUE: destroy<arm::app::Statistics, void>:__p <- $r5
	@DEBUG_VALUE: __destruct_at_end:__soon_to_be_end <- $r5
	@DEBUG_VALUE: __destruct_at_end:__new_last <- $r4
	@DEBUG_VALUE: destroy<arm::app::Statistics, void>:__a <- [DW_OP_plus_uconst 16, DW_OP_plus_uconst 12, DW_OP_plus_uconst 8, DW_OP_stack_value] $sp
	@DEBUG_VALUE: destroy:this <- [DW_OP_plus_uconst 16, DW_OP_plus_uconst 12, DW_OP_plus_uconst 8, DW_OP_stack_value] $sp
	@DEBUG_VALUE: clear:this <- [DW_OP_plus_uconst 16, DW_OP_plus_uconst 12, DW_OP_stack_value] $sp
	@DEBUG_VALUE: __destruct_at_end:this <- [DW_OP_plus_uconst 16, DW_OP_plus_uconst 12, DW_OP_stack_value] $sp
	@DEBUG_VALUE: ~pair:this <- [DW_OP_plus_uconst 16, DW_OP_stack_value] $sp
	@DEBUG_VALUE: ~basic_string:this <- $r5
	@DEBUG_VALUE: __is_long:this <- $r5
	.loc	6 1463 39                       @ Keil_v5\ARM\ARMCLANG\Bin\..\include\libcxx\string:1463:39
	ldrsb.w	r0, [r5, #11]
.Ltmp144:
	.loc	6 2237 9                        @ Keil_v5\ARM\ARMCLANG\Bin\..\include\libcxx\string:2237:9
	cmp.w	r0, #-1
	bgt	.LBB2_25
.Ltmp145:
@ %bb.29:                               @   in Loop: Header=BB2_26 Depth=1
	@DEBUG_VALUE: StartProfiling:this <- $r8
	@DEBUG_VALUE: ~basic_string:this <- $r5
	@DEBUG_VALUE: ~Statistics:this <- $r5
	@DEBUG_VALUE: destroy:__p <- $r5
	@DEBUG_VALUE: destroy<arm::app::Statistics, void>:__p <- $r5
	@DEBUG_VALUE: __destruct_at_end:__soon_to_be_end <- $r5
	@DEBUG_VALUE: __destruct_at_end:__new_last <- $r4
	@DEBUG_VALUE: destroy<arm::app::Statistics, void>:__a <- [DW_OP_plus_uconst 16, DW_OP_plus_uconst 12, DW_OP_plus_uconst 8, DW_OP_stack_value] $sp
	@DEBUG_VALUE: destroy:this <- [DW_OP_plus_uconst 16, DW_OP_plus_uconst 12, DW_OP_plus_uconst 8, DW_OP_stack_value] $sp
	@DEBUG_VALUE: clear:this <- [DW_OP_plus_uconst 16, DW_OP_plus_uconst 12, DW_OP_stack_value] $sp
	@DEBUG_VALUE: __destruct_at_end:this <- [DW_OP_plus_uconst 16, DW_OP_plus_uconst 12, DW_OP_stack_value] $sp
	@DEBUG_VALUE: ~pair:this <- [DW_OP_plus_uconst 16, DW_OP_stack_value] $sp
	@DEBUG_VALUE: ~basic_string:this <- $r5
	@DEBUG_VALUE: __get_long_pointer:this <- $r5
	.loc	6 1542 34                       @ Keil_v5\ARM\ARMCLANG\Bin\..\include\libcxx\string:1542:34
	ldr	r0, [r5]
.Ltmp146:
	@DEBUG_VALUE: __do_deallocate_handle_size<>:__size <- undef
	@DEBUG_VALUE: __libcpp_deallocate:__align <- 1
	@DEBUG_VALUE: __libcpp_deallocate:__size <- undef
	@DEBUG_VALUE: deallocate:__n <- undef
	@DEBUG_VALUE: deallocate:this <- undef
	@DEBUG_VALUE: deallocate:__n <- undef
	@DEBUG_VALUE: deallocate:__a <- undef
	@DEBUG_VALUE: __libcpp_operator_delete<void *>:__args <- $r0
	@DEBUG_VALUE: __do_deallocate_handle_size<>:__ptr <- $r0
	@DEBUG_VALUE: __libcpp_deallocate:__ptr <- $r0
	@DEBUG_VALUE: deallocate:__p <- $r0
	@DEBUG_VALUE: deallocate:__p <- $r0
	.loc	43 251 3                        @ Keil_v5\ARM\ARMCLANG\Bin\..\include\libcxx\new:251:3
	bl	_ZdlPv
.Ltmp147:
	.loc	43 0 3 is_stmt 0                @ Keil_v5\ARM\ARMCLANG\Bin\..\include\libcxx\new:0:3
	b	.LBB2_25
.Ltmp148:
.LBB2_30:
	@DEBUG_VALUE: StartProfiling:this <- $r8
	@DEBUG_VALUE: ~pair:this <- [DW_OP_plus_uconst 16, DW_OP_stack_value] $sp
	.loc	14 466 47 is_stmt 1             @ Keil_v5\ARM\ARMCLANG\Bin\..\include\libcxx\vector:466:47
	ldr	r0, [sp, #28]
	b	.LBB2_32
.Ltmp149:
.LBB2_31:
	@DEBUG_VALUE: StartProfiling:this <- $r8
	@DEBUG_VALUE: ~pair:this <- [DW_OP_plus_uconst 16, DW_OP_stack_value] $sp
	mov	r0, r4
.Ltmp150:
.LBB2_32:
	@DEBUG_VALUE: StartProfiling:this <- $r8
	@DEBUG_VALUE: ~pair:this <- [DW_OP_plus_uconst 16, DW_OP_stack_value] $sp
	.loc	14 429 12                       @ Keil_v5\ARM\ARMCLANG\Bin\..\include\libcxx\vector:429:12
	str	r4, [sp, #32]
.Ltmp151:
	@DEBUG_VALUE: __libcpp_operator_delete<void *>:__args <- $r0
	@DEBUG_VALUE: __do_deallocate_handle_size<>:__size <- [DW_OP_constu 6, DW_OP_shra, DW_OP_constu 6, DW_OP_shl, DW_OP_stack_value] undef
	@DEBUG_VALUE: __do_deallocate_handle_size<>:__ptr <- $r0
	@DEBUG_VALUE: __libcpp_deallocate:__align <- 8
	@DEBUG_VALUE: __libcpp_deallocate:__size <- [DW_OP_constu 6, DW_OP_shra, DW_OP_constu 6, DW_OP_shl, DW_OP_stack_value] undef
	@DEBUG_VALUE: __libcpp_deallocate:__ptr <- $r0
	@DEBUG_VALUE: deallocate:__n <- [DW_OP_constu 6, DW_OP_shra, DW_OP_stack_value] undef
	@DEBUG_VALUE: deallocate:__p <- undef
	@DEBUG_VALUE: deallocate:__n <- [DW_OP_constu 6, DW_OP_shra, DW_OP_stack_value] undef
	@DEBUG_VALUE: deallocate:__p <- undef
	.loc	43 251 3                        @ Keil_v5\ARM\ARMCLANG\Bin\..\include\libcxx\new:251:3
	bl	_ZdlPv
.Ltmp152:
	@DEBUG_VALUE: deallocate:this <- [DW_OP_plus_uconst 16, DW_OP_plus_uconst 12, DW_OP_plus_uconst 8, DW_OP_stack_value] $sp
	@DEBUG_VALUE: deallocate:__a <- [DW_OP_plus_uconst 16, DW_OP_plus_uconst 12, DW_OP_plus_uconst 8, DW_OP_stack_value] $sp
.LBB2_33:
	@DEBUG_VALUE: StartProfiling:this <- $r8
	@DEBUG_VALUE: ~pair:this <- [DW_OP_plus_uconst 16, DW_OP_stack_value] $sp
	@DEBUG_VALUE: ~basic_string:this <- [DW_OP_plus_uconst 16, DW_OP_stack_value] $sp
	@DEBUG_VALUE: __is_long:this <- [DW_OP_plus_uconst 16, DW_OP_stack_value] $sp
	.loc	6 1463 39                       @ Keil_v5\ARM\ARMCLANG\Bin\..\include\libcxx\string:1463:39
	ldrsb.w	r0, [sp, #27]
.Ltmp153:
	.loc	6 2237 9                        @ Keil_v5\ARM\ARMCLANG\Bin\..\include\libcxx\string:2237:9
	cmp.w	r0, #-1
	bgt	.LBB2_35
.Ltmp154:
@ %bb.34:
	@DEBUG_VALUE: StartProfiling:this <- $r8
	@DEBUG_VALUE: ~basic_string:this <- [DW_OP_plus_uconst 16, DW_OP_stack_value] $sp
	@DEBUG_VALUE: ~pair:this <- [DW_OP_plus_uconst 16, DW_OP_stack_value] $sp
	@DEBUG_VALUE: ~basic_string:this <- [DW_OP_plus_uconst 16, DW_OP_stack_value] $sp
	@DEBUG_VALUE: __get_long_pointer:this <- [DW_OP_plus_uconst 16, DW_OP_stack_value] $sp
	.loc	6 1542 34                       @ Keil_v5\ARM\ARMCLANG\Bin\..\include\libcxx\string:1542:34
	ldr	r0, [sp, #16]
.Ltmp155:
	@DEBUG_VALUE: __do_deallocate_handle_size<>:__size <- undef
	@DEBUG_VALUE: __libcpp_deallocate:__align <- 1
	@DEBUG_VALUE: __libcpp_deallocate:__size <- undef
	@DEBUG_VALUE: deallocate:__n <- undef
	@DEBUG_VALUE: deallocate:this <- undef
	@DEBUG_VALUE: deallocate:__n <- undef
	@DEBUG_VALUE: deallocate:__a <- undef
	@DEBUG_VALUE: __libcpp_operator_delete<void *>:__args <- $r0
	@DEBUG_VALUE: __do_deallocate_handle_size<>:__ptr <- $r0
	@DEBUG_VALUE: __libcpp_deallocate:__ptr <- $r0
	@DEBUG_VALUE: deallocate:__p <- $r0
	@DEBUG_VALUE: deallocate:__p <- $r0
	.loc	43 251 3                        @ Keil_v5\ARM\ARMCLANG\Bin\..\include\libcxx\new:251:3
	bl	_ZdlPv
.Ltmp156:
.LBB2_35:
	@DEBUG_VALUE: StartProfiling:this <- $r8
	@DEBUG_VALUE: ~vector:this <- [DW_OP_plus_uconst 4, DW_OP_stack_value] $sp
	@DEBUG_VALUE: ~__vector_base:this <- [DW_OP_plus_uconst 4, DW_OP_stack_value] $sp
	.loc	14 463 9                        @ Keil_v5\ARM\ARMCLANG\Bin\..\include\libcxx\vector:463:9
	ldr	r4, [sp, #4]
.Ltmp157:
	.loc	14 463 9 is_stmt 0              @ Keil_v5\ARM\ARMCLANG\Bin\..\include\libcxx\vector:463:9
	cbz	r4, .LBB2_46
.Ltmp158:
@ %bb.36:
	@DEBUG_VALUE: StartProfiling:this <- $r8
	@DEBUG_VALUE: ~__vector_base:this <- [DW_OP_plus_uconst 4, DW_OP_stack_value] $sp
	@DEBUG_VALUE: ~vector:this <- [DW_OP_plus_uconst 4, DW_OP_stack_value] $sp
	@DEBUG_VALUE: clear:this <- [DW_OP_plus_uconst 4, DW_OP_stack_value] $sp
	@DEBUG_VALUE: __destruct_at_end:this <- [DW_OP_plus_uconst 4, DW_OP_stack_value] $sp
	@DEBUG_VALUE: __destruct_at_end:__new_last <- $r4
	.loc	14 426 32 is_stmt 1             @ Keil_v5\ARM\ARMCLANG\Bin\..\include\libcxx\vector:426:32
	ldr	r0, [sp, #8]
.Ltmp159:
	@DEBUG_VALUE: __destruct_at_end:__soon_to_be_end <- $r0
	.loc	14 427 5                        @ Keil_v5\ARM\ARMCLANG\Bin\..\include\libcxx\vector:427:5
	cmp	r0, r4
	beq	.LBB2_44
.Ltmp160:
@ %bb.37:
	@DEBUG_VALUE: StartProfiling:this <- $r8
	@DEBUG_VALUE: __destruct_at_end:__new_last <- $r4
	@DEBUG_VALUE: __destruct_at_end:__soon_to_be_end <- $r0
	@DEBUG_VALUE: __destruct_at_end:this <- [DW_OP_plus_uconst 4, DW_OP_stack_value] $sp
	@DEBUG_VALUE: clear:this <- [DW_OP_plus_uconst 4, DW_OP_stack_value] $sp
	@DEBUG_VALUE: ~__vector_base:this <- [DW_OP_plus_uconst 4, DW_OP_stack_value] $sp
	@DEBUG_VALUE: ~vector:this <- [DW_OP_plus_uconst 4, DW_OP_stack_value] $sp
	sub.w	r5, r0, #64
	subs	r6, r4, r0
	b	.LBB2_39
.Ltmp161:
	.p2align	2
.LBB2_38:                               @   in Loop: Header=BB2_39 Depth=1
	@DEBUG_VALUE: StartProfiling:this <- $r8
	@DEBUG_VALUE: __destruct_at_end:__soon_to_be_end <- $r5
	@DEBUG_VALUE: __destruct_at_end:__new_last <- $r4
	@DEBUG_VALUE: __destruct_at_end:this <- [DW_OP_plus_uconst 4, DW_OP_stack_value] $sp
	@DEBUG_VALUE: clear:this <- [DW_OP_plus_uconst 4, DW_OP_stack_value] $sp
	@DEBUG_VALUE: ~__vector_base:this <- [DW_OP_plus_uconst 4, DW_OP_stack_value] $sp
	@DEBUG_VALUE: ~vector:this <- [DW_OP_plus_uconst 4, DW_OP_stack_value] $sp
	@DEBUG_VALUE: __destruct_at_end:__soon_to_be_end <- $r5
	.loc	14 427 23 is_stmt 0             @ Keil_v5\ARM\ARMCLANG\Bin\..\include\libcxx\vector:427:23
	adds	r6, #64
	sub.w	r5, r5, #64
.Ltmp162:
	.loc	14 427 5                        @ Keil_v5\ARM\ARMCLANG\Bin\..\include\libcxx\vector:427:5
	beq	.LBB2_43
.Ltmp163:
.LBB2_39:                               @ =>This Inner Loop Header: Depth=1
	@DEBUG_VALUE: StartProfiling:this <- $r8
	@DEBUG_VALUE: __destruct_at_end:__new_last <- $r4
	@DEBUG_VALUE: __destruct_at_end:this <- [DW_OP_plus_uconst 4, DW_OP_stack_value] $sp
	@DEBUG_VALUE: clear:this <- [DW_OP_plus_uconst 4, DW_OP_stack_value] $sp
	@DEBUG_VALUE: ~__vector_base:this <- [DW_OP_plus_uconst 4, DW_OP_stack_value] $sp
	@DEBUG_VALUE: ~vector:this <- [DW_OP_plus_uconst 4, DW_OP_stack_value] $sp
	@DEBUG_VALUE: __destruct_at_end:__soon_to_be_end <- $r5
	@DEBUG_VALUE: destroy<arm::app::Statistics, void>:__a <- [DW_OP_plus_uconst 4, DW_OP_plus_uconst 8, DW_OP_stack_value] $sp
	@DEBUG_VALUE: destroy<arm::app::Statistics, void>:__p <- $r5
	@DEBUG_VALUE: destroy:this <- [DW_OP_plus_uconst 4, DW_OP_plus_uconst 8, DW_OP_stack_value] $sp
	@DEBUG_VALUE: destroy:__p <- $r5
	@DEBUG_VALUE: ~Statistics:this <- $r5
	@DEBUG_VALUE: ~basic_string:this <- [DW_OP_plus_uconst 64, DW_OP_constu 52, DW_OP_minus, DW_OP_stack_value] $r5
	@DEBUG_VALUE: __is_long:this <- [DW_OP_plus_uconst 64, DW_OP_constu 52, DW_OP_minus, DW_OP_stack_value] $r5
	.loc	6 1463 39 is_stmt 1             @ Keil_v5\ARM\ARMCLANG\Bin\..\include\libcxx\string:1463:39
	ldrsb.w	r0, [r5, #23]
.Ltmp164:
	.loc	6 2237 9                        @ Keil_v5\ARM\ARMCLANG\Bin\..\include\libcxx\string:2237:9
	cmp.w	r0, #-1
	bgt	.LBB2_41
.Ltmp165:
@ %bb.40:                               @   in Loop: Header=BB2_39 Depth=1
	@DEBUG_VALUE: StartProfiling:this <- $r8
	@DEBUG_VALUE: ~basic_string:this <- [DW_OP_plus_uconst 64, DW_OP_constu 52, DW_OP_minus, DW_OP_stack_value] $r5
	@DEBUG_VALUE: ~Statistics:this <- $r5
	@DEBUG_VALUE: destroy:__p <- $r5
	@DEBUG_VALUE: destroy<arm::app::Statistics, void>:__p <- $r5
	@DEBUG_VALUE: __destruct_at_end:__soon_to_be_end <- $r5
	@DEBUG_VALUE: __destruct_at_end:__new_last <- $r4
	@DEBUG_VALUE: destroy:this <- [DW_OP_plus_uconst 4, DW_OP_plus_uconst 8, DW_OP_stack_value] $sp
	@DEBUG_VALUE: destroy<arm::app::Statistics, void>:__a <- [DW_OP_plus_uconst 4, DW_OP_plus_uconst 8, DW_OP_stack_value] $sp
	@DEBUG_VALUE: __destruct_at_end:this <- [DW_OP_plus_uconst 4, DW_OP_stack_value] $sp
	@DEBUG_VALUE: clear:this <- [DW_OP_plus_uconst 4, DW_OP_stack_value] $sp
	@DEBUG_VALUE: ~__vector_base:this <- [DW_OP_plus_uconst 4, DW_OP_stack_value] $sp
	@DEBUG_VALUE: ~vector:this <- [DW_OP_plus_uconst 4, DW_OP_stack_value] $sp
	@DEBUG_VALUE: __get_long_pointer:this <- [DW_OP_plus_uconst 64, DW_OP_constu 52, DW_OP_minus, DW_OP_stack_value] $r5
	.loc	6 1542 34                       @ Keil_v5\ARM\ARMCLANG\Bin\..\include\libcxx\string:1542:34
	ldr	r0, [r5, #12]
.Ltmp166:
	@DEBUG_VALUE: __do_deallocate_handle_size<>:__size <- undef
	@DEBUG_VALUE: __libcpp_deallocate:__align <- 1
	@DEBUG_VALUE: __libcpp_deallocate:__size <- undef
	@DEBUG_VALUE: deallocate:__n <- undef
	@DEBUG_VALUE: deallocate:this <- undef
	@DEBUG_VALUE: deallocate:__n <- undef
	@DEBUG_VALUE: deallocate:__a <- undef
	@DEBUG_VALUE: __libcpp_operator_delete<void *>:__args <- $r0
	@DEBUG_VALUE: __do_deallocate_handle_size<>:__ptr <- $r0
	@DEBUG_VALUE: __libcpp_deallocate:__ptr <- $r0
	@DEBUG_VALUE: deallocate:__p <- $r0
	@DEBUG_VALUE: deallocate:__p <- $r0
	.loc	43 251 3                        @ Keil_v5\ARM\ARMCLANG\Bin\..\include\libcxx\new:251:3
	bl	_ZdlPv
.Ltmp167:
.LBB2_41:                               @   in Loop: Header=BB2_39 Depth=1
	@DEBUG_VALUE: StartProfiling:this <- $r8
	@DEBUG_VALUE: ~Statistics:this <- $r5
	@DEBUG_VALUE: destroy:__p <- $r5
	@DEBUG_VALUE: destroy<arm::app::Statistics, void>:__p <- $r5
	@DEBUG_VALUE: __destruct_at_end:__soon_to_be_end <- $r5
	@DEBUG_VALUE: __destruct_at_end:__new_last <- $r4
	@DEBUG_VALUE: destroy:this <- [DW_OP_plus_uconst 4, DW_OP_plus_uconst 8, DW_OP_stack_value] $sp
	@DEBUG_VALUE: destroy<arm::app::Statistics, void>:__a <- [DW_OP_plus_uconst 4, DW_OP_plus_uconst 8, DW_OP_stack_value] $sp
	@DEBUG_VALUE: __destruct_at_end:this <- [DW_OP_plus_uconst 4, DW_OP_stack_value] $sp
	@DEBUG_VALUE: clear:this <- [DW_OP_plus_uconst 4, DW_OP_stack_value] $sp
	@DEBUG_VALUE: ~__vector_base:this <- [DW_OP_plus_uconst 4, DW_OP_stack_value] $sp
	@DEBUG_VALUE: ~vector:this <- [DW_OP_plus_uconst 4, DW_OP_stack_value] $sp
	@DEBUG_VALUE: ~basic_string:this <- $r5
	@DEBUG_VALUE: __is_long:this <- $r5
	.loc	6 1463 39                       @ Keil_v5\ARM\ARMCLANG\Bin\..\include\libcxx\string:1463:39
	ldrsb.w	r0, [r5, #11]
.Ltmp168:
	.loc	6 2237 9                        @ Keil_v5\ARM\ARMCLANG\Bin\..\include\libcxx\string:2237:9
	cmp.w	r0, #-1
	bgt	.LBB2_38
.Ltmp169:
@ %bb.42:                               @   in Loop: Header=BB2_39 Depth=1
	@DEBUG_VALUE: StartProfiling:this <- $r8
	@DEBUG_VALUE: ~basic_string:this <- $r5
	@DEBUG_VALUE: ~Statistics:this <- $r5
	@DEBUG_VALUE: destroy:__p <- $r5
	@DEBUG_VALUE: destroy<arm::app::Statistics, void>:__p <- $r5
	@DEBUG_VALUE: __destruct_at_end:__soon_to_be_end <- $r5
	@DEBUG_VALUE: __destruct_at_end:__new_last <- $r4
	@DEBUG_VALUE: destroy:this <- [DW_OP_plus_uconst 4, DW_OP_plus_uconst 8, DW_OP_stack_value] $sp
	@DEBUG_VALUE: destroy<arm::app::Statistics, void>:__a <- [DW_OP_plus_uconst 4, DW_OP_plus_uconst 8, DW_OP_stack_value] $sp
	@DEBUG_VALUE: __destruct_at_end:this <- [DW_OP_plus_uconst 4, DW_OP_stack_value] $sp
	@DEBUG_VALUE: clear:this <- [DW_OP_plus_uconst 4, DW_OP_stack_value] $sp
	@DEBUG_VALUE: ~__vector_base:this <- [DW_OP_plus_uconst 4, DW_OP_stack_value] $sp
	@DEBUG_VALUE: ~vector:this <- [DW_OP_plus_uconst 4, DW_OP_stack_value] $sp
	@DEBUG_VALUE: ~basic_string:this <- $r5
	@DEBUG_VALUE: __get_long_pointer:this <- $r5
	.loc	6 1542 34                       @ Keil_v5\ARM\ARMCLANG\Bin\..\include\libcxx\string:1542:34
	ldr	r0, [r5]
.Ltmp170:
	@DEBUG_VALUE: __do_deallocate_handle_size<>:__size <- undef
	@DEBUG_VALUE: __libcpp_deallocate:__align <- 1
	@DEBUG_VALUE: __libcpp_deallocate:__size <- undef
	@DEBUG_VALUE: deallocate:__n <- undef
	@DEBUG_VALUE: deallocate:this <- undef
	@DEBUG_VALUE: deallocate:__n <- undef
	@DEBUG_VALUE: deallocate:__a <- undef
	@DEBUG_VALUE: __libcpp_operator_delete<void *>:__args <- $r0
	@DEBUG_VALUE: __do_deallocate_handle_size<>:__ptr <- $r0
	@DEBUG_VALUE: __libcpp_deallocate:__ptr <- $r0
	@DEBUG_VALUE: deallocate:__p <- $r0
	@DEBUG_VALUE: deallocate:__p <- $r0
	.loc	43 251 3                        @ Keil_v5\ARM\ARMCLANG\Bin\..\include\libcxx\new:251:3
	bl	_ZdlPv
.Ltmp171:
	.loc	43 0 3 is_stmt 0                @ Keil_v5\ARM\ARMCLANG\Bin\..\include\libcxx\new:0:3
	b	.LBB2_38
.Ltmp172:
.LBB2_43:
	@DEBUG_VALUE: StartProfiling:this <- $r8
	@DEBUG_VALUE: ~__vector_base:this <- [DW_OP_plus_uconst 4, DW_OP_stack_value] $sp
	@DEBUG_VALUE: ~vector:this <- [DW_OP_plus_uconst 4, DW_OP_stack_value] $sp
	.loc	14 466 47 is_stmt 1             @ Keil_v5\ARM\ARMCLANG\Bin\..\include\libcxx\vector:466:47
	ldr	r0, [sp, #4]
	b	.LBB2_45
.Ltmp173:
.LBB2_44:
	@DEBUG_VALUE: StartProfiling:this <- $r8
	@DEBUG_VALUE: ~__vector_base:this <- [DW_OP_plus_uconst 4, DW_OP_stack_value] $sp
	@DEBUG_VALUE: ~vector:this <- [DW_OP_plus_uconst 4, DW_OP_stack_value] $sp
	mov	r0, r4
.Ltmp174:
.LBB2_45:
	@DEBUG_VALUE: StartProfiling:this <- $r8
	@DEBUG_VALUE: ~__vector_base:this <- [DW_OP_plus_uconst 4, DW_OP_stack_value] $sp
	@DEBUG_VALUE: ~vector:this <- [DW_OP_plus_uconst 4, DW_OP_stack_value] $sp
	.loc	14 429 12                       @ Keil_v5\ARM\ARMCLANG\Bin\..\include\libcxx\vector:429:12
	str	r4, [sp, #8]
.Ltmp175:
	@DEBUG_VALUE: __libcpp_operator_delete<void *>:__args <- $r0
	@DEBUG_VALUE: __do_deallocate_handle_size<>:__size <- [DW_OP_constu 6, DW_OP_shra, DW_OP_constu 6, DW_OP_shl, DW_OP_stack_value] undef
	@DEBUG_VALUE: __do_deallocate_handle_size<>:__ptr <- $r0
	@DEBUG_VALUE: __libcpp_deallocate:__align <- 8
	@DEBUG_VALUE: __libcpp_deallocate:__size <- [DW_OP_constu 6, DW_OP_shra, DW_OP_constu 6, DW_OP_shl, DW_OP_stack_value] undef
	@DEBUG_VALUE: __libcpp_deallocate:__ptr <- $r0
	@DEBUG_VALUE: deallocate:__n <- [DW_OP_constu 6, DW_OP_shra, DW_OP_stack_value] undef
	@DEBUG_VALUE: deallocate:__p <- undef
	@DEBUG_VALUE: deallocate:this <- [DW_OP_plus_uconst 4, DW_OP_plus_uconst 8, DW_OP_stack_value] $sp
	@DEBUG_VALUE: deallocate:__n <- [DW_OP_constu 6, DW_OP_shra, DW_OP_stack_value] undef
	@DEBUG_VALUE: deallocate:__p <- undef
	@DEBUG_VALUE: deallocate:__a <- [DW_OP_plus_uconst 4, DW_OP_plus_uconst 8, DW_OP_stack_value] $sp
	.loc	43 251 3                        @ Keil_v5\ARM\ARMCLANG\Bin\..\include\libcxx\new:251:3
	bl	_ZdlPv
.Ltmp176:
.LBB2_46:
	@DEBUG_VALUE: StartProfiling:this <- $r8
	.loc	43 0 3 is_stmt 0                @ Keil_v5\ARM\ARMCLANG\Bin\..\include\libcxx\new:0:3
	movs	r0, #1
	.loc	41 50 33 is_stmt 1              @ ../../../../ThirdParty/ml-embedded-evaluation-kit/source/profiler/Profiler.cc:50:33
	strb.w	r0, [r8, #352]
.Ltmp177:
	.loc	41 56 5                         @ ../../../../ThirdParty/ml-embedded-evaluation-kit/source/profiler/Profiler.cc:56:5
	add	sp, #44
	pop.w	{r4, r5, r6, r7, r8, r9, pc}
.Ltmp178:
.LBB2_47:
	@DEBUG_VALUE: SetName:this <- $r8
	@DEBUG_VALUE: StartProfiling:this <- $r8
	@DEBUG_VALUE: __init:__s <- $r5
	@DEBUG_VALUE: basic_string<nullptr_t>:__s <- $r5
	@DEBUG_VALUE: SetName:str <- $r5
	@DEBUG_VALUE: StartProfiling:name <- $r5
	@DEBUG_VALUE: __init:__sz <- $r0
	@DEBUG_VALUE: __init:this <- [DW_OP_plus_uconst 16, DW_OP_stack_value] $sp
	@DEBUG_VALUE: basic_string<nullptr_t>:this <- [DW_OP_plus_uconst 16, DW_OP_stack_value] $sp
	.loc	41 0 5 is_stmt 0                @ ../../../../ThirdParty/ml-embedded-evaluation-kit/source/profiler/Profiler.cc:0:5
	add	r0, sp, #16
.Ltmp179:
	.loc	6 1862 15 is_stmt 1             @ Keil_v5\ARM\ARMCLANG\Bin\..\include\libcxx\string:1862:15
	bl	_ZNKSt3__221__basic_string_commonILb1EE20__throw_length_errorEv
.Ltmp180:
.LBB2_48:
	@DEBUG_VALUE: StartProfiling:this <- $r8
	@DEBUG_VALUE: __vallocate:__n <- $r4
	@DEBUG_VALUE: vector:__n <- $r4
	@DEBUG_VALUE: __vallocate:this <- [DW_OP_plus_uconst 4, DW_OP_stack_value] $sp
	@DEBUG_VALUE: vector:this <- [DW_OP_plus_uconst 4, DW_OP_stack_value] $sp
	.loc	6 0 15 is_stmt 0                @ Keil_v5\ARM\ARMCLANG\Bin\..\include\libcxx\string:0:15
	add	r0, sp, #4
.Ltmp181:
	.loc	14 992 15 is_stmt 1             @ Keil_v5\ARM\ARMCLANG\Bin\..\include\libcxx\vector:992:15
	bl	_ZNKSt3__220__vector_base_commonILb1EE20__throw_length_errorEv
.Ltmp182:
	.p2align	2
@ %bb.49:
	.loc	14 0 15 is_stmt 0               @ Keil_v5\ARM\ARMCLANG\Bin\..\include\libcxx\vector:0:15
.LCPI2_0:
.L.str.2:
	.asciz	"Failed to start profiler %s\n\000\000\000"
.Lfunc_end2:
	.size	_ZN3arm3app8Profiler14StartProfilingEPKc, .Lfunc_end2-_ZN3arm3app8Profiler14StartProfilingEPKc
	.cfi_endproc
	.file	44 "<stdin>"
	.cantunwind
	.fnend
                                        @ -- End function
	.section	.text._ZN3arm3app8Profiler7SetNameEPKc,"ax",%progbits
	.hidden	_ZN3arm3app8Profiler7SetNameEPKc @ -- Begin function _ZN3arm3app8Profiler7SetNameEPKc
	.globl	_ZN3arm3app8Profiler7SetNameEPKc
	.p2align	2
	.type	_ZN3arm3app8Profiler7SetNameEPKc,%function
	.code	16                              @ @_ZN3arm3app8Profiler7SetNameEPKc
	.thumb_func
_ZN3arm3app8Profiler7SetNameEPKc:
.Lfunc_begin3:
	.loc	41 151 0 is_stmt 1              @ ../../../../ThirdParty/ml-embedded-evaluation-kit/source/profiler/Profiler.cc:151:0
	.fnstart
	.cfi_startproc
@ %bb.0:
	@DEBUG_VALUE: SetName:this <- $r0
	@DEBUG_VALUE: SetName:str <- $r1
	.save	{r4, r5, r6, r7, r8, lr}
	push.w	{r4, r5, r6, r7, r8, lr}
	.cfi_def_cfa_offset 24
	.cfi_offset lr, -4
	.cfi_offset r8, -8
	.cfi_offset r7, -12
	.cfi_offset r6, -16
	.cfi_offset r5, -20
	.cfi_offset r4, -24
	.pad	#16
	sub	sp, #16
	.cfi_def_cfa_offset 40
	mov	r8, r0
.Ltmp183:
	@DEBUG_VALUE: SetName:this <- $r8
	@DEBUG_VALUE: length:__s <- $r6
	@DEBUG_VALUE: basic_string<nullptr_t>:__s <- $r6
	@DEBUG_VALUE: basic_string<nullptr_t>:this <- [DW_OP_plus_uconst 4, DW_OP_stack_value] $sp
	@DEBUG_VALUE: SetName:str <- $r6
	@DEBUG_VALUE: SetName:this <- $r8
	.loc	2 372 53 prologue_end           @ Keil_v5\ARM\ARMCLANG\Bin\..\include\libcxx\__string:372:53
	mov	r0, r1
	mov	r6, r1
.Ltmp184:
	bl	strlen
.Ltmp185:
	@DEBUG_VALUE: __init:__s <- $r6
	@DEBUG_VALUE: __init:this <- [DW_OP_plus_uconst 4, DW_OP_stack_value] $sp
	@DEBUG_VALUE: __init:__sz <- $r0
	.loc	6 1861 9                        @ Keil_v5\ARM\ARMCLANG\Bin\..\include\libcxx\string:1861:9
	cmn.w	r0, #16
	bhs	.LBB3_8
.Ltmp186:
@ %bb.1:
	@DEBUG_VALUE: SetName:this <- $r8
	@DEBUG_VALUE: __init:__s <- $r6
	@DEBUG_VALUE: __init:__sz <- $r0
	@DEBUG_VALUE: __init:this <- [DW_OP_plus_uconst 4, DW_OP_stack_value] $sp
	@DEBUG_VALUE: basic_string<nullptr_t>:this <- [DW_OP_plus_uconst 4, DW_OP_stack_value] $sp
	.loc	6 0 0 is_stmt 0                 @ Keil_v5\ARM\ARMCLANG\Bin\..\include\libcxx\string:0:0
	mov	r5, r0
.Ltmp187:
	@DEBUG_VALUE: __init:__sz <- $r5
	.loc	6 1864 9 is_stmt 1              @ Keil_v5\ARM\ARMCLANG\Bin\..\include\libcxx\string:1864:9
	cmp	r0, #11
	bhs	.LBB3_3
.Ltmp188:
@ %bb.2:
	@DEBUG_VALUE: SetName:this <- $r8
	@DEBUG_VALUE: __init:__s <- $r6
	@DEBUG_VALUE: __init:__sz <- $r5
	@DEBUG_VALUE: __init:this <- [DW_OP_plus_uconst 4, DW_OP_stack_value] $sp
	@DEBUG_VALUE: basic_string<nullptr_t>:this <- [DW_OP_plus_uconst 4, DW_OP_stack_value] $sp
	@DEBUG_VALUE: copy:__s1 <- [DW_OP_plus_uconst 4, DW_OP_stack_value] $sp
	@DEBUG_VALUE: __init:__p <- [DW_OP_plus_uconst 4, DW_OP_stack_value] $sp
	.loc	6 0 9 is_stmt 0                 @ Keil_v5\ARM\ARMCLANG\Bin\..\include\libcxx\string:0:9
	add	r7, sp, #4
.Ltmp189:
	@DEBUG_VALUE: __set_short_size:__s <- $r5
	@DEBUG_VALUE: __set_short_size:this <- [DW_OP_plus_uconst 4, DW_OP_stack_value] $sp
	.loc	6 1489 35 is_stmt 1             @ Keil_v5\ARM\ARMCLANG\Bin\..\include\libcxx\string:1489:35
	strb.w	r5, [sp, #15]
.Ltmp190:
	@DEBUG_VALUE: copy:__n <- $r5
	@DEBUG_VALUE: copy:__s2 <- $r6
	@DEBUG_VALUE: copy:__s1 <- [DW_OP_plus_uconst 4, DW_OP_stack_value] $sp
	.loc	2 388 26                        @ Keil_v5\ARM\ARMCLANG\Bin\..\include\libcxx\__string:388:26
	cbnz	r5, .LBB3_4
	b	.LBB3_5
.Ltmp191:
.LBB3_3:
	@DEBUG_VALUE: SetName:this <- $r8
	@DEBUG_VALUE: __init:__s <- $r6
	@DEBUG_VALUE: __init:__sz <- $r5
	@DEBUG_VALUE: __init:this <- [DW_OP_plus_uconst 4, DW_OP_stack_value] $sp
	@DEBUG_VALUE: basic_string<nullptr_t>:this <- [DW_OP_plus_uconst 4, DW_OP_stack_value] $sp
	@DEBUG_VALUE: __recommend:__s <- $r5
	.loc	6 1575 13                       @ Keil_v5\ARM\ARMCLANG\Bin\..\include\libcxx\string:1575:13
	add.w	r0, r5, #16
	bic	r4, r0, #15
.Ltmp192:
	@DEBUG_VALUE: __libcpp_allocate:__align <- 1
	@DEBUG_VALUE: allocate:this <- undef
	@DEBUG_VALUE: allocate:__a <- undef
	@DEBUG_VALUE: __libcpp_operator_new<unsigned int>:__args <- $r4
	@DEBUG_VALUE: __libcpp_allocate:__size <- $r4
	@DEBUG_VALUE: allocate:__n <- $r4
	@DEBUG_VALUE: allocate:__n <- $r4
	@DEBUG_VALUE: __cap <- [DW_OP_constu 1, DW_OP_minus, DW_OP_stack_value] $r4
	.loc	43 241 10                       @ Keil_v5\ARM\ARMCLANG\Bin\..\include\libcxx\new:241:10
	mov	r0, r4
	bl	_Znwj
.Ltmp193:
	mov	r7, r0
.Ltmp194:
	@DEBUG_VALUE: __set_long_pointer:this <- [DW_OP_plus_uconst 4, DW_OP_stack_value] $sp
	@DEBUG_VALUE: __set_long_pointer:__p <- $r7
	@DEBUG_VALUE: __init:__p <- $r7
	.loc	6 1539 35                       @ Keil_v5\ARM\ARMCLANG\Bin\..\include\libcxx\string:1539:35
	str	r0, [sp, #4]
.Ltmp195:
	@DEBUG_VALUE: __set_long_cap:__s <- $r4
	@DEBUG_VALUE: __set_long_cap:this <- [DW_OP_plus_uconst 4, DW_OP_stack_value] $sp
	.loc	6 1532 49                       @ Keil_v5\ARM\ARMCLANG\Bin\..\include\libcxx\string:1532:49
	orr	r0, r4, #-2147483648
.Ltmp196:
	@DEBUG_VALUE: __set_long_size:__s <- $r5
	@DEBUG_VALUE: __set_long_size:this <- [DW_OP_plus_uconst 4, DW_OP_stack_value] $sp
	.loc	6 1522 35                       @ Keil_v5\ARM\ARMCLANG\Bin\..\include\libcxx\string:1522:35
	strd	r5, r0, [sp, #8]
.Ltmp197:
	@DEBUG_VALUE: copy:__n <- $r5
	@DEBUG_VALUE: copy:__s2 <- $r6
.LBB3_4:
	@DEBUG_VALUE: SetName:this <- $r8
	@DEBUG_VALUE: copy:__s2 <- $r6
	@DEBUG_VALUE: __init:__s <- $r6
	@DEBUG_VALUE: copy:__n <- $r5
	@DEBUG_VALUE: __init:__sz <- $r5
	@DEBUG_VALUE: __init:this <- [DW_OP_plus_uconst 4, DW_OP_stack_value] $sp
	@DEBUG_VALUE: basic_string<nullptr_t>:this <- [DW_OP_plus_uconst 4, DW_OP_stack_value] $sp
	.loc	2 388 56                        @ Keil_v5\ARM\ARMCLANG\Bin\..\include\libcxx\__string:388:56
	mov	r0, r7
	mov	r1, r6
	mov	r2, r5
	bl	__aeabi_memcpy
.Ltmp198:
.LBB3_5:
	@DEBUG_VALUE: SetName:this <- $r8
	@DEBUG_VALUE: __init:__s <- $r6
	@DEBUG_VALUE: __init:__sz <- $r5
	@DEBUG_VALUE: __init:this <- [DW_OP_plus_uconst 4, DW_OP_stack_value] $sp
	@DEBUG_VALUE: basic_string<nullptr_t>:this <- [DW_OP_plus_uconst 4, DW_OP_stack_value] $sp
	@DEBUG_VALUE: assign:__c1 <- undef
	@DEBUG_VALUE: assign:__c2 <- undef
	.loc	2 0 56 is_stmt 0                @ Keil_v5\ARM\ARMCLANG\Bin\..\include\libcxx\__string:0:56
	movs	r0, #0
	.loc	41 152 15 is_stmt 1             @ ../../../../ThirdParty/ml-embedded-evaluation-kit/source/profiler/Profiler.cc:152:15
	add.w	r4, r8, #356
.Ltmp199:
	@DEBUG_VALUE: __move_assign:__str <- [DW_OP_plus_uconst 4, DW_OP_stack_value] $sp
	@DEBUG_VALUE: operator=:__str <- [DW_OP_plus_uconst 4, DW_OP_stack_value] $sp
	@DEBUG_VALUE: __is_long:this <- $r4
	@DEBUG_VALUE: __move_assign:this <- $r4
	@DEBUG_VALUE: operator=:this <- $r4
	.loc	2 363 73                        @ Keil_v5\ARM\ARMCLANG\Bin\..\include\libcxx\__string:363:73
	strb	r0, [r7, r5]
.Ltmp200:
	.loc	6 1463 39                       @ Keil_v5\ARM\ARMCLANG\Bin\..\include\libcxx\string:1463:39
	ldrsb.w	r0, [r8, #367]
.Ltmp201:
	.loc	6 2434 7                        @ Keil_v5\ARM\ARMCLANG\Bin\..\include\libcxx\string:2434:7
	cmp.w	r0, #-1
	bgt	.LBB3_7
.Ltmp202:
@ %bb.6:
	@DEBUG_VALUE: SetName:this <- $r8
	@DEBUG_VALUE: operator=:this <- $r4
	@DEBUG_VALUE: __move_assign:this <- $r4
	@DEBUG_VALUE: operator=:__str <- [DW_OP_plus_uconst 4, DW_OP_stack_value] $sp
	@DEBUG_VALUE: __move_assign:__str <- [DW_OP_plus_uconst 4, DW_OP_stack_value] $sp
	@DEBUG_VALUE: __get_long_pointer:this <- $r4
	.loc	6 1542 34                       @ Keil_v5\ARM\ARMCLANG\Bin\..\include\libcxx\string:1542:34
	ldr	r0, [r4]
.Ltmp203:
	@DEBUG_VALUE: __do_deallocate_handle_size<>:__size <- undef
	@DEBUG_VALUE: __libcpp_deallocate:__align <- 1
	@DEBUG_VALUE: __libcpp_deallocate:__size <- undef
	@DEBUG_VALUE: deallocate:__n <- undef
	@DEBUG_VALUE: deallocate:this <- undef
	@DEBUG_VALUE: deallocate:__n <- undef
	@DEBUG_VALUE: deallocate:__a <- undef
	@DEBUG_VALUE: __libcpp_operator_delete<void *>:__args <- $r0
	@DEBUG_VALUE: __do_deallocate_handle_size<>:__ptr <- $r0
	@DEBUG_VALUE: __libcpp_deallocate:__ptr <- $r0
	@DEBUG_VALUE: deallocate:__p <- $r0
	@DEBUG_VALUE: deallocate:__p <- $r0
	.loc	43 251 3                        @ Keil_v5\ARM\ARMCLANG\Bin\..\include\libcxx\new:251:3
	bl	_ZdlPv
.Ltmp204:
.LBB3_7:
	@DEBUG_VALUE: SetName:this <- $r8
	@DEBUG_VALUE: operator=:this <- $r4
	@DEBUG_VALUE: __move_assign:this <- $r4
	@DEBUG_VALUE: operator=:__str <- [DW_OP_plus_uconst 4, DW_OP_stack_value] $sp
	@DEBUG_VALUE: __move_assign:__str <- [DW_OP_plus_uconst 4, DW_OP_stack_value] $sp
	.loc	6 2445 16                       @ Keil_v5\ARM\ARMCLANG\Bin\..\include\libcxx\string:2445:16
	add	r2, sp, #4
	ldm	r2, {r0, r1, r2}
.Ltmp205:
	@DEBUG_VALUE: assign:__c1 <- [DW_OP_plus_uconst 4, DW_OP_stack_value] $sp
	@DEBUG_VALUE: __is_long:this <- [DW_OP_plus_uconst 4, DW_OP_stack_value] $sp
	@DEBUG_VALUE: assign:__c2 <- undef
	@DEBUG_VALUE: __set_short_size:__s <- 0
	@DEBUG_VALUE: __set_short_size:this <- [DW_OP_plus_uconst 4, DW_OP_stack_value] $sp
	stm	r4!, {r0, r1, r2}
.Ltmp206:
	.loc	41 153 5                        @ ../../../../ThirdParty/ml-embedded-evaluation-kit/source/profiler/Profiler.cc:153:5
	add	sp, #16
	pop.w	{r4, r5, r6, r7, r8, pc}
.Ltmp207:
.LBB3_8:
	@DEBUG_VALUE: SetName:this <- $r8
	@DEBUG_VALUE: __init:__s <- $r6
	@DEBUG_VALUE: __init:__sz <- $r0
	@DEBUG_VALUE: __init:this <- [DW_OP_plus_uconst 4, DW_OP_stack_value] $sp
	@DEBUG_VALUE: basic_string<nullptr_t>:this <- [DW_OP_plus_uconst 4, DW_OP_stack_value] $sp
	.loc	41 0 5 is_stmt 0                @ ../../../../ThirdParty/ml-embedded-evaluation-kit/source/profiler/Profiler.cc:0:5
	add	r0, sp, #4
.Ltmp208:
	.loc	6 1862 15 is_stmt 1             @ Keil_v5\ARM\ARMCLANG\Bin\..\include\libcxx\string:1862:15
	bl	_ZNKSt3__221__basic_string_commonILb1EE20__throw_length_errorEv
.Ltmp209:
.Lfunc_end3:
	.size	_ZN3arm3app8Profiler7SetNameEPKc, .Lfunc_end3-_ZN3arm3app8Profiler7SetNameEPKc
	.cfi_endproc
	.cantunwind
	.fnend
                                        @ -- End function
	.section	.text._ZN3arm3app8Profiler13StopProfilingEv,"ax",%progbits
	.hidden	_ZN3arm3app8Profiler13StopProfilingEv @ -- Begin function _ZN3arm3app8Profiler13StopProfilingEv
	.globl	_ZN3arm3app8Profiler13StopProfilingEv
	.p2align	2
	.type	_ZN3arm3app8Profiler13StopProfilingEv,%function
	.code	16                              @ @_ZN3arm3app8Profiler13StopProfilingEv
	.thumb_func
_ZN3arm3app8Profiler13StopProfilingEv:
.Lfunc_begin4:
	.loc	41 59 0                         @ ../../../../ThirdParty/ml-embedded-evaluation-kit/source/profiler/Profiler.cc:59:0
	.fnstart
	.cfi_startproc
@ %bb.0:
	@DEBUG_VALUE: StopProfiling:this <- $r0
	.save	{r4, r5, r6, lr}
	push	{r4, r5, r6, lr}
	.cfi_def_cfa_offset 16
	.cfi_offset lr, -4
	.cfi_offset r6, -8
	.cfi_offset r5, -12
	.cfi_offset r4, -16
	.pad	#336
	sub	sp, #336
	.cfi_def_cfa_offset 352
	mov	r4, r0
.Ltmp210:
	@DEBUG_VALUE: StopProfiling:this <- $r4
	.loc	41 60 19 prologue_end           @ ../../../../ThirdParty/ml-embedded-evaluation-kit/source/profiler/Profiler.cc:60:19
	ldrb.w	r0, [r0, #352]
.Ltmp211:
	.loc	41 60 13 is_stmt 0              @ ../../../../ThirdParty/ml-embedded-evaluation-kit/source/profiler/Profiler.cc:60:13
	cbz	r0, .LBB4_7
.Ltmp212:
@ %bb.1:
	@DEBUG_VALUE: StopProfiling:this <- $r4
	.loc	41 61 19 is_stmt 1              @ ../../../../ThirdParty/ml-embedded-evaluation-kit/source/profiler/Profiler.cc:61:19
	add.w	r5, r4, #184
	movs	r6, #0
	.loc	41 62 13                        @ ../../../../ThirdParty/ml-embedded-evaluation-kit/source/profiler/Profiler.cc:62:13
	mov	r0, r5
	.loc	41 61 43                        @ ../../../../ThirdParty/ml-embedded-evaluation-kit/source/profiler/Profiler.cc:61:43
	strb.w	r6, [r4, #348]
	.loc	41 62 13                        @ ../../../../ThirdParty/ml-embedded-evaluation-kit/source/profiler/Profiler.cc:62:13
	bl	pmu_get_counters
.Ltmp213:
	.loc	41 64 35                        @ ../../../../ThirdParty/ml-embedded-evaluation-kit/source/profiler/Profiler.cc:64:35
	ldrb.w	r0, [r4, #348]
.Ltmp214:
	.loc	41 63 29                        @ ../../../../ThirdParty/ml-embedded-evaluation-kit/source/profiler/Profiler.cc:63:29
	strb.w	r6, [r4, #352]
	.loc	41 64 17                        @ ../../../../ThirdParty/ml-embedded-evaluation-kit/source/profiler/Profiler.cc:64:17
	cbz	r0, .LBB4_7
.Ltmp215:
@ %bb.2:
	@DEBUG_VALUE: StopProfiling:this <- $r4
	.loc	41 68 27                        @ ../../../../ThirdParty/ml-embedded-evaluation-kit/source/profiler/Profiler.cc:68:27
	add.w	r1, r4, #356
	.loc	41 65 23                        @ ../../../../ThirdParty/ml-embedded-evaluation-kit/source/profiler/Profiler.cc:65:23
	mov	r0, sp
	str	r1, [sp, #328]
	add.w	r1, r4, #24
	movs	r2, #160
.Ltmp216:
.LBB4_3:                                @ =>This Inner Loop Header: Depth=1
	@DEBUG_VALUE: StopProfiling:this <- $r4
	ldr	r3, [r1], #4
	subs	r2, #4
	str	r3, [r0], #4
	bne	.LBB4_3
.Ltmp217:
@ %bb.4:
	@DEBUG_VALUE: StopProfiling:this <- $r4
	add	r0, sp, #160
	movs	r1, #168
.Ltmp218:
.LBB4_5:                                @ =>This Inner Loop Header: Depth=1
	@DEBUG_VALUE: StopProfiling:this <- $r4
	ldr	r2, [r5], #4
	subs	r1, #4
	str	r2, [r0], #4
	bne	.LBB4_5
.Ltmp219:
@ %bb.6:
	@DEBUG_VALUE: StopProfiling:this <- $r4
	ldrd	r2, r3, [r4, #16]
	mov	r0, r4
.Ltmp220:
	@DEBUG_VALUE: StopProfiling:this <- $r0
	bl	_ZN3arm3app8Profiler18UpdateRunningStatsE13_pmu_countersS2_RKNSt3__212basic_stringIcNS3_11char_traitsIcEENS3_9allocatorIcEEEE
.Ltmp221:
	@DEBUG_VALUE: StopProfiling:this <- [DW_OP_LLVM_entry_value 1] $r0
	.loc	41 0 23 is_stmt 0               @ ../../../../ThirdParty/ml-embedded-evaluation-kit/source/profiler/Profiler.cc:0:23
	movs	r0, #1
.Ltmp222:
	.loc	41 74 5 is_stmt 1               @ ../../../../ThirdParty/ml-embedded-evaluation-kit/source/profiler/Profiler.cc:74:5
	add	sp, #336
	pop	{r4, r5, r6, pc}
.Ltmp223:
.LBB4_7:
	@DEBUG_VALUE: StopProfiling:this <- $r4
	.loc	41 72 9                         @ ../../../../ThirdParty/ml-embedded-evaluation-kit/source/profiler/Profiler.cc:72:9
	movw	r0, :lower16:.L.str.1
	movt	r0, :upper16:.L.str.1
	bl	__2printf
.Ltmp224:
	.loc	6 1463 39                       @ Keil_v5\ARM\ARMCLANG\Bin\..\include\libcxx\string:1463:39
	ldrsb.w	r0, [r4, #367]
.Ltmp225:
	.loc	41 72 9                         @ ../../../../ThirdParty/ml-embedded-evaluation-kit/source/profiler/Profiler.cc:72:9
	add.w	r1, r4, #356
	@DEBUG_VALUE: __is_long:this <- $r1
.Ltmp226:
	@DEBUG_VALUE: __get_pointer:this <- $r1
	@DEBUG_VALUE: data:this <- $r1
	@DEBUG_VALUE: c_str:this <- $r1
	@DEBUG_VALUE: __get_long_pointer:this <- $r1
	.loc	6 1557 17                       @ Keil_v5\ARM\ARMCLANG\Bin\..\include\libcxx\string:1557:17
	cmp.w	r0, #-1
.Ltmp227:
	.loc	41 72 9                         @ ../../../../ThirdParty/ml-embedded-evaluation-kit/source/profiler/Profiler.cc:72:9
	movw	r0, :lower16:.L.str.3
	movt	r0, :upper16:.L.str.3
.Ltmp228:
	.loc	6 1545 34                       @ Keil_v5\ARM\ARMCLANG\Bin\..\include\libcxx\string:1545:34
	it	le
	ldrle	r1, [r1]
.Ltmp229:
	.loc	41 72 9                         @ ../../../../ThirdParty/ml-embedded-evaluation-kit/source/profiler/Profiler.cc:72:9
	bl	__2printf
.Ltmp230:
	.loc	41 0 9 is_stmt 0                @ ../../../../ThirdParty/ml-embedded-evaluation-kit/source/profiler/Profiler.cc:0:9
	movs	r0, #0
	.loc	41 74 5 is_stmt 1               @ ../../../../ThirdParty/ml-embedded-evaluation-kit/source/profiler/Profiler.cc:74:5
	add	sp, #336
	pop	{r4, r5, r6, pc}
.Ltmp231:
.Lfunc_end4:
	.size	_ZN3arm3app8Profiler13StopProfilingEv, .Lfunc_end4-_ZN3arm3app8Profiler13StopProfilingEv
	.cfi_endproc
	.cantunwind
	.fnend
                                        @ -- End function
	.section	.text._ZN3arm3app8Profiler18UpdateRunningStatsE13_pmu_countersS2_RKNSt3__212basic_stringIcNS3_11char_traitsIcEENS3_9allocatorIcEEEE,"ax",%progbits
	.hidden	_ZN3arm3app8Profiler18UpdateRunningStatsE13_pmu_countersS2_RKNSt3__212basic_stringIcNS3_11char_traitsIcEENS3_9allocatorIcEEEE @ -- Begin function _ZN3arm3app8Profiler18UpdateRunningStatsE13_pmu_countersS2_RKNSt3__212basic_stringIcNS3_11char_traitsIcEENS3_9allocatorIcEEEE
	.globl	_ZN3arm3app8Profiler18UpdateRunningStatsE13_pmu_countersS2_RKNSt3__212basic_stringIcNS3_11char_traitsIcEENS3_9allocatorIcEEEE
	.p2align	2
	.type	_ZN3arm3app8Profiler18UpdateRunningStatsE13_pmu_countersS2_RKNSt3__212basic_stringIcNS3_11char_traitsIcEENS3_9allocatorIcEEEE,%function
	.code	16                              @ @_ZN3arm3app8Profiler18UpdateRunningStatsE13_pmu_countersS2_RKNSt3__212basic_stringIcNS3_11char_traitsIcEENS3_9allocatorIcEEEE
	.thumb_func
_ZN3arm3app8Profiler18UpdateRunningStatsE13_pmu_countersS2_RKNSt3__212basic_stringIcNS3_11char_traitsIcEENS3_9allocatorIcEEEE:
.Lfunc_begin5:
	.loc	41 157 0                        @ ../../../../ThirdParty/ml-embedded-evaluation-kit/source/profiler/Profiler.cc:157:0
	.fnstart
	.cfi_startproc
@ %bb.0:
	@DEBUG_VALUE: UpdateRunningStats:this <- $r0
	.pad	#8
	sub	sp, #8
	.cfi_def_cfa_offset 8
	.save	{r4, r5, r6, r7, r8, r9, r10, r11, lr}
	push.w	{r4, r5, r6, r7, r8, r9, r10, r11, lr}
	.cfi_def_cfa_offset 44
	.cfi_offset lr, -12
	.cfi_offset r11, -16
	.cfi_offset r10, -20
	.cfi_offset r9, -24
	.cfi_offset r8, -28
	.cfi_offset r7, -32
	.cfi_offset r6, -36
	.cfi_offset r5, -40
	.cfi_offset r4, -44
	.pad	#276
	sub	sp, #276
	.cfi_def_cfa_offset 320
	add	r5, sp, #480
.Ltmp232:
	@DEBUG_VALUE: UpdateRunningStats:name <- [DW_OP_plus_uconst 648] [$sp+0]
	@DEBUG_VALUE: UpdateRunningStats:this <- $r4
	add.w	r11, sp, #88
	mov	r4, r0
.Ltmp233:
	.loc	41 159 25 prologue_end          @ ../../../../ThirdParty/ml-embedded-evaluation-kit/source/profiler/Profiler.cc:159:25
	mov	r0, r11
	strd	r2, r3, [sp, #312]
	mov	r1, r5
	movs	r2, #168
	bl	__aeabi_memcpy8
.Ltmp234:
	.loc	41 162 17                       @ ../../../../ThirdParty/ml-embedded-evaluation-kit/source/profiler/Profiler.cc:162:17
	ldr	r0, [sp, #640]
	.loc	41 162 39 is_stmt 0             @ ../../../../ThirdParty/ml-embedded-evaluation-kit/source/profiler/Profiler.cc:162:39
	ldr	r1, [sp, #472]
	.loc	41 162 52                       @ ../../../../ThirdParty/ml-embedded-evaluation-kit/source/profiler/Profiler.cc:162:52
	cmp	r0, r1
	bne	.LBB5_9
.Ltmp235:
@ %bb.1:
	@DEBUG_VALUE: UpdateRunningStats:name <- [DW_OP_plus_uconst 648] [$sp+0]
	.loc	41 163 18 is_stmt 1             @ ../../../../ThirdParty/ml-embedded-evaluation-kit/source/profiler/Profiler.cc:163:18
	ldrb.w	r0, [r5, #164]
	.loc	41 163 30 is_stmt 0             @ ../../../../ThirdParty/ml-embedded-evaluation-kit/source/profiler/Profiler.cc:163:30
	cbz	r0, .LBB5_9
.Ltmp236:
@ %bb.2:
	@DEBUG_VALUE: UpdateRunningStats:name <- [DW_OP_plus_uconst 648] [$sp+0]
	.loc	41 0 30                         @ ../../../../ThirdParty/ml-embedded-evaluation-kit/source/profiler/Profiler.cc:0:30
	add	r7, sp, #312
	.loc	41 163 40                       @ ../../../../ThirdParty/ml-embedded-evaluation-kit/source/profiler/Profiler.cc:163:40
	ldrb.w	r0, [r7, #164]
.Ltmp237:
	.loc	41 162 13 is_stmt 1             @ ../../../../ThirdParty/ml-embedded-evaluation-kit/source/profiler/Profiler.cc:162:13
	cbz	r0, .LBB5_9
.Ltmp238:
@ %bb.3:
	@DEBUG_VALUE: UpdateRunningStats:name <- [DW_OP_plus_uconst 648] [$sp+0]
	.loc	41 168 46                       @ ../../../../ThirdParty/ml-embedded-evaluation-kit/source/profiler/Profiler.cc:168:46
	ldr	r6, [sp, #248]
	ldr.w	r9, [sp, #648]
.Ltmp239:
	@DEBUG_VALUE: i <- 0
	.loc	41 0 46 is_stmt 0               @ ../../../../ThirdParty/ml-embedded-evaluation-kit/source/profiler/Profiler.cc:0:46
	str	r4, [sp, #52]                   @ 4-byte Spill
.Ltmp240:
	.loc	41 168 9                        @ ../../../../ThirdParty/ml-embedded-evaluation-kit/source/profiler/Profiler.cc:168:9
	cbz	r6, .LBB5_11
.Ltmp241:
@ %bb.4:
	@DEBUG_VALUE: UpdateRunningStats:name <- [DW_OP_plus_uconst 648] [$sp+0]
	@DEBUG_VALUE: i <- 0
	.loc	41 0 9                          @ ../../../../ThirdParty/ml-embedded-evaluation-kit/source/profiler/Profiler.cc:0:9
	adr.w	r8, .LCPI5_0
	.loc	41 168 9                        @ ../../../../ThirdParty/ml-embedded-evaluation-kit/source/profiler/Profiler.cc:168:9
	add.w	r4, r11, #8
	adr.w	r10, .LCPI5_1
	b	.LBB5_7
.Ltmp242:
	.p2align	2
.LBB5_5:                                @   in Loop: Header=BB5_7 Depth=1
	@DEBUG_VALUE: UpdateRunningStats:name <- [DW_OP_plus_uconst 648] [$sp+0]
	.loc	41 173 49 is_stmt 1             @ ../../../../ThirdParty/ml-embedded-evaluation-kit/source/profiler/Profiler.cc:173:49
	subs	r0, r0, r3
	sbcs	r1, r2
.Ltmp243:
.LBB5_6:                                @   in Loop: Header=BB5_7 Depth=1
	@DEBUG_VALUE: UpdateRunningStats:name <- [DW_OP_plus_uconst 648] [$sp+0]
	@DEBUG_VALUE: i <- [DW_OP_plus_uconst 1, DW_OP_stack_value] undef
	.loc	41 0 0 is_stmt 0                @ ../../../../ThirdParty/ml-embedded-evaluation-kit/source/profiler/Profiler.cc:0:0
	strd	r0, r1, [r4, #-8]
.Ltmp244:
	.loc	41 168 30 is_stmt 1             @ ../../../../ThirdParty/ml-embedded-evaluation-kit/source/profiler/Profiler.cc:168:30
	subs	r6, #1
	add.w	r7, r7, #16
	add.w	r4, r4, #16
.Ltmp245:
	.loc	41 168 9 is_stmt 0              @ ../../../../ThirdParty/ml-embedded-evaluation-kit/source/profiler/Profiler.cc:168:9
	beq	.LBB5_11
.Ltmp246:
.LBB5_7:                                @ =>This Inner Loop Header: Depth=1
	@DEBUG_VALUE: UpdateRunningStats:name <- [DW_OP_plus_uconst 648] [$sp+0]
	@DEBUG_VALUE: i <- undef
	.loc	41 169 43 is_stmt 1             @ ../../../../ThirdParty/ml-embedded-evaluation-kit/source/profiler/Profiler.cc:169:43
	ldrd	r0, r1, [r4, #-8]
	.loc	41 169 69 is_stmt 0             @ ../../../../ThirdParty/ml-embedded-evaluation-kit/source/profiler/Profiler.cc:169:69
	ldrd	r3, r2, [r7]
	.loc	41 169 49                       @ ../../../../ThirdParty/ml-embedded-evaluation-kit/source/profiler/Profiler.cc:169:49
	subs	r5, r0, r3
	sbcs.w	r5, r1, r2
	bhs	.LBB5_5
.Ltmp247:
@ %bb.8:                                @   in Loop: Header=BB5_7 Depth=1
	@DEBUG_VALUE: UpdateRunningStats:name <- [DW_OP_plus_uconst 648] [$sp+0]
	.loc	41 170 17 is_stmt 1             @ ../../../../ThirdParty/ml-embedded-evaluation-kit/source/profiler/Profiler.cc:170:17
	mov	r0, r8
	bl	__2printf
.Ltmp248:
	ldr	r1, [r4]
	mov	r0, r10
	bl	__2printf
.Ltmp249:
	.loc	41 0 17 is_stmt 0               @ ../../../../ThirdParty/ml-embedded-evaluation-kit/source/profiler/Profiler.cc:0:17
	movs	r0, #0
.Ltmp250:
	movs	r1, #0
	b	.LBB5_6
.Ltmp251:
.LBB5_9:
	@DEBUG_VALUE: UpdateRunningStats:name <- [DW_OP_plus_uconst 648] [$sp+0]
	.loc	41 164 13 is_stmt 1             @ ../../../../ThirdParty/ml-embedded-evaluation-kit/source/profiler/Profiler.cc:164:13
	movw	r0, :lower16:.L.str.1
	movt	r0, :upper16:.L.str.1
	bl	__2printf
.Ltmp252:
	adr.w	r0, .LCPI5_2
	bl	puts
.Ltmp253:
.LBB5_10:
	@DEBUG_VALUE: UpdateRunningStats:name <- [DW_OP_plus_uconst 648] [$sp+0]
	.loc	41 193 5                        @ ../../../../ThirdParty/ml-embedded-evaluation-kit/source/profiler/Profiler.cc:193:5
	add	sp, #276
	pop.w	{r4, r5, r6, r7, r8, r9, r10, r11, lr}
	add	sp, #8
	bx	lr
.Ltmp254:
.LBB5_11:
	@DEBUG_VALUE: UpdateRunningStats:name <- [DW_OP_plus_uconst 648] [$sp+0]
	@DEBUG_VALUE: i <- 0
	@DEBUG_VALUE: operator[]:this <- [DW_OP_plus_uconst 52] [$sp+0]
	@DEBUG_VALUE: operator[]:__k <- $r9
	.loc	41 0 5 is_stmt 0                @ ../../../../ThirdParty/ml-embedded-evaluation-kit/source/profiler/Profiler.cc:0:5
	ldr	r4, [sp, #52]                   @ 4-byte Reload
.Ltmp255:
	.loc	19 1521 20 is_stmt 1            @ Keil_v5\ARM\ARMCLANG\Bin\..\include\libcxx\map:1521:20
	movw	r3, :lower16:_ZNSt3__2L19piecewise_constructE
	add	r5, sp, #268
	add	r6, sp, #264
	movt	r3, :upper16:_ZNSt3__2L19piecewise_constructE
	add	r0, sp, #60
	mov	r1, r4
	mov	r2, r9
	.loc	19 1523 9                       @ Keil_v5\ARM\ARMCLANG\Bin\..\include\libcxx\map:1523:9
	str.w	r9, [sp, #268]
	.loc	19 1521 20                      @ Keil_v5\ARM\ARMCLANG\Bin\..\include\libcxx\map:1521:20
	str	r5, [sp]
	str	r6, [sp, #4]
	bl	_ZNSt3__26__treeINS_12__value_typeINS_12basic_stringIcNS_11char_traitsIcEENS_9allocatorIcEEEENS_6vectorIN3arm3app10StatisticsENS5_ISB_EEEEEENS_19__map_value_compareIS7_SE_NS_4lessIS7_EELb1EEENS5_ISE_EEE25__emplace_unique_key_argsIS7_JRKNS_21piecewise_construct_tENS_5tupleIJRKS7_EEENSP_IJEEEEEENS_4pairINS_15__tree_iteratorISE_PNS_11__tree_nodeISE_PvEEiEEbEERKT_DpOT0_
.Ltmp256:
	@DEBUG_VALUE: __get_np:this <- [DW_OP_plus_uconst 60, DW_OP_stack_value] $sp
	@DEBUG_VALUE: operator->:this <- [DW_OP_plus_uconst 60, DW_OP_stack_value] $sp
	.loc	20 872 74                       @ Keil_v5\ARM\ARMCLANG\Bin\..\include\libcxx\__tree:872:74
	ldr	r0, [sp, #60]
.Ltmp257:
	@DEBUG_VALUE: size:this <- [DW_OP_plus_uconst 28, DW_OP_stack_value] $r0
	.loc	14 658 61                       @ Keil_v5\ARM\ARMCLANG\Bin\..\include\libcxx\vector:658:61
	ldrd	r1, r0, [r0, #28]
.Ltmp258:
	.loc	41 177 9                        @ ../../../../ThirdParty/ml-embedded-evaluation-kit/source/profiler/Profiler.cc:177:9
	cmp	r0, r1
	beq.w	.LBB5_14
.Ltmp259:
@ %bb.12:
	@DEBUG_VALUE: UpdateRunningStats:name <- [DW_OP_plus_uconst 648] [$sp+0]
	@DEBUG_VALUE: i <- 0
	add.w	r8, r11, #8
	movs	r7, #0
	mov.w	r11, #32
.Ltmp260:
	.p2align	2
.LBB5_13:                               @ =>This Inner Loop Header: Depth=1
	@DEBUG_VALUE: UpdateRunningStats:name <- [DW_OP_plus_uconst 648] [$sp+0]
	@DEBUG_VALUE: i <- $r7
	.loc	41 0 9 is_stmt 0                @ ../../../../ThirdParty/ml-embedded-evaluation-kit/source/profiler/Profiler.cc:0:9
	movw	r3, :lower16:_ZNSt3__2L19piecewise_constructE
	str	r7, [sp, #56]                   @ 4-byte Spill
.Ltmp261:
	@DEBUG_VALUE: i <- [DW_OP_plus_uconst 56] [$sp+0]
	@DEBUG_VALUE: i <- [DW_OP_plus_uconst 56] [$sp+0]
	@DEBUG_VALUE: i <- [DW_OP_plus_uconst 56] [$sp+0]
	.loc	41 178 73 is_stmt 1             @ ../../../../ThirdParty/ml-embedded-evaluation-kit/source/profiler/Profiler.cc:178:73
	ldr.w	r7, [r8]
.Ltmp262:
	@DEBUG_VALUE: operator[]:__k <- $r9
	@DEBUG_VALUE: operator[]:this <- [DW_OP_plus_uconst 52] [$sp+0]
	.loc	41 0 73 is_stmt 0               @ ../../../../ThirdParty/ml-embedded-evaluation-kit/source/profiler/Profiler.cc:0:73
	add	r0, sp, #60
.Ltmp263:
	.loc	19 1521 20 is_stmt 1            @ Keil_v5\ARM\ARMCLANG\Bin\..\include\libcxx\map:1521:20
	mov	r1, r4
	mov	r2, r9
	movt	r3, :upper16:_ZNSt3__2L19piecewise_constructE
	.loc	19 1523 9                       @ Keil_v5\ARM\ARMCLANG\Bin\..\include\libcxx\map:1523:9
	str.w	r9, [sp, #268]
	mov	r10, r3
	.loc	19 1521 20                      @ Keil_v5\ARM\ARMCLANG\Bin\..\include\libcxx\map:1521:20
	str	r5, [sp]
	str	r6, [sp, #4]
	bl	_ZNSt3__26__treeINS_12__value_typeINS_12basic_stringIcNS_11char_traitsIcEENS_9allocatorIcEEEENS_6vectorIN3arm3app10StatisticsENS5_ISB_EEEEEENS_19__map_value_compareIS7_SE_NS_4lessIS7_EELb1EEENS5_ISE_EEE25__emplace_unique_key_argsIS7_JRKNS_21piecewise_construct_tENS_5tupleIJRKS7_EEENSP_IJEEEEEENS_4pairINS_15__tree_iteratorISE_PNS_11__tree_nodeISE_PvEEiEEbEERKT_DpOT0_
.Ltmp264:
	@DEBUG_VALUE: __get_np:this <- [DW_OP_plus_uconst 60, DW_OP_stack_value] $sp
	@DEBUG_VALUE: operator->:this <- [DW_OP_plus_uconst 60, DW_OP_stack_value] $sp
	.loc	20 872 74                       @ Keil_v5\ARM\ARMCLANG\Bin\..\include\libcxx\__tree:872:74
	ldr	r0, [sp, #60]
.Ltmp265:
	@DEBUG_VALUE: assign:this <- undef
	@DEBUG_VALUE: operator=:this <- undef
	@DEBUG_VALUE: operator[]:__n <- [DW_OP_plus_uconst 56] [$sp+0]
	@DEBUG_VALUE: operator[]:this <- [DW_OP_plus_uconst 28, DW_OP_stack_value] $r0
	.loc	6 2548 18                       @ Keil_v5\ARM\ARMCLANG\Bin\..\include\libcxx\string:2548:18
	mov	r1, r7
.Ltmp266:
	.loc	14 1550 18                      @ Keil_v5\ARM\ARMCLANG\Bin\..\include\libcxx\vector:1550:18
	ldr	r0, [r0, #28]
.Ltmp267:
	@DEBUG_VALUE: assign:__s <- $r7
	@DEBUG_VALUE: assign:this <- undef
	@DEBUG_VALUE: operator=:__s <- $r7
	@DEBUG_VALUE: operator=:this <- undef
	.loc	6 2548 18                       @ Keil_v5\ARM\ARMCLANG\Bin\..\include\libcxx\string:2548:18
	add	r0, r11
	subs	r0, #32
	bl	_ZNSt3__212basic_stringIcNS_11char_traitsIcEENS_9allocatorIcEEE17__assign_externalEPKc
.Ltmp268:
	.loc	41 179 73                       @ ../../../../ThirdParty/ml-embedded-evaluation-kit/source/profiler/Profiler.cc:179:73
	ldr.w	r7, [r8, #4]
.Ltmp269:
	@DEBUG_VALUE: operator[]:__k <- $r9
	@DEBUG_VALUE: operator[]:this <- [DW_OP_plus_uconst 52] [$sp+0]
	.loc	19 1521 20                      @ Keil_v5\ARM\ARMCLANG\Bin\..\include\libcxx\map:1521:20
	add	r0, sp, #60
	mov	r1, r4
	mov	r2, r9
	mov	r3, r10
	.loc	19 1523 9                       @ Keil_v5\ARM\ARMCLANG\Bin\..\include\libcxx\map:1523:9
	str.w	r9, [sp, #268]
	.loc	19 1521 20                      @ Keil_v5\ARM\ARMCLANG\Bin\..\include\libcxx\map:1521:20
	str	r5, [sp]
	str	r6, [sp, #4]
	bl	_ZNSt3__26__treeINS_12__value_typeINS_12basic_stringIcNS_11char_traitsIcEENS_9allocatorIcEEEENS_6vectorIN3arm3app10StatisticsENS5_ISB_EEEEEENS_19__map_value_compareIS7_SE_NS_4lessIS7_EELb1EEENS5_ISE_EEE25__emplace_unique_key_argsIS7_JRKNS_21piecewise_construct_tENS_5tupleIJRKS7_EEENSP_IJEEEEEENS_4pairINS_15__tree_iteratorISE_PNS_11__tree_nodeISE_PvEEiEEbEERKT_DpOT0_
.Ltmp270:
	@DEBUG_VALUE: __get_np:this <- [DW_OP_plus_uconst 60, DW_OP_stack_value] $sp
	@DEBUG_VALUE: operator->:this <- [DW_OP_plus_uconst 60, DW_OP_stack_value] $sp
	.loc	20 872 74                       @ Keil_v5\ARM\ARMCLANG\Bin\..\include\libcxx\__tree:872:74
	ldr	r0, [sp, #60]
.Ltmp271:
	@DEBUG_VALUE: assign:this <- undef
	@DEBUG_VALUE: operator=:this <- undef
	@DEBUG_VALUE: operator[]:__n <- [DW_OP_plus_uconst 56] [$sp+0]
	@DEBUG_VALUE: operator[]:this <- [DW_OP_plus_uconst 28, DW_OP_stack_value] $r0
	.loc	6 2548 18                       @ Keil_v5\ARM\ARMCLANG\Bin\..\include\libcxx\string:2548:18
	mov	r1, r7
.Ltmp272:
	.loc	14 1550 18                      @ Keil_v5\ARM\ARMCLANG\Bin\..\include\libcxx\vector:1550:18
	ldr	r0, [r0, #28]
.Ltmp273:
	@DEBUG_VALUE: assign:__s <- $r7
	@DEBUG_VALUE: operator=:__s <- $r7
	@DEBUG_VALUE: assign:this <- undef
	@DEBUG_VALUE: operator=:this <- undef
	.loc	6 2548 18                       @ Keil_v5\ARM\ARMCLANG\Bin\..\include\libcxx\string:2548:18
	add	r0, r11
	subs	r0, #20
	bl	_ZNSt3__212basic_stringIcNS_11char_traitsIcEENS_9allocatorIcEEE17__assign_externalEPKc
.Ltmp274:
	@DEBUG_VALUE: operator[]:__k <- $r9
	@DEBUG_VALUE: operator[]:this <- [DW_OP_plus_uconst 52] [$sp+0]
	.loc	19 1521 20                      @ Keil_v5\ARM\ARMCLANG\Bin\..\include\libcxx\map:1521:20
	add	r0, sp, #60
	mov	r1, r4
	mov	r2, r9
	mov	r3, r10
	.loc	19 1523 9                       @ Keil_v5\ARM\ARMCLANG\Bin\..\include\libcxx\map:1523:9
	str.w	r9, [sp, #268]
	.loc	19 1521 20                      @ Keil_v5\ARM\ARMCLANG\Bin\..\include\libcxx\map:1521:20
	str	r5, [sp]
	str	r6, [sp, #4]
	bl	_ZNSt3__26__treeINS_12__value_typeINS_12basic_stringIcNS_11char_traitsIcEENS_9allocatorIcEEEENS_6vectorIN3arm3app10StatisticsENS5_ISB_EEEEEENS_19__map_value_compareIS7_SE_NS_4lessIS7_EELb1EEENS5_ISE_EEE25__emplace_unique_key_argsIS7_JRKNS_21piecewise_construct_tENS_5tupleIJRKS7_EEENSP_IJEEEEEENS_4pairINS_15__tree_iteratorISE_PNS_11__tree_nodeISE_PvEEiEEbEERKT_DpOT0_
.Ltmp275:
	@DEBUG_VALUE: __get_np:this <- [DW_OP_plus_uconst 60, DW_OP_stack_value] $sp
	@DEBUG_VALUE: operator->:this <- [DW_OP_plus_uconst 60, DW_OP_stack_value] $sp
	.loc	20 872 74                       @ Keil_v5\ARM\ARMCLANG\Bin\..\include\libcxx\__tree:872:74
	ldr	r0, [sp, #60]
.Ltmp276:
	@DEBUG_VALUE: operator[]:__n <- [DW_OP_plus_uconst 56] [$sp+0]
	@DEBUG_VALUE: operator[]:this <- [DW_OP_plus_uconst 28, DW_OP_stack_value] $r0
	.loc	19 1521 20                      @ Keil_v5\ARM\ARMCLANG\Bin\..\include\libcxx\map:1521:20
	movw	r3, :lower16:_ZNSt3__2L19piecewise_constructE
	mov	r10, r6
.Ltmp277:
	.loc	41 182 47                       @ ../../../../ThirdParty/ml-embedded-evaluation-kit/source/profiler/Profiler.cc:182:47
	ldrd	r7, r6, [r8, #-8]
.Ltmp278:
	@DEBUG_VALUE: operator[]:__k <- $r9
	@DEBUG_VALUE: operator[]:this <- [DW_OP_plus_uconst 52] [$sp+0]
	.loc	14 1550 18                      @ Keil_v5\ARM\ARMCLANG\Bin\..\include\libcxx\vector:1550:18
	ldr	r0, [r0, #28]
.Ltmp279:
	.loc	19 1521 20                      @ Keil_v5\ARM\ARMCLANG\Bin\..\include\libcxx\map:1521:20
	mov	r2, r9
	movt	r3, :upper16:_ZNSt3__2L19piecewise_constructE
.Ltmp280:
	.loc	41 180 13                       @ ../../../../ThirdParty/ml-embedded-evaluation-kit/source/profiler/Profiler.cc:180:13
	add	r0, r11
	ldr	r1, [r0, #24]
	adds	r1, #1
	str	r1, [r0, #24]
.Ltmp281:
	@DEBUG_VALUE: calcProfilingStat:currentValue <- [DW_OP_LLVM_fragment 32 32] undef
	.loc	19 1521 20                      @ Keil_v5\ARM\ARMCLANG\Bin\..\include\libcxx\map:1521:20
	add	r0, sp, #60
	mov	r1, r4
	.loc	19 1523 9                       @ Keil_v5\ARM\ARMCLANG\Bin\..\include\libcxx\map:1523:9
	str.w	r9, [sp, #268]
	.loc	19 1521 20                      @ Keil_v5\ARM\ARMCLANG\Bin\..\include\libcxx\map:1521:20
	str	r5, [sp]
	str.w	r10, [sp, #4]
	bl	_ZNSt3__26__treeINS_12__value_typeINS_12basic_stringIcNS_11char_traitsIcEENS_9allocatorIcEEEENS_6vectorIN3arm3app10StatisticsENS5_ISB_EEEEEENS_19__map_value_compareIS7_SE_NS_4lessIS7_EELb1EEENS5_ISE_EEE25__emplace_unique_key_argsIS7_JRKNS_21piecewise_construct_tENS_5tupleIJRKS7_EEENSP_IJEEEEEENS_4pairINS_15__tree_iteratorISE_PNS_11__tree_nodeISE_PvEEiEEbEERKT_DpOT0_
.Ltmp282:
	@DEBUG_VALUE: __get_np:this <- [DW_OP_plus_uconst 60, DW_OP_stack_value] $sp
	@DEBUG_VALUE: operator->:this <- [DW_OP_plus_uconst 60, DW_OP_stack_value] $sp
	.loc	20 872 74                       @ Keil_v5\ARM\ARMCLANG\Bin\..\include\libcxx\__tree:872:74
	ldr	r0, [sp, #60]
.Ltmp283:
	@DEBUG_VALUE: operator[]:__n <- [DW_OP_plus_uconst 56] [$sp+0]
	@DEBUG_VALUE: operator[]:this <- [DW_OP_plus_uconst 28, DW_OP_stack_value] $r0
	.loc	20 0 74 is_stmt 0               @ Keil_v5\ARM\ARMCLANG\Bin\..\include\libcxx\__tree:0:74
	mov	r12, r5
.Ltmp284:
	.loc	14 1550 18 is_stmt 1            @ Keil_v5\ARM\ARMCLANG\Bin\..\include\libcxx\vector:1550:18
	ldr	r0, [r0, #28]
.Ltmp285:
	@DEBUG_VALUE: calcProfilingStat:currentValue <- [DW_OP_LLVM_fragment 0 32] $r7
	@DEBUG_VALUE: calcProfilingStat:data <- undef
	.loc	41 97 20                        @ ../../../../ThirdParty/ml-embedded-evaluation-kit/source/profiler/Profiler.cc:97:20
	add.w	r4, r0, r11
	ldrd	r0, r1, [r4, #-8]
.Ltmp286:
	.file	45 "C:\\" "Keil_v5\\ARM\\ARMCLANG\\Bin\\..\\include\\libcxx\\algorithm"
	.loc	45 725 73                       @ Keil_v5\ARM\ARMCLANG\Bin\..\include\libcxx\algorithm:725:73
	ldrd	r2, r3, [r4, #8]
.Ltmp287:
	.loc	41 97 20                        @ ../../../../ThirdParty/ml-embedded-evaluation-kit/source/profiler/Profiler.cc:97:20
	adds	r0, r0, r7
	adcs	r1, r6
.Ltmp288:
	@DEBUG_VALUE: operator():__y <- undef
	@DEBUG_VALUE: operator():__x <- undef
	@DEBUG_VALUE: operator():this <- undef
	@DEBUG_VALUE: min<unsigned long long, std::__less<unsigned long long> >:__b <- undef
	@DEBUG_VALUE: min<unsigned long long, std::__less<unsigned long long> >:__a <- undef
	@DEBUG_VALUE: min<unsigned long long>:__b <- undef
	@DEBUG_VALUE: min<unsigned long long>:__a <- undef
	.loc	45 725 71                       @ Keil_v5\ARM\ARMCLANG\Bin\..\include\libcxx\algorithm:725:71
	subs	r5, r7, r2
	sbcs.w	r5, r6, r3
	mov.w	r5, #0
.Ltmp289:
	.loc	41 97 20                        @ ../../../../ThirdParty/ml-embedded-evaluation-kit/source/profiler/Profiler.cc:97:20
	strd	r0, r1, [r4, #-8]
.Ltmp290:
	.loc	45 725 71                       @ Keil_v5\ARM\ARMCLANG\Bin\..\include\libcxx\algorithm:725:71
	it	lo
	movlo	r5, #1
.Ltmp291:
	.loc	41 98 20                        @ ../../../../ThirdParty/ml-embedded-evaluation-kit/source/profiler/Profiler.cc:98:20
	cmp	r5, #0
	csel	r3, r6, r3, ne
	csel	r2, r7, r2, ne
	.loc	41 98 18 is_stmt 0              @ ../../../../ThirdParty/ml-embedded-evaluation-kit/source/profiler/Profiler.cc:98:18
	strd	r2, r3, [r4, #8]
.Ltmp292:
	@DEBUG_VALUE: operator():__y <- undef
	@DEBUG_VALUE: operator():__x <- undef
	@DEBUG_VALUE: operator():this <- undef
	@DEBUG_VALUE: max<unsigned long long, std::__less<unsigned long long> >:__b <- undef
	@DEBUG_VALUE: max<unsigned long long, std::__less<unsigned long long> >:__a <- undef
	@DEBUG_VALUE: max<unsigned long long>:__b <- undef
	@DEBUG_VALUE: max<unsigned long long>:__a <- undef
	.loc	45 725 67 is_stmt 1             @ Keil_v5\ARM\ARMCLANG\Bin\..\include\libcxx\algorithm:725:67
	ldrd	r2, r3, [r4, #16]
	.loc	45 725 71 is_stmt 0             @ Keil_v5\ARM\ARMCLANG\Bin\..\include\libcxx\algorithm:725:71
	subs	r5, r2, r7
	sbcs.w	r5, r3, r6
	mov.w	r5, #0
	it	lo
	movlo	r5, #1
.Ltmp293:
	.loc	41 99 20 is_stmt 1              @ ../../../../ThirdParty/ml-embedded-evaluation-kit/source/profiler/Profiler.cc:99:20
	cmp	r5, #0
	csel	r3, r6, r3, ne
	csel	r2, r7, r2, ne
	ldr	r7, [sp, #56]                   @ 4-byte Reload
.Ltmp294:
	@DEBUG_VALUE: i <- $r7
	.loc	41 0 20 is_stmt 0               @ ../../../../ThirdParty/ml-embedded-evaluation-kit/source/profiler/Profiler.cc:0:20
	mov	r5, r12
	mov	r6, r10
	.loc	41 99 18                        @ ../../../../ThirdParty/ml-embedded-evaluation-kit/source/profiler/Profiler.cc:99:18
	strd	r2, r3, [r4, #16]
	.loc	41 100 42 is_stmt 1             @ ../../../../ThirdParty/ml-embedded-evaluation-kit/source/profiler/Profiler.cc:100:42
	bl	__aeabi_ul2d
.Ltmp295:
	.loc	41 100 56 is_stmt 0             @ ../../../../ThirdParty/ml-embedded-evaluation-kit/source/profiler/Profiler.cc:100:56
	vldr	s0, [r4, #24]
	.loc	41 100 42                       @ ../../../../ThirdParty/ml-embedded-evaluation-kit/source/profiler/Profiler.cc:100:42
	vmov	d1, r0, r1
	.loc	41 100 56                       @ ../../../../ThirdParty/ml-embedded-evaluation-kit/source/profiler/Profiler.cc:100:56
	vcvt.f64.u32	d0, s0
.Ltmp296:
	.loc	19 1521 20 is_stmt 1            @ Keil_v5\ARM\ARMCLANG\Bin\..\include\libcxx\map:1521:20
	movw	r3, :lower16:_ZNSt3__2L19piecewise_constructE
	add	r0, sp, #60
.Ltmp297:
	.loc	41 100 54                       @ ../../../../ThirdParty/ml-embedded-evaluation-kit/source/profiler/Profiler.cc:100:54
	vdiv.f64	d0, d1, d0
.Ltmp298:
	.loc	19 1521 20                      @ Keil_v5\ARM\ARMCLANG\Bin\..\include\libcxx\map:1521:20
	mov	r2, r9
	movt	r3, :upper16:_ZNSt3__2L19piecewise_constructE
.Ltmp299:
	.loc	41 177 64                       @ ../../../../ThirdParty/ml-embedded-evaluation-kit/source/profiler/Profiler.cc:177:64
	adds	r7, #1
.Ltmp300:
	@DEBUG_VALUE: operator[]:__k <- $r9
	@DEBUG_VALUE: operator[]:this <- [DW_OP_plus_uconst 52] [$sp+0]
	@DEBUG_VALUE: i <- $r7
	.loc	41 100 19                       @ ../../../../ThirdParty/ml-embedded-evaluation-kit/source/profiler/Profiler.cc:100:19
	vstr	d0, [r4]
	ldr	r4, [sp, #52]                   @ 4-byte Reload
.Ltmp301:
	.loc	19 1523 9                       @ Keil_v5\ARM\ARMCLANG\Bin\..\include\libcxx\map:1523:9
	str.w	r9, [sp, #268]
	.loc	19 1521 20                      @ Keil_v5\ARM\ARMCLANG\Bin\..\include\libcxx\map:1521:20
	mov	r1, r4
	str	r5, [sp]
	str.w	r10, [sp, #4]
	bl	_ZNSt3__26__treeINS_12__value_typeINS_12basic_stringIcNS_11char_traitsIcEENS_9allocatorIcEEEENS_6vectorIN3arm3app10StatisticsENS5_ISB_EEEEEENS_19__map_value_compareIS7_SE_NS_4lessIS7_EELb1EEENS5_ISE_EEE25__emplace_unique_key_argsIS7_JRKNS_21piecewise_construct_tENS_5tupleIJRKS7_EEENSP_IJEEEEEENS_4pairINS_15__tree_iteratorISE_PNS_11__tree_nodeISE_PvEEiEEbEERKT_DpOT0_
.Ltmp302:
	@DEBUG_VALUE: __get_np:this <- [DW_OP_plus_uconst 60, DW_OP_stack_value] $sp
	@DEBUG_VALUE: operator->:this <- [DW_OP_plus_uconst 60, DW_OP_stack_value] $sp
	.loc	20 872 74                       @ Keil_v5\ARM\ARMCLANG\Bin\..\include\libcxx\__tree:872:74
	ldr	r0, [sp, #60]
.Ltmp303:
	@DEBUG_VALUE: size:this <- [DW_OP_plus_uconst 28, DW_OP_stack_value] $r0
	.loc	41 177 30                       @ ../../../../ThirdParty/ml-embedded-evaluation-kit/source/profiler/Profiler.cc:177:30
	add.w	r11, r11, #64
	add.w	r8, r8, #16
.Ltmp304:
	.loc	14 658 61                       @ Keil_v5\ARM\ARMCLANG\Bin\..\include\libcxx\vector:658:61
	ldrd	r1, r0, [r0, #28]
.Ltmp305:
	.loc	14 658 53 is_stmt 0             @ Keil_v5\ARM\ARMCLANG\Bin\..\include\libcxx\vector:658:53
	subs	r0, r0, r1
.Ltmp306:
	.loc	41 177 9 is_stmt 1              @ ../../../../ThirdParty/ml-embedded-evaluation-kit/source/profiler/Profiler.cc:177:9
	cmp.w	r7, r0, asr #6
	blo.w	.LBB5_13
.Ltmp307:
.LBB5_14:
	@DEBUG_VALUE: UpdateRunningStats:name <- [DW_OP_plus_uconst 648] [$sp+0]
	@DEBUG_VALUE: __zero:this <- [DW_OP_plus_uconst 60, DW_OP_stack_value] $sp
	@DEBUG_VALUE: __zero:__a <- [DW_OP_plus_uconst 60, DW_OP_stack_value] $sp
	@DEBUG_VALUE: __compressed_pair<nullptr_t, std::__default_init_tag>:__t1 <- undef
	@DEBUG_VALUE: __compressed_pair<nullptr_t, std::__default_init_tag>:__t2 <- undef
	@DEBUG_VALUE: __compressed_pair_elem<nullptr_t, void>:__u <- undef
	@DEBUG_VALUE: __i <- [DW_OP_plus_uconst 1, DW_OP_stack_value] undef
	@DEBUG_VALUE: vector:this <- undef
	@DEBUG_VALUE: __vector_base:this <- undef
	@DEBUG_VALUE: __compressed_pair<nullptr_t, std::__default_init_tag>:this <- [DW_OP_plus_uconst 8, DW_OP_stack_value] undef
	@DEBUG_VALUE: __compressed_pair_elem<nullptr_t, void>:this <- [DW_OP_plus_uconst 8, DW_OP_stack_value] undef
	.loc	41 187 29                       @ ../../../../ThirdParty/ml-embedded-evaluation-kit/source/profiler/Profiler.cc:187:29
	add.w	r0, r4, #356
	add.w	r8, sp, #60
.Ltmp308:
	@DEBUG_VALUE: operator=:__str <- $r0
	@DEBUG_VALUE: operator=:this <- [DW_OP_plus_uconst 60, DW_OP_stack_value] $sp
	.loc	41 0 29 is_stmt 0               @ ../../../../ThirdParty/ml-embedded-evaluation-kit/source/profiler/Profiler.cc:0:29
	movs	r1, #0
.Ltmp309:
	.loc	6 2395 7 is_stmt 1              @ Keil_v5\ARM\ARMCLANG\Bin\..\include\libcxx\string:2395:7
	cmp	r8, r0
.Ltmp310:
	.loc	41 186 29                       @ ../../../../ThirdParty/ml-embedded-evaluation-kit/source/profiler/Profiler.cc:186:29
	str	r1, [sp, #84]
	strd	r1, r1, [sp, #76]
	strd	r1, r1, [sp, #68]
	str	r1, [sp, #64]
	str	r1, [sp, #60]
	@DEBUG_VALUE: operator=:this <- [DW_OP_plus_uconst 60, DW_OP_stack_value] $sp
	@DEBUG_VALUE: operator=:__str <- $r0
	beq	.LBB5_18
.Ltmp311:
@ %bb.15:
	@DEBUG_VALUE: operator=:__str <- $r0
	@DEBUG_VALUE: operator=:this <- [DW_OP_plus_uconst 60, DW_OP_stack_value] $sp
	@DEBUG_VALUE: UpdateRunningStats:name <- [DW_OP_plus_uconst 648] [$sp+0]
	@DEBUG_VALUE: __is_long:this <- [DW_OP_plus_uconst 60, DW_OP_stack_value] $sp
	@DEBUG_VALUE: __is_long:this <- $r0
	.loc	6 1463 39                       @ Keil_v5\ARM\ARMCLANG\Bin\..\include\libcxx\string:1463:39
	ldrsb.w	r1, [r0, #11]
.Ltmp312:
	.loc	6 2398 11                       @ Keil_v5\ARM\ARMCLANG\Bin\..\include\libcxx\string:2398:11
	cmp	r1, #0
	bmi	.LBB5_17
.Ltmp313:
@ %bb.16:
	@DEBUG_VALUE: operator=:__str <- $r0
	@DEBUG_VALUE: operator=:this <- [DW_OP_plus_uconst 60, DW_OP_stack_value] $sp
	@DEBUG_VALUE: UpdateRunningStats:name <- [DW_OP_plus_uconst 648] [$sp+0]
	.loc	6 2399 26                       @ Keil_v5\ARM\ARMCLANG\Bin\..\include\libcxx\string:2399:26
	ldr	r2, [r0, #8]
	ldrd	r1, r0, [r0]
.Ltmp314:
	str	r2, [sp, #68]
	strd	r1, r0, [sp, #60]
	b	.LBB5_18
.Ltmp315:
.LBB5_17:
	@DEBUG_VALUE: operator=:__str <- $r0
	@DEBUG_VALUE: operator=:this <- [DW_OP_plus_uconst 60, DW_OP_stack_value] $sp
	@DEBUG_VALUE: UpdateRunningStats:name <- [DW_OP_plus_uconst 648] [$sp+0]
	@DEBUG_VALUE: data:this <- undef
	@DEBUG_VALUE: __get_pointer:this <- undef
	@DEBUG_VALUE: __is_long:this <- undef
	@DEBUG_VALUE: __get_long_pointer:this <- undef
	@DEBUG_VALUE: size:this <- undef
	@DEBUG_VALUE: __is_long:this <- undef
	@DEBUG_VALUE: __get_long_size:this <- undef
	.loc	6 1545 34                       @ Keil_v5\ARM\ARMCLANG\Bin\..\include\libcxx\string:1545:34
	ldrd	r1, r2, [r4, #356]
	add	r0, sp, #60
.Ltmp316:
	.loc	6 2401 16                       @ Keil_v5\ARM\ARMCLANG\Bin\..\include\libcxx\string:2401:16
	bl	_ZNSt3__212basic_stringIcNS_11char_traitsIcEENS_9allocatorIcEEE17__assign_no_aliasILb1EEERS5_PKcj
.Ltmp317:
.LBB5_18:
	@DEBUG_VALUE: UpdateRunningStats:name <- [DW_OP_plus_uconst 648] [$sp+0]
	@DEBUG_VALUE: vector:this <- undef
	@DEBUG_VALUE: __vector_base:this <- undef
	@DEBUG_VALUE: __compressed_pair<nullptr_t, std::__default_init_tag>:this <- [DW_OP_plus_uconst 8, DW_OP_stack_value] undef
	@DEBUG_VALUE: __compressed_pair_elem<nullptr_t, void>:this <- [DW_OP_plus_uconst 8, DW_OP_stack_value] undef
	@DEBUG_VALUE: operator[]:this <- $r4
	@DEBUG_VALUE: operator[]:__k <- $r9
	.loc	19 1521 20                      @ Keil_v5\ARM\ARMCLANG\Bin\..\include\libcxx\map:1521:20
	movw	r7, :lower16:_ZNSt3__2L19piecewise_constructE
	mov	r5, r4
.Ltmp318:
	@DEBUG_VALUE: operator[]:this <- $r5
	@DEBUG_VALUE: operator[]:this <- $r5
	movt	r7, :upper16:_ZNSt3__2L19piecewise_constructE
	add	r4, sp, #260
	add	r0, sp, #268
	mov	r1, r5
	mov	r2, r9
	mov	r3, r7
	.loc	19 1523 9                       @ Keil_v5\ARM\ARMCLANG\Bin\..\include\libcxx\map:1523:9
	str.w	r9, [sp, #264]
	.loc	19 1521 20                      @ Keil_v5\ARM\ARMCLANG\Bin\..\include\libcxx\map:1521:20
	str	r6, [sp]
	str	r4, [sp, #4]
	bl	_ZNSt3__26__treeINS_12__value_typeINS_12basic_stringIcNS_11char_traitsIcEENS_9allocatorIcEEEENS_6vectorIN3arm3app10StatisticsENS5_ISB_EEEEEENS_19__map_value_compareIS7_SE_NS_4lessIS7_EELb1EEENS5_ISE_EEE25__emplace_unique_key_argsIS7_JRKNS_21piecewise_construct_tENS_5tupleIJRKS7_EEENSP_IJEEEEEENS_4pairINS_15__tree_iteratorISE_PNS_11__tree_nodeISE_PvEEiEEbEERKT_DpOT0_
.Ltmp319:
	@DEBUG_VALUE: __get_np:this <- [DW_OP_plus_uconst 268, DW_OP_stack_value] $sp
	@DEBUG_VALUE: operator->:this <- [DW_OP_plus_uconst 268, DW_OP_stack_value] $sp
	.loc	20 872 74                       @ Keil_v5\ARM\ARMCLANG\Bin\..\include\libcxx\__tree:872:74
	ldr	r0, [sp, #268]
.Ltmp320:
	@DEBUG_VALUE: operator[]:__n <- 0
	@DEBUG_VALUE: operator[]:this <- [DW_OP_plus_uconst 28, DW_OP_stack_value] $r0
	.loc	19 1521 20                      @ Keil_v5\ARM\ARMCLANG\Bin\..\include\libcxx\map:1521:20
	mov	r1, r5
	mov	r2, r9
	mov	r3, r7
.Ltmp321:
	.loc	14 1550 18                      @ Keil_v5\ARM\ARMCLANG\Bin\..\include\libcxx\vector:1550:18
	ldr	r0, [r0, #28]
.Ltmp322:
	.loc	19 1523 9                       @ Keil_v5\ARM\ARMCLANG\Bin\..\include\libcxx\map:1523:9
	str.w	r9, [sp, #264]
.Ltmp323:
	.loc	41 188 56                       @ ../../../../ThirdParty/ml-embedded-evaluation-kit/source/profiler/Profiler.cc:188:56
	ldr	r0, [r0, #56]
.Ltmp324:
	.loc	19 1521 20                      @ Keil_v5\ARM\ARMCLANG\Bin\..\include\libcxx\map:1521:20
	str	r6, [sp]
.Ltmp325:
	.loc	41 188 27                       @ ../../../../ThirdParty/ml-embedded-evaluation-kit/source/profiler/Profiler.cc:188:27
	str	r0, [sp, #72]
.Ltmp326:
	@DEBUG_VALUE: operator[]:__k <- $r9
	@DEBUG_VALUE: operator[]:this <- $r5
	.loc	41 0 27 is_stmt 0               @ ../../../../ThirdParty/ml-embedded-evaluation-kit/source/profiler/Profiler.cc:0:27
	add	r0, sp, #268
.Ltmp327:
	.loc	19 1521 20 is_stmt 1            @ Keil_v5\ARM\ARMCLANG\Bin\..\include\libcxx\map:1521:20
	str	r4, [sp, #4]
	bl	_ZNSt3__26__treeINS_12__value_typeINS_12basic_stringIcNS_11char_traitsIcEENS_9allocatorIcEEEENS_6vectorIN3arm3app10StatisticsENS5_ISB_EEEEEENS_19__map_value_compareIS7_SE_NS_4lessIS7_EELb1EEENS5_ISE_EEE25__emplace_unique_key_argsIS7_JRKNS_21piecewise_construct_tENS_5tupleIJRKS7_EEENSP_IJEEEEEENS_4pairINS_15__tree_iteratorISE_PNS_11__tree_nodeISE_PvEEiEEbEERKT_DpOT0_
.Ltmp328:
	@DEBUG_VALUE: __get_np:this <- [DW_OP_plus_uconst 268, DW_OP_stack_value] $sp
	@DEBUG_VALUE: operator->:this <- [DW_OP_plus_uconst 268, DW_OP_stack_value] $sp
	.loc	20 872 74                       @ Keil_v5\ARM\ARMCLANG\Bin\..\include\libcxx\__tree:872:74
	ldr	r0, [sp, #268]
.Ltmp329:
	@DEBUG_VALUE: operator==<arm::app::Statistics *, arm::app::Statistics *>:__y <- undef
	@DEBUG_VALUE: operator==<arm::app::Statistics *, arm::app::Statistics *>:__x <- undef
	@DEBUG_VALUE: operator!=<arm::app::Statistics *>:__y <- undef
	@DEBUG_VALUE: operator!=<arm::app::Statistics *>:__x <- undef
	@DEBUG_VALUE: __end2 <- undef
	@DEBUG_VALUE: __begin2 <- undef
	@DEBUG_VALUE: begin:this <- [DW_OP_plus_uconst 28, DW_OP_stack_value] $r0
	@DEBUG_VALUE: __range2 <- [DW_OP_plus_uconst 28, DW_OP_stack_value] $r0
	@DEBUG_VALUE: end:this <- [DW_OP_plus_uconst 28, DW_OP_stack_value] $r0
	.loc	14 1517 30                      @ Keil_v5\ARM\ARMCLANG\Bin\..\include\libcxx\vector:1517:30
	ldrd	r5, r9, [r0, #28]
.Ltmp330:
	.loc	41 190 31                       @ ../../../../ThirdParty/ml-embedded-evaluation-kit/source/profiler/Profiler.cc:190:31
	cmp	r5, r9
	beq.w	.LBB5_58
.Ltmp331:
@ %bb.19:
	@DEBUG_VALUE: end:this <- [DW_OP_plus_uconst 28, DW_OP_stack_value] $r0
	@DEBUG_VALUE: __range2 <- [DW_OP_plus_uconst 28, DW_OP_stack_value] $r0
	@DEBUG_VALUE: begin:this <- [DW_OP_plus_uconst 28, DW_OP_stack_value] $r0
	@DEBUG_VALUE: operator->:this <- [DW_OP_plus_uconst 268, DW_OP_stack_value] $sp
	@DEBUG_VALUE: __get_np:this <- [DW_OP_plus_uconst 268, DW_OP_stack_value] $sp
	@DEBUG_VALUE: operator->:this <- [DW_OP_plus_uconst 268, DW_OP_stack_value] $sp
	@DEBUG_VALUE: __get_np:this <- [DW_OP_plus_uconst 268, DW_OP_stack_value] $sp
	@DEBUG_VALUE: UpdateRunningStats:name <- [DW_OP_plus_uconst 648] [$sp+0]
	@DEBUG_VALUE: operator[]:__n <- 0
	.loc	41 0 31 is_stmt 0               @ ../../../../ThirdParty/ml-embedded-evaluation-kit/source/profiler/Profiler.cc:0:31
	add.w	r0, r8, #16
.Ltmp332:
	@DEBUG_VALUE: __compressed_pair_elem<nullptr_t, void>:this <- [DW_OP_plus_uconst 8, DW_OP_stack_value] $r0
	@DEBUG_VALUE: __compressed_pair<nullptr_t, std::__default_init_tag>:this <- [DW_OP_plus_uconst 8, DW_OP_stack_value] $r0
	@DEBUG_VALUE: __vector_base:this <- $r0
	@DEBUG_VALUE: vector:this <- $r0
	mov.w	r8, #0
	str	r0, [sp, #12]                   @ 4-byte Spill
.Ltmp333:
	@DEBUG_VALUE: __compressed_pair_elem<nullptr_t, void>:this <- [DW_OP_plus_uconst 12, DW_OP_plus_uconst 8, DW_OP_stack_value] [$sp+0]
	@DEBUG_VALUE: __compressed_pair_elem<nullptr_t, void>:this <- [DW_OP_plus_uconst 12, DW_OP_deref_size 4, DW_OP_plus_uconst 8, DW_OP_stack_value] $sp
	@DEBUG_VALUE: __compressed_pair<nullptr_t, std::__default_init_tag>:this <- [DW_OP_plus_uconst 12, DW_OP_deref_size 4, DW_OP_plus_uconst 8, DW_OP_stack_value] $sp
	@DEBUG_VALUE: __vector_base:this <- [DW_OP_plus_uconst 12] [$sp+0]
	@DEBUG_VALUE: vector:this <- [DW_OP_plus_uconst 12] [$sp+0]
	str.w	r9, [sp, #16]                   @ 4-byte Spill
	b	.LBB5_23
.Ltmp334:
.LBB5_20:                               @   in Loop: Header=BB5_23 Depth=1
	@DEBUG_VALUE: __emplace_back_slow_path<arm::app::Statistics &>:__v <- [DW_OP_LLVM_fragment 32 32] $r9
	@DEBUG_VALUE: __emplace_back_slow_path<arm::app::Statistics &>:__args <- $r5
	@DEBUG_VALUE: emplace_back<arm::app::Statistics &>:__args <- $r5
	@DEBUG_VALUE: stat <- $r5
	@DEBUG_VALUE: __begin2 <- $r5
	@DEBUG_VALUE: __emplace_back_slow_path<arm::app::Statistics &>:__v <- [DW_OP_LLVM_fragment 64 32] $r0
	@DEBUG_VALUE: __swap_out_circular_buffer:this <- [DW_OP_plus_uconst 12] [$sp+0]
	@DEBUG_VALUE: __emplace_back_slow_path<arm::app::Statistics &>:__v <- [DW_OP_plus_uconst 12, DW_OP_deref_size 4, DW_OP_plus_uconst 8, DW_OP_stack_value, DW_OP_LLVM_fragment 128 32] $sp
	@DEBUG_VALUE: __emplace_back_slow_path<arm::app::Statistics &>:__a <- [DW_OP_plus_uconst 12, DW_OP_deref_size 4, DW_OP_plus_uconst 8, DW_OP_stack_value] $sp
	@DEBUG_VALUE: __emplace_back_slow_path<arm::app::Statistics &>:this <- [DW_OP_plus_uconst 12] [$sp+0]
	@DEBUG_VALUE: emplace_back<arm::app::Statistics &>:this <- [DW_OP_plus_uconst 12] [$sp+0]
	@DEBUG_VALUE: UpdateRunningStats:name <- [DW_OP_plus_uconst 648] [$sp+0]
	@DEBUG_VALUE: __emplace_back_slow_path<arm::app::Statistics &>:__v <- [DW_OP_LLVM_fragment 96 32] $lr
	@DEBUG_VALUE: swap<arm::app::Statistics *>:__x <- [DW_OP_plus_uconst 12] [$sp+0]
	@DEBUG_VALUE: swap<arm::app::Statistics *>:__y <- undef
	@DEBUG_VALUE: swap<arm::app::Statistics *>:__y <- undef
	@DEBUG_VALUE: swap<arm::app::Statistics *>:__x <- [DW_OP_plus_uconst 60, DW_OP_plus_uconst 20, DW_OP_stack_value] $sp
	.loc	9 3952 9 is_stmt 1              @ Keil_v5\ARM\ARMCLANG\Bin\..\include\libcxx\type_traits:3952:9
	strd	r9, r0, [sp, #76]
.Ltmp335:
	@DEBUG_VALUE: swap<arm::app::Statistics *>:__t <- undef
	@DEBUG_VALUE: swap<arm::app::Statistics *>:__y <- undef
	@DEBUG_VALUE: swap<arm::app::Statistics *>:__x <- [DW_OP_plus_uconst 60, DW_OP_plus_uconst 24, DW_OP_stack_value] $sp
	.loc	9 0 9 is_stmt 0                 @ Keil_v5\ARM\ARMCLANG\Bin\..\include\libcxx\type_traits:0:9
	ldr.w	r9, [sp, #16]                   @ 4-byte Reload
.Ltmp336:
	.loc	9 3952 9                        @ Keil_v5\ARM\ARMCLANG\Bin\..\include\libcxx\type_traits:3952:9
	str.w	lr, [sp, #84]
.Ltmp337:
	@DEBUG_VALUE: __destruct_at_end:this <- undef
	@DEBUG_VALUE: __destruct_at_end:this <- undef
	@DEBUG_VALUE: clear:this <- undef
	@DEBUG_VALUE: ~__split_buffer:this <- undef
	@DEBUG_VALUE: __emplace_back_slow_path<arm::app::Statistics &>:__v <- [DW_OP_LLVM_fragment 96 32] undef
.LBB5_21:                               @   in Loop: Header=BB5_23 Depth=1
	@DEBUG_VALUE: __emplace_back_slow_path<arm::app::Statistics &>:__args <- $r5
	@DEBUG_VALUE: emplace_back<arm::app::Statistics &>:__args <- $r5
	@DEBUG_VALUE: stat <- $r5
	@DEBUG_VALUE: __begin2 <- $r5
	@DEBUG_VALUE: __emplace_back_slow_path<arm::app::Statistics &>:__v <- [DW_OP_plus_uconst 12, DW_OP_deref_size 4, DW_OP_plus_uconst 8, DW_OP_stack_value, DW_OP_LLVM_fragment 128 32] $sp
	@DEBUG_VALUE: __emplace_back_slow_path<arm::app::Statistics &>:__a <- [DW_OP_plus_uconst 12, DW_OP_deref_size 4, DW_OP_plus_uconst 8, DW_OP_stack_value] $sp
	@DEBUG_VALUE: __emplace_back_slow_path<arm::app::Statistics &>:this <- [DW_OP_plus_uconst 12] [$sp+0]
	@DEBUG_VALUE: emplace_back<arm::app::Statistics &>:this <- [DW_OP_plus_uconst 12] [$sp+0]
	@DEBUG_VALUE: UpdateRunningStats:name <- [DW_OP_plus_uconst 648] [$sp+0]
	.loc	17 345 9 is_stmt 1              @ Keil_v5\ARM\ARMCLANG\Bin\..\include\libcxx\__split_buffer:345:9
	cmp	r4, #0
.Ltmp338:
	@DEBUG_VALUE: deallocate:__a <- undef
	@DEBUG_VALUE: deallocate:__n <- [DW_OP_constu 6, DW_OP_shra, DW_OP_stack_value] undef
	@DEBUG_VALUE: deallocate:this <- undef
	@DEBUG_VALUE: deallocate:__n <- [DW_OP_constu 6, DW_OP_shra, DW_OP_stack_value] undef
	@DEBUG_VALUE: __libcpp_deallocate:__ptr <- $r4
	@DEBUG_VALUE: __do_deallocate_handle_size<>:__ptr <- $r4
	@DEBUG_VALUE: __libcpp_operator_delete<void *>:__args <- $r4
	@DEBUG_VALUE: __libcpp_deallocate:__size <- [DW_OP_constu 6, DW_OP_shra, DW_OP_constu 6, DW_OP_shl, DW_OP_stack_value] undef
	@DEBUG_VALUE: __libcpp_deallocate:__align <- 8
	@DEBUG_VALUE: __do_deallocate_handle_size<>:__size <- [DW_OP_constu 6, DW_OP_shra, DW_OP_constu 6, DW_OP_shl, DW_OP_stack_value] undef
	.loc	43 251 3                        @ Keil_v5\ARM\ARMCLANG\Bin\..\include\libcxx\new:251:3
	itt	ne
	movne	r0, r4
.Ltmp339:
	@DEBUG_VALUE: __libcpp_deallocate:__ptr <- $r0
	blne	_ZdlPv
.Ltmp340:
.LBB5_22:                               @   in Loop: Header=BB5_23 Depth=1
	@DEBUG_VALUE: __begin2 <- $r5
	@DEBUG_VALUE: UpdateRunningStats:name <- [DW_OP_plus_uconst 648] [$sp+0]
	@DEBUG_VALUE: operator++:this <- undef
	.loc	15 1496 9                       @ Keil_v5\ARM\ARMCLANG\Bin\..\include\libcxx\iterator:1496:9
	adds	r5, #64
.Ltmp341:
	@DEBUG_VALUE: operator==<arm::app::Statistics *, arm::app::Statistics *>:__y <- undef
	@DEBUG_VALUE: operator==<arm::app::Statistics *, arm::app::Statistics *>:__x <- undef
	@DEBUG_VALUE: operator!=<arm::app::Statistics *>:__y <- undef
	@DEBUG_VALUE: operator!=<arm::app::Statistics *>:__x <- undef
	@DEBUG_VALUE: __begin2 <- $r5
	.loc	41 190 31                       @ ../../../../ThirdParty/ml-embedded-evaluation-kit/source/profiler/Profiler.cc:190:31
	cmp	r5, r9
	beq.w	.LBB5_58
.Ltmp342:
.LBB5_23:                               @ =>This Loop Header: Depth=1
                                        @     Child Loop BB5_44 Depth 2
                                        @     Child Loop BB5_54 Depth 2
	@DEBUG_VALUE: UpdateRunningStats:name <- [DW_OP_plus_uconst 648] [$sp+0]
	@DEBUG_VALUE: __begin2 <- $r5
	@DEBUG_VALUE: stat <- $r5
	@DEBUG_VALUE: emplace_back<arm::app::Statistics &>:this <- [DW_OP_plus_uconst 12] [$sp+0]
	@DEBUG_VALUE: emplace_back<arm::app::Statistics &>:__args <- $r5
	.loc	14 1682 15                      @ Keil_v5\ARM\ARMCLANG\Bin\..\include\libcxx\vector:1682:15
	ldrd	r7, r0, [sp, #80]
.Ltmp343:
	.loc	14 1682 9 is_stmt 0             @ Keil_v5\ARM\ARMCLANG\Bin\..\include\libcxx\vector:1682:9
	cmp	r7, r0
	bhs	.LBB5_26
.Ltmp344:
@ %bb.24:                               @   in Loop: Header=BB5_23 Depth=1
	@DEBUG_VALUE: emplace_back<arm::app::Statistics &>:__args <- $r5
	@DEBUG_VALUE: stat <- $r5
	@DEBUG_VALUE: __begin2 <- $r5
	@DEBUG_VALUE: emplace_back<arm::app::Statistics &>:this <- [DW_OP_plus_uconst 12] [$sp+0]
	@DEBUG_VALUE: UpdateRunningStats:name <- [DW_OP_plus_uconst 648] [$sp+0]
	@DEBUG_VALUE: __construct_one_at_end<arm::app::Statistics &>:this <- [DW_OP_plus_uconst 12] [$sp+0]
	@DEBUG_VALUE: __construct_one_at_end<arm::app::Statistics &>:__args <- $r5
	@DEBUG_VALUE: __construct_one_at_end<arm::app::Statistics &>:__tx <- [DW_OP_plus_uconst 12, DW_OP_LLVM_fragment 0 32] [$sp+0]
	@DEBUG_VALUE: __construct_one_at_end<arm::app::Statistics &>:__tx <- [DW_OP_LLVM_fragment 32 32] $r7
	@DEBUG_VALUE: __construct_one_at_end<arm::app::Statistics &>:__tx <- [DW_OP_plus_uconst 64, DW_OP_stack_value, DW_OP_LLVM_fragment 64 32] $r7
	@DEBUG_VALUE: construct<arm::app::Statistics, arm::app::Statistics &, void>:__a <- undef
	@DEBUG_VALUE: construct<arm::app::Statistics, arm::app::Statistics &, void>:__p <- $r7
	@DEBUG_VALUE: construct<arm::app::Statistics, arm::app::Statistics &, void>:__args <- $r5
	@DEBUG_VALUE: construct<arm::app::Statistics, arm::app::Statistics &>:this <- undef
	@DEBUG_VALUE: construct<arm::app::Statistics, arm::app::Statistics &>:__p <- $r7
	@DEBUG_VALUE: construct<arm::app::Statistics, arm::app::Statistics &>:__args <- $r5
	@DEBUG_VALUE: Statistics:this <- $r7
	@DEBUG_VALUE: Statistics: <- $r5
	@DEBUG_VALUE: basic_string:this <- $r7
	@DEBUG_VALUE: basic_string:__str <- $r5
	@DEBUG_VALUE: __is_long:this <- $r5
	.loc	6 1463 39 is_stmt 1             @ Keil_v5\ARM\ARMCLANG\Bin\..\include\libcxx\string:1463:39
	ldrsb.w	r0, [r5, #11]
.Ltmp345:
	.loc	6 1921 9                        @ Keil_v5\ARM\ARMCLANG\Bin\..\include\libcxx\string:1921:9
	cmp	r0, #0
	bmi	.LBB5_30
.Ltmp346:
@ %bb.25:                               @   in Loop: Header=BB5_23 Depth=1
	@DEBUG_VALUE: basic_string:this <- $r7
	@DEBUG_VALUE: Statistics:this <- $r7
	@DEBUG_VALUE: construct<arm::app::Statistics, arm::app::Statistics &>:__p <- $r7
	@DEBUG_VALUE: construct<arm::app::Statistics, arm::app::Statistics &, void>:__p <- $r7
	@DEBUG_VALUE: __construct_one_at_end<arm::app::Statistics &>:__tx <- [DW_OP_plus_uconst 64, DW_OP_stack_value, DW_OP_LLVM_fragment 64 32] $r7
	@DEBUG_VALUE: __construct_one_at_end<arm::app::Statistics &>:__tx <- [DW_OP_LLVM_fragment 32 32] $r7
	@DEBUG_VALUE: basic_string:__str <- $r5
	@DEBUG_VALUE: Statistics: <- $r5
	@DEBUG_VALUE: construct<arm::app::Statistics, arm::app::Statistics &>:__args <- $r5
	@DEBUG_VALUE: construct<arm::app::Statistics, arm::app::Statistics &, void>:__args <- $r5
	@DEBUG_VALUE: __construct_one_at_end<arm::app::Statistics &>:__args <- $r5
	@DEBUG_VALUE: emplace_back<arm::app::Statistics &>:__args <- $r5
	@DEBUG_VALUE: stat <- $r5
	@DEBUG_VALUE: __begin2 <- $r5
	@DEBUG_VALUE: __construct_one_at_end<arm::app::Statistics &>:__tx <- [DW_OP_plus_uconst 12, DW_OP_LLVM_fragment 0 32] [$sp+0]
	@DEBUG_VALUE: __construct_one_at_end<arm::app::Statistics &>:this <- [DW_OP_plus_uconst 12] [$sp+0]
	@DEBUG_VALUE: emplace_back<arm::app::Statistics &>:this <- [DW_OP_plus_uconst 12] [$sp+0]
	@DEBUG_VALUE: UpdateRunningStats:name <- [DW_OP_plus_uconst 648] [$sp+0]
	.loc	6 1922 26                       @ Keil_v5\ARM\ARMCLANG\Bin\..\include\libcxx\string:1922:26
	ldm.w	r5, {r0, r1, r2}
	stm.w	r7, {r0, r1, r2}
	b	.LBB5_31
.Ltmp347:
	.p2align	2
.LBB5_26:                               @   in Loop: Header=BB5_23 Depth=1
	@DEBUG_VALUE: emplace_back<arm::app::Statistics &>:__args <- $r5
	@DEBUG_VALUE: stat <- $r5
	@DEBUG_VALUE: __begin2 <- $r5
	@DEBUG_VALUE: emplace_back<arm::app::Statistics &>:this <- [DW_OP_plus_uconst 12] [$sp+0]
	@DEBUG_VALUE: UpdateRunningStats:name <- [DW_OP_plus_uconst 648] [$sp+0]
	@DEBUG_VALUE: __emplace_back_slow_path<arm::app::Statistics &>:this <- [DW_OP_plus_uconst 12] [$sp+0]
	@DEBUG_VALUE: __emplace_back_slow_path<arm::app::Statistics &>:__args <- $r5
	@DEBUG_VALUE: __emplace_back_slow_path<arm::app::Statistics &>:__a <- [DW_OP_plus_uconst 12, DW_OP_deref_size 4, DW_OP_plus_uconst 8, DW_OP_stack_value] $sp
	@DEBUG_VALUE: size:this <- [DW_OP_plus_uconst 12] [$sp+0]
	.loc	14 658 61                       @ Keil_v5\ARM\ARMCLANG\Bin\..\include\libcxx\vector:658:61
	ldr.w	r10, [sp, #76]
.Ltmp348:
	.loc	14 1665 72                      @ Keil_v5\ARM\ARMCLANG\Bin\..\include\libcxx\vector:1665:72
	movs	r1, #1
.Ltmp349:
	.loc	14 658 53                       @ Keil_v5\ARM\ARMCLANG\Bin\..\include\libcxx\vector:658:53
	sub.w	r6, r7, r10
.Ltmp350:
	.loc	14 1665 72                      @ Keil_v5\ARM\ARMCLANG\Bin\..\include\libcxx\vector:1665:72
	add.w	r4, r1, r6, asr #6
.Ltmp351:
	@DEBUG_VALUE: __recommend:__ms <- 67108863
	@DEBUG_VALUE: __recommend:this <- [DW_OP_plus_uconst 12] [$sp+0]
	@DEBUG_VALUE: __recommend:__new_size <- $r4
	.loc	14 1025 9                       @ Keil_v5\ARM\ARMCLANG\Bin\..\include\libcxx\vector:1025:9
	cmp.w	r4, #67108864
	bhs.w	.LBB5_71
.Ltmp352:
@ %bb.27:                               @   in Loop: Header=BB5_23 Depth=1
	@DEBUG_VALUE: __emplace_back_slow_path<arm::app::Statistics &>:__args <- $r5
	@DEBUG_VALUE: emplace_back<arm::app::Statistics &>:__args <- $r5
	@DEBUG_VALUE: stat <- $r5
	@DEBUG_VALUE: __begin2 <- $r5
	@DEBUG_VALUE: __recommend:__new_size <- $r4
	@DEBUG_VALUE: __recommend:this <- [DW_OP_plus_uconst 12] [$sp+0]
	@DEBUG_VALUE: __emplace_back_slow_path<arm::app::Statistics &>:__a <- [DW_OP_plus_uconst 12, DW_OP_deref_size 4, DW_OP_plus_uconst 8, DW_OP_stack_value] $sp
	@DEBUG_VALUE: __emplace_back_slow_path<arm::app::Statistics &>:this <- [DW_OP_plus_uconst 12] [$sp+0]
	@DEBUG_VALUE: emplace_back<arm::app::Statistics &>:this <- [DW_OP_plus_uconst 12] [$sp+0]
	@DEBUG_VALUE: UpdateRunningStats:name <- [DW_OP_plus_uconst 648] [$sp+0]
	@DEBUG_VALUE: __recommend:__ms <- 67108863
	@DEBUG_VALUE: capacity:this <- [DW_OP_plus_uconst 12] [$sp+0]
	@DEBUG_VALUE: capacity:this <- [DW_OP_plus_uconst 12] [$sp+0]
	.loc	14 374 52                       @ Keil_v5\ARM\ARMCLANG\Bin\..\include\libcxx\vector:374:52
	sub.w	r0, r0, r10
.Ltmp353:
	.loc	14 1028 9                       @ Keil_v5\ARM\ARMCLANG\Bin\..\include\libcxx\vector:1028:9
	cmp.w	r4, r0, asr #5
.Ltmp354:
	.loc	14 374 52                       @ Keil_v5\ARM\ARMCLANG\Bin\..\include\libcxx\vector:374:52
	asr.w	r1, r0, #6
.Ltmp355:
	@DEBUG_VALUE: __recommend:__cap <- $r1
	@DEBUG_VALUE: capacity:this <- [DW_OP_plus_uconst 12] [$sp+0]
	@DEBUG_VALUE: capacity:this <- [DW_OP_plus_uconst 12] [$sp+0]
	.loc	14 1028 9                       @ Keil_v5\ARM\ARMCLANG\Bin\..\include\libcxx\vector:1028:9
	it	ls
	asrls	r4, r0, #5
.Ltmp356:
	mvn	r0, #-33554432
	cmp	r1, r0
	it	hs
	mvnhs	r4, #-67108864
.Ltmp357:
	@DEBUG_VALUE: __emplace_back_slow_path<arm::app::Statistics &>:__v <- [DW_OP_plus_uconst 12, DW_OP_deref_size 4, DW_OP_plus_uconst 8, DW_OP_stack_value, DW_OP_LLVM_fragment 128 32] $sp
	@DEBUG_VALUE: __emplace_back_slow_path<arm::app::Statistics &>:__v <- [DW_OP_LLVM_fragment 96 32] 0
	@DEBUG_VALUE: __split_buffer:__a <- [DW_OP_plus_uconst 12, DW_OP_deref_size 4, DW_OP_plus_uconst 8, DW_OP_stack_value] $sp
	@DEBUG_VALUE: __split_buffer:__start <- undef
	@DEBUG_VALUE: __split_buffer:this <- undef
	@DEBUG_VALUE: size:this <- [DW_OP_plus_uconst 12] [$sp+0]
	@DEBUG_VALUE: __split_buffer:__cap <- $r4
	.loc	17 314 16                       @ Keil_v5\ARM\ARMCLANG\Bin\..\include\libcxx\__split_buffer:314:16
	cbz	r4, .LBB5_35
.Ltmp358:
@ %bb.28:                               @   in Loop: Header=BB5_23 Depth=1
	@DEBUG_VALUE: __emplace_back_slow_path<arm::app::Statistics &>:__args <- $r5
	@DEBUG_VALUE: emplace_back<arm::app::Statistics &>:__args <- $r5
	@DEBUG_VALUE: stat <- $r5
	@DEBUG_VALUE: __begin2 <- $r5
	@DEBUG_VALUE: __split_buffer:__cap <- $r4
	@DEBUG_VALUE: __split_buffer:__a <- [DW_OP_plus_uconst 12, DW_OP_deref_size 4, DW_OP_plus_uconst 8, DW_OP_stack_value] $sp
	@DEBUG_VALUE: __emplace_back_slow_path<arm::app::Statistics &>:__v <- [DW_OP_plus_uconst 12, DW_OP_deref_size 4, DW_OP_plus_uconst 8, DW_OP_stack_value, DW_OP_LLVM_fragment 128 32] $sp
	@DEBUG_VALUE: __emplace_back_slow_path<arm::app::Statistics &>:__a <- [DW_OP_plus_uconst 12, DW_OP_deref_size 4, DW_OP_plus_uconst 8, DW_OP_stack_value] $sp
	@DEBUG_VALUE: __emplace_back_slow_path<arm::app::Statistics &>:this <- [DW_OP_plus_uconst 12] [$sp+0]
	@DEBUG_VALUE: emplace_back<arm::app::Statistics &>:this <- [DW_OP_plus_uconst 12] [$sp+0]
	@DEBUG_VALUE: UpdateRunningStats:name <- [DW_OP_plus_uconst 648] [$sp+0]
	@DEBUG_VALUE: __emplace_back_slow_path<arm::app::Statistics &>:__v <- [DW_OP_LLVM_fragment 96 32] 0
	@DEBUG_VALUE: allocate:__a <- undef
	@DEBUG_VALUE: allocate:__n <- $r4
	@DEBUG_VALUE: allocate:this <- undef
	@DEBUG_VALUE: allocate:__n <- $r4
	.loc	4 834 13                        @ Keil_v5\ARM\ARMCLANG\Bin\..\include\libcxx\memory:834:13
	cmp.w	r4, #67108864
	bhs.w	.LBB5_72
.Ltmp359:
@ %bb.29:                               @   in Loop: Header=BB5_23 Depth=1
	@DEBUG_VALUE: __emplace_back_slow_path<arm::app::Statistics &>:__args <- $r5
	@DEBUG_VALUE: emplace_back<arm::app::Statistics &>:__args <- $r5
	@DEBUG_VALUE: stat <- $r5
	@DEBUG_VALUE: __begin2 <- $r5
	@DEBUG_VALUE: allocate:__n <- $r4
	@DEBUG_VALUE: allocate:__n <- $r4
	@DEBUG_VALUE: __split_buffer:__cap <- $r4
	@DEBUG_VALUE: __split_buffer:__a <- [DW_OP_plus_uconst 12, DW_OP_deref_size 4, DW_OP_plus_uconst 8, DW_OP_stack_value] $sp
	@DEBUG_VALUE: __emplace_back_slow_path<arm::app::Statistics &>:__v <- [DW_OP_plus_uconst 12, DW_OP_deref_size 4, DW_OP_plus_uconst 8, DW_OP_stack_value, DW_OP_LLVM_fragment 128 32] $sp
	@DEBUG_VALUE: __emplace_back_slow_path<arm::app::Statistics &>:__a <- [DW_OP_plus_uconst 12, DW_OP_deref_size 4, DW_OP_plus_uconst 8, DW_OP_stack_value] $sp
	@DEBUG_VALUE: __emplace_back_slow_path<arm::app::Statistics &>:this <- [DW_OP_plus_uconst 12] [$sp+0]
	@DEBUG_VALUE: emplace_back<arm::app::Statistics &>:this <- [DW_OP_plus_uconst 12] [$sp+0]
	@DEBUG_VALUE: UpdateRunningStats:name <- [DW_OP_plus_uconst 648] [$sp+0]
	@DEBUG_VALUE: __emplace_back_slow_path<arm::app::Statistics &>:__v <- [DW_OP_LLVM_fragment 96 32] 0
	.loc	4 840 67                        @ Keil_v5\ARM\ARMCLANG\Bin\..\include\libcxx\memory:840:67
	lsls	r0, r4, #6
.Ltmp360:
	@DEBUG_VALUE: __libcpp_allocate:__align <- 8
	@DEBUG_VALUE: __libcpp_operator_new<unsigned int>:__args <- $r0
	@DEBUG_VALUE: __libcpp_allocate:__size <- $r0
	.loc	43 241 10                       @ Keil_v5\ARM\ARMCLANG\Bin\..\include\libcxx\new:241:10
	bl	_Znwj
.Ltmp361:
	mov	r12, r0
	b	.LBB5_36
.Ltmp362:
.LBB5_30:                               @   in Loop: Header=BB5_23 Depth=1
	@DEBUG_VALUE: basic_string:this <- $r7
	@DEBUG_VALUE: Statistics:this <- $r7
	@DEBUG_VALUE: construct<arm::app::Statistics, arm::app::Statistics &>:__p <- $r7
	@DEBUG_VALUE: construct<arm::app::Statistics, arm::app::Statistics &, void>:__p <- $r7
	@DEBUG_VALUE: __construct_one_at_end<arm::app::Statistics &>:__tx <- [DW_OP_plus_uconst 64, DW_OP_stack_value, DW_OP_LLVM_fragment 64 32] $r7
	@DEBUG_VALUE: __construct_one_at_end<arm::app::Statistics &>:__tx <- [DW_OP_LLVM_fragment 32 32] $r7
	@DEBUG_VALUE: basic_string:__str <- $r5
	@DEBUG_VALUE: Statistics: <- $r5
	@DEBUG_VALUE: construct<arm::app::Statistics, arm::app::Statistics &>:__args <- $r5
	@DEBUG_VALUE: construct<arm::app::Statistics, arm::app::Statistics &, void>:__args <- $r5
	@DEBUG_VALUE: __construct_one_at_end<arm::app::Statistics &>:__args <- $r5
	@DEBUG_VALUE: emplace_back<arm::app::Statistics &>:__args <- $r5
	@DEBUG_VALUE: stat <- $r5
	@DEBUG_VALUE: __begin2 <- $r5
	@DEBUG_VALUE: __construct_one_at_end<arm::app::Statistics &>:__tx <- [DW_OP_plus_uconst 12, DW_OP_LLVM_fragment 0 32] [$sp+0]
	@DEBUG_VALUE: __construct_one_at_end<arm::app::Statistics &>:this <- [DW_OP_plus_uconst 12] [$sp+0]
	@DEBUG_VALUE: emplace_back<arm::app::Statistics &>:this <- [DW_OP_plus_uconst 12] [$sp+0]
	@DEBUG_VALUE: UpdateRunningStats:name <- [DW_OP_plus_uconst 648] [$sp+0]
	@DEBUG_VALUE: basic_string:this <- $r7
	@DEBUG_VALUE: basic_string:__str <- $r5
	@DEBUG_VALUE: __is_long:this <- $r5
	@DEBUG_VALUE: __get_long_pointer:this <- $r5
	@DEBUG_VALUE: __get_long_size:this <- $r5
	.loc	6 1545 34                       @ Keil_v5\ARM\ARMCLANG\Bin\..\include\libcxx\string:1545:34
	ldrd	r1, r2, [r5]
.Ltmp363:
	.loc	6 1924 9                        @ Keil_v5\ARM\ARMCLANG\Bin\..\include\libcxx\string:1924:9
	mov	r0, r7
	bl	_ZNSt3__212basic_stringIcNS_11char_traitsIcEENS_9allocatorIcEEE25__init_copy_ctor_externalEPKcj
.Ltmp364:
.LBB5_31:                               @   in Loop: Header=BB5_23 Depth=1
	@DEBUG_VALUE: Statistics:this <- $r7
	@DEBUG_VALUE: construct<arm::app::Statistics, arm::app::Statistics &>:__p <- $r7
	@DEBUG_VALUE: construct<arm::app::Statistics, arm::app::Statistics &, void>:__p <- $r7
	@DEBUG_VALUE: __construct_one_at_end<arm::app::Statistics &>:__tx <- [DW_OP_plus_uconst 64, DW_OP_stack_value, DW_OP_LLVM_fragment 64 32] $r7
	@DEBUG_VALUE: __construct_one_at_end<arm::app::Statistics &>:__tx <- [DW_OP_LLVM_fragment 32 32] $r7
	@DEBUG_VALUE: Statistics: <- $r5
	@DEBUG_VALUE: construct<arm::app::Statistics, arm::app::Statistics &>:__args <- $r5
	@DEBUG_VALUE: construct<arm::app::Statistics, arm::app::Statistics &, void>:__args <- $r5
	@DEBUG_VALUE: __construct_one_at_end<arm::app::Statistics &>:__args <- $r5
	@DEBUG_VALUE: emplace_back<arm::app::Statistics &>:__args <- $r5
	@DEBUG_VALUE: stat <- $r5
	@DEBUG_VALUE: __begin2 <- $r5
	@DEBUG_VALUE: __construct_one_at_end<arm::app::Statistics &>:__tx <- [DW_OP_plus_uconst 12, DW_OP_LLVM_fragment 0 32] [$sp+0]
	@DEBUG_VALUE: __construct_one_at_end<arm::app::Statistics &>:this <- [DW_OP_plus_uconst 12] [$sp+0]
	@DEBUG_VALUE: emplace_back<arm::app::Statistics &>:this <- [DW_OP_plus_uconst 12] [$sp+0]
	@DEBUG_VALUE: UpdateRunningStats:name <- [DW_OP_plus_uconst 648] [$sp+0]
	.loc	6 1463 39                       @ Keil_v5\ARM\ARMCLANG\Bin\..\include\libcxx\string:1463:39
	ldrsb.w	r0, [r5, #23]
.Ltmp365:
	.loc	6 1921 9                        @ Keil_v5\ARM\ARMCLANG\Bin\..\include\libcxx\string:1921:9
	cmp	r0, #0
.Ltmp366:
	.loc	12 31 12                        @ ../../../../ThirdParty/ml-embedded-evaluation-kit/source/profiler/include\Profiler.hpp:31:12
	add.w	r0, r7, #12
.Ltmp367:
	@DEBUG_VALUE: basic_string:this <- undef
	@DEBUG_VALUE: __is_long:this <- undef
	@DEBUG_VALUE: basic_string:__str <- undef
	.loc	6 1921 9                        @ Keil_v5\ARM\ARMCLANG\Bin\..\include\libcxx\string:1921:9
	bmi	.LBB5_33
.Ltmp368:
@ %bb.32:                               @   in Loop: Header=BB5_23 Depth=1
	@DEBUG_VALUE: Statistics:this <- $r7
	@DEBUG_VALUE: construct<arm::app::Statistics, arm::app::Statistics &>:__p <- $r7
	@DEBUG_VALUE: construct<arm::app::Statistics, arm::app::Statistics &, void>:__p <- $r7
	@DEBUG_VALUE: __construct_one_at_end<arm::app::Statistics &>:__tx <- [DW_OP_plus_uconst 64, DW_OP_stack_value, DW_OP_LLVM_fragment 64 32] $r7
	@DEBUG_VALUE: __construct_one_at_end<arm::app::Statistics &>:__tx <- [DW_OP_LLVM_fragment 32 32] $r7
	@DEBUG_VALUE: Statistics: <- $r5
	@DEBUG_VALUE: construct<arm::app::Statistics, arm::app::Statistics &>:__args <- $r5
	@DEBUG_VALUE: construct<arm::app::Statistics, arm::app::Statistics &, void>:__args <- $r5
	@DEBUG_VALUE: __construct_one_at_end<arm::app::Statistics &>:__args <- $r5
	@DEBUG_VALUE: emplace_back<arm::app::Statistics &>:__args <- $r5
	@DEBUG_VALUE: stat <- $r5
	@DEBUG_VALUE: __begin2 <- $r5
	@DEBUG_VALUE: __construct_one_at_end<arm::app::Statistics &>:__tx <- [DW_OP_plus_uconst 12, DW_OP_LLVM_fragment 0 32] [$sp+0]
	@DEBUG_VALUE: __construct_one_at_end<arm::app::Statistics &>:this <- [DW_OP_plus_uconst 12] [$sp+0]
	@DEBUG_VALUE: emplace_back<arm::app::Statistics &>:this <- [DW_OP_plus_uconst 12] [$sp+0]
	@DEBUG_VALUE: UpdateRunningStats:name <- [DW_OP_plus_uconst 648] [$sp+0]
	.loc	12 0 0 is_stmt 0                @ ../../../../ThirdParty/ml-embedded-evaluation-kit/source/profiler/include\Profiler.hpp:0:0
	add.w	r1, r5, #12
	@DEBUG_VALUE: __is_long:this <- $r1
.Ltmp369:
	@DEBUG_VALUE: basic_string:__str <- $r1
	.loc	6 1922 26 is_stmt 1             @ Keil_v5\ARM\ARMCLANG\Bin\..\include\libcxx\string:1922:26
	ldrd	r2, r3, [r1]
	ldr	r1, [r1, #8]
.Ltmp370:
	str	r1, [r0, #8]
	strd	r2, r3, [r0]
	b	.LBB5_34
.Ltmp371:
.LBB5_33:                               @   in Loop: Header=BB5_23 Depth=1
	@DEBUG_VALUE: Statistics:this <- $r7
	@DEBUG_VALUE: construct<arm::app::Statistics, arm::app::Statistics &>:__p <- $r7
	@DEBUG_VALUE: construct<arm::app::Statistics, arm::app::Statistics &, void>:__p <- $r7
	@DEBUG_VALUE: __construct_one_at_end<arm::app::Statistics &>:__tx <- [DW_OP_plus_uconst 64, DW_OP_stack_value, DW_OP_LLVM_fragment 64 32] $r7
	@DEBUG_VALUE: __construct_one_at_end<arm::app::Statistics &>:__tx <- [DW_OP_LLVM_fragment 32 32] $r7
	@DEBUG_VALUE: Statistics: <- $r5
	@DEBUG_VALUE: construct<arm::app::Statistics, arm::app::Statistics &>:__args <- $r5
	@DEBUG_VALUE: construct<arm::app::Statistics, arm::app::Statistics &, void>:__args <- $r5
	@DEBUG_VALUE: __construct_one_at_end<arm::app::Statistics &>:__args <- $r5
	@DEBUG_VALUE: emplace_back<arm::app::Statistics &>:__args <- $r5
	@DEBUG_VALUE: stat <- $r5
	@DEBUG_VALUE: __begin2 <- $r5
	@DEBUG_VALUE: __construct_one_at_end<arm::app::Statistics &>:__tx <- [DW_OP_plus_uconst 12, DW_OP_LLVM_fragment 0 32] [$sp+0]
	@DEBUG_VALUE: __construct_one_at_end<arm::app::Statistics &>:this <- [DW_OP_plus_uconst 12] [$sp+0]
	@DEBUG_VALUE: emplace_back<arm::app::Statistics &>:this <- [DW_OP_plus_uconst 12] [$sp+0]
	@DEBUG_VALUE: UpdateRunningStats:name <- [DW_OP_plus_uconst 648] [$sp+0]
	@DEBUG_VALUE: __get_long_pointer:this <- undef
	@DEBUG_VALUE: __get_long_size:this <- undef
	.loc	6 1545 34                       @ Keil_v5\ARM\ARMCLANG\Bin\..\include\libcxx\string:1545:34
	ldrd	r1, r2, [r5, #12]
.Ltmp372:
	.loc	6 1924 9                        @ Keil_v5\ARM\ARMCLANG\Bin\..\include\libcxx\string:1924:9
	bl	_ZNSt3__212basic_stringIcNS_11char_traitsIcEENS_9allocatorIcEEE25__init_copy_ctor_externalEPKcj
.Ltmp373:
.LBB5_34:                               @   in Loop: Header=BB5_23 Depth=1
	@DEBUG_VALUE: Statistics:this <- $r7
	@DEBUG_VALUE: construct<arm::app::Statistics, arm::app::Statistics &>:__p <- $r7
	@DEBUG_VALUE: construct<arm::app::Statistics, arm::app::Statistics &, void>:__p <- $r7
	@DEBUG_VALUE: __construct_one_at_end<arm::app::Statistics &>:__tx <- [DW_OP_plus_uconst 64, DW_OP_stack_value, DW_OP_LLVM_fragment 64 32] $r7
	@DEBUG_VALUE: __construct_one_at_end<arm::app::Statistics &>:__tx <- [DW_OP_LLVM_fragment 32 32] $r7
	@DEBUG_VALUE: Statistics: <- $r5
	@DEBUG_VALUE: construct<arm::app::Statistics, arm::app::Statistics &>:__args <- $r5
	@DEBUG_VALUE: construct<arm::app::Statistics, arm::app::Statistics &, void>:__args <- $r5
	@DEBUG_VALUE: __construct_one_at_end<arm::app::Statistics &>:__args <- $r5
	@DEBUG_VALUE: emplace_back<arm::app::Statistics &>:__args <- $r5
	@DEBUG_VALUE: stat <- $r5
	@DEBUG_VALUE: __begin2 <- $r5
	@DEBUG_VALUE: __construct_one_at_end<arm::app::Statistics &>:__tx <- [DW_OP_plus_uconst 12, DW_OP_LLVM_fragment 0 32] [$sp+0]
	@DEBUG_VALUE: __construct_one_at_end<arm::app::Statistics &>:this <- [DW_OP_plus_uconst 12] [$sp+0]
	@DEBUG_VALUE: emplace_back<arm::app::Statistics &>:this <- [DW_OP_plus_uconst 12] [$sp+0]
	@DEBUG_VALUE: UpdateRunningStats:name <- [DW_OP_plus_uconst 648] [$sp+0]
	.loc	12 31 12                        @ ../../../../ThirdParty/ml-embedded-evaluation-kit/source/profiler/include\Profiler.hpp:31:12
	add.w	r6, r5, #24
	add.w	r12, r7, #24
	ldm	r6, {r0, r1, r2, r3, r4, r6}
	stm.w	r12, {r0, r1, r2, r3, r4, r6}
	ldrd	r0, r2, [r5, #48]
	ldr	r1, [r5, #56]
	str	r1, [r7, #56]
	strd	r0, r2, [r7, #48]
.Ltmp374:
	.loc	14 928 5                        @ Keil_v5\ARM\ARMCLANG\Bin\..\include\libcxx\vector:928:5
	add.w	r0, r7, #64
.Ltmp375:
	@DEBUG_VALUE: ~_ConstructTransaction:this <- undef
	@DEBUG_VALUE: __construct_one_at_end<arm::app::Statistics &>:__tx <- [DW_OP_LLVM_fragment 32 32] $r0
	.loc	14 905 19                       @ Keil_v5\ARM\ARMCLANG\Bin\..\include\libcxx\vector:905:19
	str	r0, [sp, #80]
	b	.LBB5_22
.Ltmp376:
.LBB5_35:                               @   in Loop: Header=BB5_23 Depth=1
	@DEBUG_VALUE: __emplace_back_slow_path<arm::app::Statistics &>:__args <- $r5
	@DEBUG_VALUE: emplace_back<arm::app::Statistics &>:__args <- $r5
	@DEBUG_VALUE: stat <- $r5
	@DEBUG_VALUE: __begin2 <- $r5
	@DEBUG_VALUE: __split_buffer:__cap <- $r4
	@DEBUG_VALUE: __recommend:__cap <- $r1
	@DEBUG_VALUE: size:this <- [DW_OP_plus_uconst 12] [$sp+0]
	@DEBUG_VALUE: __split_buffer:__a <- [DW_OP_plus_uconst 12, DW_OP_deref_size 4, DW_OP_plus_uconst 8, DW_OP_stack_value] $sp
	@DEBUG_VALUE: __emplace_back_slow_path<arm::app::Statistics &>:__v <- [DW_OP_plus_uconst 12, DW_OP_deref_size 4, DW_OP_plus_uconst 8, DW_OP_stack_value, DW_OP_LLVM_fragment 128 32] $sp
	@DEBUG_VALUE: capacity:this <- [DW_OP_plus_uconst 12] [$sp+0]
	@DEBUG_VALUE: capacity:this <- [DW_OP_plus_uconst 12] [$sp+0]
	@DEBUG_VALUE: __recommend:this <- [DW_OP_plus_uconst 12] [$sp+0]
	@DEBUG_VALUE: __emplace_back_slow_path<arm::app::Statistics &>:__a <- [DW_OP_plus_uconst 12, DW_OP_deref_size 4, DW_OP_plus_uconst 8, DW_OP_stack_value] $sp
	@DEBUG_VALUE: __emplace_back_slow_path<arm::app::Statistics &>:this <- [DW_OP_plus_uconst 12] [$sp+0]
	@DEBUG_VALUE: emplace_back<arm::app::Statistics &>:this <- [DW_OP_plus_uconst 12] [$sp+0]
	@DEBUG_VALUE: UpdateRunningStats:name <- [DW_OP_plus_uconst 648] [$sp+0]
	@DEBUG_VALUE: __emplace_back_slow_path<arm::app::Statistics &>:__v <- [DW_OP_LLVM_fragment 96 32] 0
	@DEBUG_VALUE: __recommend:__ms <- 67108863
	.loc	14 0 19 is_stmt 0               @ Keil_v5\ARM\ARMCLANG\Bin\..\include\libcxx\vector:0:19
	mov.w	r12, #0
.Ltmp377:
.LBB5_36:                               @   in Loop: Header=BB5_23 Depth=1
	@DEBUG_VALUE: __emplace_back_slow_path<arm::app::Statistics &>:__args <- $r5
	@DEBUG_VALUE: emplace_back<arm::app::Statistics &>:__args <- $r5
	@DEBUG_VALUE: stat <- $r5
	@DEBUG_VALUE: __begin2 <- $r5
	@DEBUG_VALUE: __split_buffer:__cap <- $r4
	@DEBUG_VALUE: __split_buffer:__a <- [DW_OP_plus_uconst 12, DW_OP_deref_size 4, DW_OP_plus_uconst 8, DW_OP_stack_value] $sp
	@DEBUG_VALUE: __emplace_back_slow_path<arm::app::Statistics &>:__v <- [DW_OP_plus_uconst 12, DW_OP_deref_size 4, DW_OP_plus_uconst 8, DW_OP_stack_value, DW_OP_LLVM_fragment 128 32] $sp
	@DEBUG_VALUE: __emplace_back_slow_path<arm::app::Statistics &>:__a <- [DW_OP_plus_uconst 12, DW_OP_deref_size 4, DW_OP_plus_uconst 8, DW_OP_stack_value] $sp
	@DEBUG_VALUE: __emplace_back_slow_path<arm::app::Statistics &>:this <- [DW_OP_plus_uconst 12] [$sp+0]
	@DEBUG_VALUE: emplace_back<arm::app::Statistics &>:this <- [DW_OP_plus_uconst 12] [$sp+0]
	@DEBUG_VALUE: UpdateRunningStats:name <- [DW_OP_plus_uconst 648] [$sp+0]
	@DEBUG_VALUE: __emplace_back_slow_path<arm::app::Statistics &>:__v <- [DW_OP_LLVM_fragment 96 32] 0
	asrs	r0, r6, #6
.Ltmp378:
	@DEBUG_VALUE: __emplace_back_slow_path<arm::app::Statistics &>:__v <- [DW_OP_LLVM_fragment 0 32] $r12
	.loc	6 1463 39 is_stmt 1             @ Keil_v5\ARM\ARMCLANG\Bin\..\include\libcxx\string:1463:39
	ldrsb.w	r1, [r5, #11]
.Ltmp379:
	@DEBUG_VALUE: __split_buffer:__start <- $r0
	.loc	17 315 34                       @ Keil_v5\ARM\ARMCLANG\Bin\..\include\libcxx\__split_buffer:315:34
	add.w	r9, r12, r0, lsl #6
.Ltmp380:
	@DEBUG_VALUE: __is_long:this <- $r5
	@DEBUG_VALUE: basic_string:__str <- $r5
	@DEBUG_VALUE: basic_string:this <- $r9
	@DEBUG_VALUE: Statistics: <- $r5
	@DEBUG_VALUE: Statistics:this <- $r9
	@DEBUG_VALUE: construct<arm::app::Statistics, arm::app::Statistics &>:__args <- $r5
	@DEBUG_VALUE: construct<arm::app::Statistics, arm::app::Statistics &>:__p <- $r9
	@DEBUG_VALUE: construct<arm::app::Statistics, arm::app::Statistics &>:this <- [DW_OP_plus_uconst 12, DW_OP_deref_size 4, DW_OP_plus_uconst 8, DW_OP_stack_value] $sp
	@DEBUG_VALUE: construct<arm::app::Statistics, arm::app::Statistics &, void>:__args <- $r5
	@DEBUG_VALUE: construct<arm::app::Statistics, arm::app::Statistics &, void>:__p <- $r9
	@DEBUG_VALUE: construct<arm::app::Statistics, arm::app::Statistics &, void>:__a <- [DW_OP_plus_uconst 12, DW_OP_deref_size 4, DW_OP_plus_uconst 8, DW_OP_stack_value] $sp
	@DEBUG_VALUE: __emplace_back_slow_path<arm::app::Statistics &>:__v <- [DW_OP_LLVM_fragment 32 32] $r9
	@DEBUG_VALUE: __emplace_back_slow_path<arm::app::Statistics &>:__v <- [DW_OP_LLVM_fragment 64 32] $r9
	@DEBUG_VALUE: __emplace_back_slow_path<arm::app::Statistics &>:__v <- [DW_OP_LLVM_fragment 96 32] undef
	.loc	6 1921 9                        @ Keil_v5\ARM\ARMCLANG\Bin\..\include\libcxx\string:1921:9
	cmp	r1, #0
	bmi	.LBB5_38
.Ltmp381:
@ %bb.37:                               @   in Loop: Header=BB5_23 Depth=1
	@DEBUG_VALUE: __emplace_back_slow_path<arm::app::Statistics &>:__v <- [DW_OP_LLVM_fragment 0 32] $r12
	@DEBUG_VALUE: __emplace_back_slow_path<arm::app::Statistics &>:__v <- [DW_OP_LLVM_fragment 64 32] $r9
	@DEBUG_VALUE: __emplace_back_slow_path<arm::app::Statistics &>:__v <- [DW_OP_LLVM_fragment 32 32] $r9
	@DEBUG_VALUE: construct<arm::app::Statistics, arm::app::Statistics &, void>:__p <- $r9
	@DEBUG_VALUE: construct<arm::app::Statistics, arm::app::Statistics &>:__p <- $r9
	@DEBUG_VALUE: Statistics:this <- $r9
	@DEBUG_VALUE: basic_string:this <- $r9
	@DEBUG_VALUE: construct<arm::app::Statistics, arm::app::Statistics &, void>:__args <- $r5
	@DEBUG_VALUE: construct<arm::app::Statistics, arm::app::Statistics &>:__args <- $r5
	@DEBUG_VALUE: Statistics: <- $r5
	@DEBUG_VALUE: basic_string:__str <- $r5
	@DEBUG_VALUE: __emplace_back_slow_path<arm::app::Statistics &>:__args <- $r5
	@DEBUG_VALUE: emplace_back<arm::app::Statistics &>:__args <- $r5
	@DEBUG_VALUE: stat <- $r5
	@DEBUG_VALUE: __begin2 <- $r5
	@DEBUG_VALUE: construct<arm::app::Statistics, arm::app::Statistics &, void>:__a <- [DW_OP_plus_uconst 12, DW_OP_deref_size 4, DW_OP_plus_uconst 8, DW_OP_stack_value] $sp
	@DEBUG_VALUE: construct<arm::app::Statistics, arm::app::Statistics &>:this <- [DW_OP_plus_uconst 12, DW_OP_deref_size 4, DW_OP_plus_uconst 8, DW_OP_stack_value] $sp
	@DEBUG_VALUE: __emplace_back_slow_path<arm::app::Statistics &>:__v <- [DW_OP_plus_uconst 12, DW_OP_deref_size 4, DW_OP_plus_uconst 8, DW_OP_stack_value, DW_OP_LLVM_fragment 128 32] $sp
	@DEBUG_VALUE: __emplace_back_slow_path<arm::app::Statistics &>:__a <- [DW_OP_plus_uconst 12, DW_OP_deref_size 4, DW_OP_plus_uconst 8, DW_OP_stack_value] $sp
	@DEBUG_VALUE: __emplace_back_slow_path<arm::app::Statistics &>:this <- [DW_OP_plus_uconst 12] [$sp+0]
	@DEBUG_VALUE: emplace_back<arm::app::Statistics &>:this <- [DW_OP_plus_uconst 12] [$sp+0]
	@DEBUG_VALUE: UpdateRunningStats:name <- [DW_OP_plus_uconst 648] [$sp+0]
	.loc	6 1922 26                       @ Keil_v5\ARM\ARMCLANG\Bin\..\include\libcxx\string:1922:26
	ldm.w	r5, {r0, r1, r2}
	stm.w	r9, {r0, r1, r2}
	b	.LBB5_39
.Ltmp382:
.LBB5_38:                               @   in Loop: Header=BB5_23 Depth=1
	@DEBUG_VALUE: __emplace_back_slow_path<arm::app::Statistics &>:__v <- [DW_OP_LLVM_fragment 0 32] $r12
	@DEBUG_VALUE: __emplace_back_slow_path<arm::app::Statistics &>:__v <- [DW_OP_LLVM_fragment 64 32] $r9
	@DEBUG_VALUE: __emplace_back_slow_path<arm::app::Statistics &>:__v <- [DW_OP_LLVM_fragment 32 32] $r9
	@DEBUG_VALUE: construct<arm::app::Statistics, arm::app::Statistics &, void>:__p <- $r9
	@DEBUG_VALUE: construct<arm::app::Statistics, arm::app::Statistics &>:__p <- $r9
	@DEBUG_VALUE: Statistics:this <- $r9
	@DEBUG_VALUE: basic_string:this <- $r9
	@DEBUG_VALUE: construct<arm::app::Statistics, arm::app::Statistics &, void>:__args <- $r5
	@DEBUG_VALUE: construct<arm::app::Statistics, arm::app::Statistics &>:__args <- $r5
	@DEBUG_VALUE: Statistics: <- $r5
	@DEBUG_VALUE: basic_string:__str <- $r5
	@DEBUG_VALUE: __emplace_back_slow_path<arm::app::Statistics &>:__args <- $r5
	@DEBUG_VALUE: emplace_back<arm::app::Statistics &>:__args <- $r5
	@DEBUG_VALUE: stat <- $r5
	@DEBUG_VALUE: __begin2 <- $r5
	@DEBUG_VALUE: construct<arm::app::Statistics, arm::app::Statistics &, void>:__a <- [DW_OP_plus_uconst 12, DW_OP_deref_size 4, DW_OP_plus_uconst 8, DW_OP_stack_value] $sp
	@DEBUG_VALUE: construct<arm::app::Statistics, arm::app::Statistics &>:this <- [DW_OP_plus_uconst 12, DW_OP_deref_size 4, DW_OP_plus_uconst 8, DW_OP_stack_value] $sp
	@DEBUG_VALUE: __emplace_back_slow_path<arm::app::Statistics &>:__v <- [DW_OP_plus_uconst 12, DW_OP_deref_size 4, DW_OP_plus_uconst 8, DW_OP_stack_value, DW_OP_LLVM_fragment 128 32] $sp
	@DEBUG_VALUE: __emplace_back_slow_path<arm::app::Statistics &>:__a <- [DW_OP_plus_uconst 12, DW_OP_deref_size 4, DW_OP_plus_uconst 8, DW_OP_stack_value] $sp
	@DEBUG_VALUE: __emplace_back_slow_path<arm::app::Statistics &>:this <- [DW_OP_plus_uconst 12] [$sp+0]
	@DEBUG_VALUE: emplace_back<arm::app::Statistics &>:this <- [DW_OP_plus_uconst 12] [$sp+0]
	@DEBUG_VALUE: UpdateRunningStats:name <- [DW_OP_plus_uconst 648] [$sp+0]
	@DEBUG_VALUE: basic_string:this <- $r9
	@DEBUG_VALUE: basic_string:__str <- $r5
	@DEBUG_VALUE: __is_long:this <- $r5
	@DEBUG_VALUE: __get_long_pointer:this <- $r5
	@DEBUG_VALUE: __get_long_size:this <- $r5
	.loc	6 1545 34                       @ Keil_v5\ARM\ARMCLANG\Bin\..\include\libcxx\string:1545:34
	ldrd	r1, r2, [r5]
.Ltmp383:
	.loc	6 1924 9                        @ Keil_v5\ARM\ARMCLANG\Bin\..\include\libcxx\string:1924:9
	mov	r0, r9
	mov	r11, r12
.Ltmp384:
	@DEBUG_VALUE: __emplace_back_slow_path<arm::app::Statistics &>:__v <- [DW_OP_LLVM_fragment 0 32] $r11
	bl	_ZNSt3__212basic_stringIcNS_11char_traitsIcEENS_9allocatorIcEEE25__init_copy_ctor_externalEPKcj
.Ltmp385:
	.loc	6 0 9 is_stmt 0                 @ Keil_v5\ARM\ARMCLANG\Bin\..\include\libcxx\string:0:9
	mov	r12, r11
.Ltmp386:
.LBB5_39:                               @   in Loop: Header=BB5_23 Depth=1
	@DEBUG_VALUE: __emplace_back_slow_path<arm::app::Statistics &>:__v <- [DW_OP_LLVM_fragment 64 32] $r9
	@DEBUG_VALUE: __emplace_back_slow_path<arm::app::Statistics &>:__v <- [DW_OP_LLVM_fragment 32 32] $r9
	@DEBUG_VALUE: construct<arm::app::Statistics, arm::app::Statistics &, void>:__p <- $r9
	@DEBUG_VALUE: construct<arm::app::Statistics, arm::app::Statistics &>:__p <- $r9
	@DEBUG_VALUE: Statistics:this <- $r9
	@DEBUG_VALUE: construct<arm::app::Statistics, arm::app::Statistics &, void>:__args <- $r5
	@DEBUG_VALUE: construct<arm::app::Statistics, arm::app::Statistics &>:__args <- $r5
	@DEBUG_VALUE: Statistics: <- $r5
	@DEBUG_VALUE: __emplace_back_slow_path<arm::app::Statistics &>:__args <- $r5
	@DEBUG_VALUE: emplace_back<arm::app::Statistics &>:__args <- $r5
	@DEBUG_VALUE: stat <- $r5
	@DEBUG_VALUE: __begin2 <- $r5
	@DEBUG_VALUE: construct<arm::app::Statistics, arm::app::Statistics &, void>:__a <- [DW_OP_plus_uconst 12, DW_OP_deref_size 4, DW_OP_plus_uconst 8, DW_OP_stack_value] $sp
	@DEBUG_VALUE: construct<arm::app::Statistics, arm::app::Statistics &>:this <- [DW_OP_plus_uconst 12, DW_OP_deref_size 4, DW_OP_plus_uconst 8, DW_OP_stack_value] $sp
	@DEBUG_VALUE: __emplace_back_slow_path<arm::app::Statistics &>:__v <- [DW_OP_plus_uconst 12, DW_OP_deref_size 4, DW_OP_plus_uconst 8, DW_OP_stack_value, DW_OP_LLVM_fragment 128 32] $sp
	@DEBUG_VALUE: __emplace_back_slow_path<arm::app::Statistics &>:__a <- [DW_OP_plus_uconst 12, DW_OP_deref_size 4, DW_OP_plus_uconst 8, DW_OP_stack_value] $sp
	@DEBUG_VALUE: __emplace_back_slow_path<arm::app::Statistics &>:this <- [DW_OP_plus_uconst 12] [$sp+0]
	@DEBUG_VALUE: emplace_back<arm::app::Statistics &>:this <- [DW_OP_plus_uconst 12] [$sp+0]
	@DEBUG_VALUE: UpdateRunningStats:name <- [DW_OP_plus_uconst 648] [$sp+0]
	@DEBUG_VALUE: __emplace_back_slow_path<arm::app::Statistics &>:__v <- [DW_OP_LLVM_fragment 96 32] undef
	.loc	6 1463 39 is_stmt 1             @ Keil_v5\ARM\ARMCLANG\Bin\..\include\libcxx\string:1463:39
	ldrsb.w	r0, [r5, #23]
	str	r6, [sp, #40]                   @ 4-byte Spill
.Ltmp387:
	@DEBUG_VALUE: basic_string:this <- $r0
	.loc	6 1921 9                        @ Keil_v5\ARM\ARMCLANG\Bin\..\include\libcxx\string:1921:9
	cmp	r0, #0
.Ltmp388:
	.loc	12 31 12                        @ ../../../../ThirdParty/ml-embedded-evaluation-kit/source/profiler/include\Profiler.hpp:31:12
	add.w	r0, r9, #12
.Ltmp389:
	@DEBUG_VALUE: __is_long:this <- undef
	@DEBUG_VALUE: basic_string:__str <- undef
	.loc	6 1921 9                        @ Keil_v5\ARM\ARMCLANG\Bin\..\include\libcxx\string:1921:9
	bmi	.LBB5_41
.Ltmp390:
@ %bb.40:                               @   in Loop: Header=BB5_23 Depth=1
	@DEBUG_VALUE: __emplace_back_slow_path<arm::app::Statistics &>:__v <- [DW_OP_LLVM_fragment 64 32] $r9
	@DEBUG_VALUE: __emplace_back_slow_path<arm::app::Statistics &>:__v <- [DW_OP_LLVM_fragment 32 32] $r9
	@DEBUG_VALUE: construct<arm::app::Statistics, arm::app::Statistics &, void>:__p <- $r9
	@DEBUG_VALUE: construct<arm::app::Statistics, arm::app::Statistics &>:__p <- $r9
	@DEBUG_VALUE: Statistics:this <- $r9
	@DEBUG_VALUE: construct<arm::app::Statistics, arm::app::Statistics &, void>:__args <- $r5
	@DEBUG_VALUE: construct<arm::app::Statistics, arm::app::Statistics &>:__args <- $r5
	@DEBUG_VALUE: Statistics: <- $r5
	@DEBUG_VALUE: __emplace_back_slow_path<arm::app::Statistics &>:__args <- $r5
	@DEBUG_VALUE: emplace_back<arm::app::Statistics &>:__args <- $r5
	@DEBUG_VALUE: stat <- $r5
	@DEBUG_VALUE: __begin2 <- $r5
	@DEBUG_VALUE: construct<arm::app::Statistics, arm::app::Statistics &, void>:__a <- [DW_OP_plus_uconst 12, DW_OP_deref_size 4, DW_OP_plus_uconst 8, DW_OP_stack_value] $sp
	@DEBUG_VALUE: construct<arm::app::Statistics, arm::app::Statistics &>:this <- [DW_OP_plus_uconst 12, DW_OP_deref_size 4, DW_OP_plus_uconst 8, DW_OP_stack_value] $sp
	@DEBUG_VALUE: __emplace_back_slow_path<arm::app::Statistics &>:__v <- [DW_OP_plus_uconst 12, DW_OP_deref_size 4, DW_OP_plus_uconst 8, DW_OP_stack_value, DW_OP_LLVM_fragment 128 32] $sp
	@DEBUG_VALUE: __emplace_back_slow_path<arm::app::Statistics &>:__a <- [DW_OP_plus_uconst 12, DW_OP_deref_size 4, DW_OP_plus_uconst 8, DW_OP_stack_value] $sp
	@DEBUG_VALUE: __emplace_back_slow_path<arm::app::Statistics &>:this <- [DW_OP_plus_uconst 12] [$sp+0]
	@DEBUG_VALUE: emplace_back<arm::app::Statistics &>:this <- [DW_OP_plus_uconst 12] [$sp+0]
	@DEBUG_VALUE: UpdateRunningStats:name <- [DW_OP_plus_uconst 648] [$sp+0]
	.loc	12 0 0 is_stmt 0                @ ../../../../ThirdParty/ml-embedded-evaluation-kit/source/profiler/include\Profiler.hpp:0:0
	add.w	r1, r5, #12
	@DEBUG_VALUE: __is_long:this <- $r1
.Ltmp391:
	@DEBUG_VALUE: basic_string:__str <- $r1
	.loc	6 1922 26 is_stmt 1             @ Keil_v5\ARM\ARMCLANG\Bin\..\include\libcxx\string:1922:26
	ldrd	r2, r3, [r1]
	ldr	r1, [r1, #8]
.Ltmp392:
	str	r1, [r0, #8]
	strd	r2, r3, [r0]
	b	.LBB5_42
.Ltmp393:
.LBB5_41:                               @   in Loop: Header=BB5_23 Depth=1
	@DEBUG_VALUE: __emplace_back_slow_path<arm::app::Statistics &>:__v <- [DW_OP_LLVM_fragment 64 32] $r9
	@DEBUG_VALUE: __emplace_back_slow_path<arm::app::Statistics &>:__v <- [DW_OP_LLVM_fragment 32 32] $r9
	@DEBUG_VALUE: construct<arm::app::Statistics, arm::app::Statistics &, void>:__p <- $r9
	@DEBUG_VALUE: construct<arm::app::Statistics, arm::app::Statistics &>:__p <- $r9
	@DEBUG_VALUE: Statistics:this <- $r9
	@DEBUG_VALUE: construct<arm::app::Statistics, arm::app::Statistics &, void>:__args <- $r5
	@DEBUG_VALUE: construct<arm::app::Statistics, arm::app::Statistics &>:__args <- $r5
	@DEBUG_VALUE: Statistics: <- $r5
	@DEBUG_VALUE: __emplace_back_slow_path<arm::app::Statistics &>:__args <- $r5
	@DEBUG_VALUE: emplace_back<arm::app::Statistics &>:__args <- $r5
	@DEBUG_VALUE: stat <- $r5
	@DEBUG_VALUE: __begin2 <- $r5
	@DEBUG_VALUE: construct<arm::app::Statistics, arm::app::Statistics &, void>:__a <- [DW_OP_plus_uconst 12, DW_OP_deref_size 4, DW_OP_plus_uconst 8, DW_OP_stack_value] $sp
	@DEBUG_VALUE: construct<arm::app::Statistics, arm::app::Statistics &>:this <- [DW_OP_plus_uconst 12, DW_OP_deref_size 4, DW_OP_plus_uconst 8, DW_OP_stack_value] $sp
	@DEBUG_VALUE: __emplace_back_slow_path<arm::app::Statistics &>:__v <- [DW_OP_plus_uconst 12, DW_OP_deref_size 4, DW_OP_plus_uconst 8, DW_OP_stack_value, DW_OP_LLVM_fragment 128 32] $sp
	@DEBUG_VALUE: __emplace_back_slow_path<arm::app::Statistics &>:__a <- [DW_OP_plus_uconst 12, DW_OP_deref_size 4, DW_OP_plus_uconst 8, DW_OP_stack_value] $sp
	@DEBUG_VALUE: __emplace_back_slow_path<arm::app::Statistics &>:this <- [DW_OP_plus_uconst 12] [$sp+0]
	@DEBUG_VALUE: emplace_back<arm::app::Statistics &>:this <- [DW_OP_plus_uconst 12] [$sp+0]
	@DEBUG_VALUE: UpdateRunningStats:name <- [DW_OP_plus_uconst 648] [$sp+0]
	@DEBUG_VALUE: __get_long_pointer:this <- undef
	@DEBUG_VALUE: __get_long_size:this <- undef
	.loc	6 1545 34                       @ Keil_v5\ARM\ARMCLANG\Bin\..\include\libcxx\string:1545:34
	ldrd	r1, r2, [r5, #12]
	mov	r6, r12
.Ltmp394:
	.loc	6 1924 9                        @ Keil_v5\ARM\ARMCLANG\Bin\..\include\libcxx\string:1924:9
	bl	_ZNSt3__212basic_stringIcNS_11char_traitsIcEENS_9allocatorIcEEE25__init_copy_ctor_externalEPKcj
.Ltmp395:
	.loc	6 0 9 is_stmt 0                 @ Keil_v5\ARM\ARMCLANG\Bin\..\include\libcxx\string:0:9
	mov	r12, r6
.Ltmp396:
.LBB5_42:                               @   in Loop: Header=BB5_23 Depth=1
	@DEBUG_VALUE: __emplace_back_slow_path<arm::app::Statistics &>:__v <- [DW_OP_LLVM_fragment 64 32] $r9
	@DEBUG_VALUE: __emplace_back_slow_path<arm::app::Statistics &>:__v <- [DW_OP_LLVM_fragment 32 32] $r9
	@DEBUG_VALUE: construct<arm::app::Statistics, arm::app::Statistics &, void>:__p <- $r9
	@DEBUG_VALUE: construct<arm::app::Statistics, arm::app::Statistics &>:__p <- $r9
	@DEBUG_VALUE: Statistics:this <- $r9
	@DEBUG_VALUE: construct<arm::app::Statistics, arm::app::Statistics &, void>:__args <- $r5
	@DEBUG_VALUE: construct<arm::app::Statistics, arm::app::Statistics &>:__args <- $r5
	@DEBUG_VALUE: Statistics: <- $r5
	@DEBUG_VALUE: __emplace_back_slow_path<arm::app::Statistics &>:__args <- $r5
	@DEBUG_VALUE: emplace_back<arm::app::Statistics &>:__args <- $r5
	@DEBUG_VALUE: stat <- $r5
	@DEBUG_VALUE: __begin2 <- $r5
	@DEBUG_VALUE: construct<arm::app::Statistics, arm::app::Statistics &, void>:__a <- [DW_OP_plus_uconst 12, DW_OP_deref_size 4, DW_OP_plus_uconst 8, DW_OP_stack_value] $sp
	@DEBUG_VALUE: construct<arm::app::Statistics, arm::app::Statistics &>:this <- [DW_OP_plus_uconst 12, DW_OP_deref_size 4, DW_OP_plus_uconst 8, DW_OP_stack_value] $sp
	@DEBUG_VALUE: __emplace_back_slow_path<arm::app::Statistics &>:__v <- [DW_OP_plus_uconst 12, DW_OP_deref_size 4, DW_OP_plus_uconst 8, DW_OP_stack_value, DW_OP_LLVM_fragment 128 32] $sp
	@DEBUG_VALUE: __emplace_back_slow_path<arm::app::Statistics &>:__a <- [DW_OP_plus_uconst 12, DW_OP_deref_size 4, DW_OP_plus_uconst 8, DW_OP_stack_value] $sp
	@DEBUG_VALUE: __emplace_back_slow_path<arm::app::Statistics &>:this <- [DW_OP_plus_uconst 12] [$sp+0]
	@DEBUG_VALUE: emplace_back<arm::app::Statistics &>:this <- [DW_OP_plus_uconst 12] [$sp+0]
	@DEBUG_VALUE: UpdateRunningStats:name <- [DW_OP_plus_uconst 648] [$sp+0]
	add.w	lr, r12, r4, lsl #6
.Ltmp397:
	@DEBUG_VALUE: __emplace_back_slow_path<arm::app::Statistics &>:__v <- [DW_OP_LLVM_fragment 96 32] $lr
	.loc	12 31 12 is_stmt 1              @ ../../../../ThirdParty/ml-embedded-evaluation-kit/source/profiler/include\Profiler.hpp:31:12
	ldr	r4, [r5, #44]
	add.w	r6, r5, #24
	ldm	r6, {r0, r1, r2, r3, r6}
	str.w	r4, [r9, #44]
	add.w	r4, r9, #24
	stm	r4!, {r0, r1, r2, r3, r6}
.Ltmp398:
	.loc	14 954 82                       @ Keil_v5\ARM\ARMCLANG\Bin\..\include\libcxx\vector:954:82
	ldrd	r4, r2, [sp, #76]
.Ltmp399:
	@DEBUG_VALUE: __construct_backward_with_exception_guarantees<std::allocator<arm::app::Statistics>, arm::app::Statistics *>:__end2 <- undef
	@DEBUG_VALUE: __construct_backward_with_exception_guarantees<std::allocator<arm::app::Statistics>, arm::app::Statistics *>:__a <- undef
	.loc	12 31 12                        @ ../../../../ThirdParty/ml-embedded-evaluation-kit/source/profiler/include\Profiler.hpp:31:12
	ldrd	r0, r3, [r5, #48]
	ldr	r1, [r5, #56]
	str.w	r0, [r9, #48]
.Ltmp400:
	.loc	14 1668 15                      @ Keil_v5\ARM\ARMCLANG\Bin\..\include\libcxx\vector:1668:15
	add.w	r0, r9, #64
.Ltmp401:
	@DEBUG_VALUE: __swap_out_circular_buffer:__v <- undef
	@DEBUG_VALUE: __swap_out_circular_buffer:this <- [DW_OP_plus_uconst 12] [$sp+0]
	@DEBUG_VALUE: __emplace_back_slow_path<arm::app::Statistics &>:__v <- [DW_OP_LLVM_fragment 64 32] $r0
	@DEBUG_VALUE: __construct_backward_with_exception_guarantees<std::allocator<arm::app::Statistics>, arm::app::Statistics *>:__end1 <- $r2
	@DEBUG_VALUE: __construct_backward_with_exception_guarantees<std::allocator<arm::app::Statistics>, arm::app::Statistics *>:__begin1 <- $r4
	.loc	4 1044 5                        @ Keil_v5\ARM\ARMCLANG\Bin\..\include\libcxx\memory:1044:5
	cmp	r2, r4
.Ltmp402:
	.loc	12 31 12                        @ ../../../../ThirdParty/ml-embedded-evaluation-kit/source/profiler/include\Profiler.hpp:31:12
	str.w	r1, [r9, #56]
	str.w	r3, [r9, #52]
.Ltmp403:
	@DEBUG_VALUE: __construct_backward_with_exception_guarantees<std::allocator<arm::app::Statistics>, arm::app::Statistics *>:__begin1 <- $r4
	@DEBUG_VALUE: __construct_backward_with_exception_guarantees<std::allocator<arm::app::Statistics>, arm::app::Statistics *>:__end1 <- $r2
	.loc	4 1044 5                        @ Keil_v5\ARM\ARMCLANG\Bin\..\include\libcxx\memory:1044:5
	beq.w	.LBB5_20
.Ltmp404:
@ %bb.43:                               @   in Loop: Header=BB5_23 Depth=1
	@DEBUG_VALUE: __emplace_back_slow_path<arm::app::Statistics &>:__v <- [DW_OP_LLVM_fragment 32 32] $r9
	@DEBUG_VALUE: __emplace_back_slow_path<arm::app::Statistics &>:__args <- $r5
	@DEBUG_VALUE: emplace_back<arm::app::Statistics &>:__args <- $r5
	@DEBUG_VALUE: stat <- $r5
	@DEBUG_VALUE: __begin2 <- $r5
	@DEBUG_VALUE: __construct_backward_with_exception_guarantees<std::allocator<arm::app::Statistics>, arm::app::Statistics *>:__begin1 <- $r4
	@DEBUG_VALUE: __construct_backward_with_exception_guarantees<std::allocator<arm::app::Statistics>, arm::app::Statistics *>:__end1 <- $r2
	@DEBUG_VALUE: __emplace_back_slow_path<arm::app::Statistics &>:__v <- [DW_OP_LLVM_fragment 64 32] $r0
	@DEBUG_VALUE: __swap_out_circular_buffer:this <- [DW_OP_plus_uconst 12] [$sp+0]
	@DEBUG_VALUE: __emplace_back_slow_path<arm::app::Statistics &>:__v <- [DW_OP_plus_uconst 12, DW_OP_deref_size 4, DW_OP_plus_uconst 8, DW_OP_stack_value, DW_OP_LLVM_fragment 128 32] $sp
	@DEBUG_VALUE: __emplace_back_slow_path<arm::app::Statistics &>:__a <- [DW_OP_plus_uconst 12, DW_OP_deref_size 4, DW_OP_plus_uconst 8, DW_OP_stack_value] $sp
	@DEBUG_VALUE: __emplace_back_slow_path<arm::app::Statistics &>:this <- [DW_OP_plus_uconst 12] [$sp+0]
	@DEBUG_VALUE: emplace_back<arm::app::Statistics &>:this <- [DW_OP_plus_uconst 12] [$sp+0]
	@DEBUG_VALUE: UpdateRunningStats:name <- [DW_OP_plus_uconst 648] [$sp+0]
	@DEBUG_VALUE: __emplace_back_slow_path<arm::app::Statistics &>:__v <- [DW_OP_LLVM_fragment 96 32] $lr
	.loc	4 0 5 is_stmt 0                 @ Keil_v5\ARM\ARMCLANG\Bin\..\include\libcxx\memory:0:5
	ldr	r3, [sp, #40]                   @ 4-byte Reload
	strd	r0, lr, [sp, #32]               @ 8-byte Folded Spill
	.loc	4 1044 5                        @ Keil_v5\ARM\ARMCLANG\Bin\..\include\libcxx\memory:1044:5
	orr.w	r1, r3, r3, asr #31
	movs	r0, #1
.Ltmp405:
	subs	r4, r4, r2
.Ltmp406:
	cmp	r1, #1
	str	r1, [sp, #20]                   @ 4-byte Spill
	csel	r1, r1, r0, lt
	sub.w	r0, r10, r7
	cmp	r0, r3
	csel	r7, r0, r3, gt
	lsrs	r7, r7, #6
	mul	r6, r1, r7
	str	r0, [sp, #24]                   @ 4-byte Spill
	add.w	r0, r4, #64
	add.w	r6, r12, r6, lsl #6
	str	r0, [sp, #56]                   @ 4-byte Spill
	add.w	r0, r4, #128
	str	r0, [sp, #52]                   @ 4-byte Spill
	add.w	r0, r4, #192
	str.w	r12, [sp, #28]                  @ 4-byte Spill
	sub.w	r12, r2, #128
	sub.w	lr, r6, #128
.Ltmp407:
	.loc	4 0 5                           @ Keil_v5\ARM\ARMCLANG\Bin\..\include\libcxx\memory:0:5
	movs	r2, #0
.Ltmp408:
	str	r4, [sp, #44]                   @ 4-byte Spill
	.loc	4 1044 5                        @ Keil_v5\ARM\ARMCLANG\Bin\..\include\libcxx\memory:1044:5
	str	r0, [sp, #48]                   @ 4-byte Spill
.Ltmp409:
	.p2align	2
.LBB5_44:                               @   Parent Loop BB5_23 Depth=1
                                        @ =>  This Inner Loop Header: Depth=2
	@DEBUG_VALUE: __emplace_back_slow_path<arm::app::Statistics &>:__args <- $r5
	@DEBUG_VALUE: emplace_back<arm::app::Statistics &>:__args <- $r5
	@DEBUG_VALUE: stat <- $r5
	@DEBUG_VALUE: __begin2 <- $r5
	@DEBUG_VALUE: __swap_out_circular_buffer:this <- [DW_OP_plus_uconst 12] [$sp+0]
	@DEBUG_VALUE: __emplace_back_slow_path<arm::app::Statistics &>:__v <- [DW_OP_plus_uconst 12, DW_OP_deref_size 4, DW_OP_plus_uconst 8, DW_OP_stack_value, DW_OP_LLVM_fragment 128 32] $sp
	@DEBUG_VALUE: __emplace_back_slow_path<arm::app::Statistics &>:__a <- [DW_OP_plus_uconst 12, DW_OP_deref_size 4, DW_OP_plus_uconst 8, DW_OP_stack_value] $sp
	@DEBUG_VALUE: __emplace_back_slow_path<arm::app::Statistics &>:this <- [DW_OP_plus_uconst 12] [$sp+0]
	@DEBUG_VALUE: emplace_back<arm::app::Statistics &>:this <- [DW_OP_plus_uconst 12] [$sp+0]
	@DEBUG_VALUE: UpdateRunningStats:name <- [DW_OP_plus_uconst 648] [$sp+0]
	@DEBUG_VALUE: __emplace_back_slow_path<arm::app::Statistics &>:__v <- [DW_OP_LLVM_fragment 32 32] undef
	@DEBUG_VALUE: __construct_backward_with_exception_guarantees<std::allocator<arm::app::Statistics>, arm::app::Statistics *>:__end1 <- [DW_OP_plus_uconst 128, DW_OP_constu 64, DW_OP_minus, DW_OP_stack_value] $r12
	@DEBUG_VALUE: construct<arm::app::Statistics, arm::app::Statistics, void>:__a <- undef
	@DEBUG_VALUE: construct<arm::app::Statistics, arm::app::Statistics, void>:__p <- [DW_OP_constu 64, DW_OP_minus, DW_OP_stack_value] undef
	@DEBUG_VALUE: construct<arm::app::Statistics, arm::app::Statistics, void>:__args <- [DW_OP_plus_uconst 128, DW_OP_constu 64, DW_OP_minus, DW_OP_stack_value] $r12
	@DEBUG_VALUE: construct<arm::app::Statistics, arm::app::Statistics>:this <- undef
	@DEBUG_VALUE: construct<arm::app::Statistics, arm::app::Statistics>:__p <- [DW_OP_constu 64, DW_OP_minus, DW_OP_stack_value] undef
	@DEBUG_VALUE: construct<arm::app::Statistics, arm::app::Statistics>:__args <- [DW_OP_plus_uconst 128, DW_OP_constu 64, DW_OP_minus, DW_OP_stack_value] $r12
	@DEBUG_VALUE: Statistics:this <- [DW_OP_constu 64, DW_OP_minus, DW_OP_stack_value] undef
	@DEBUG_VALUE: Statistics: <- [DW_OP_plus_uconst 128, DW_OP_constu 64, DW_OP_minus, DW_OP_stack_value] $r12
	@DEBUG_VALUE: basic_string:this <- [DW_OP_constu 64, DW_OP_minus, DW_OP_stack_value] undef
	@DEBUG_VALUE: basic_string:__str <- [DW_OP_plus_uconst 128, DW_OP_constu 64, DW_OP_minus, DW_OP_stack_value] $r12
	.loc	6 1976 7 is_stmt 1              @ Keil_v5\ARM\ARMCLANG\Bin\..\include\libcxx\string:1976:7
	ldrd	r6, r0, [r12, #64]
.Ltmp410:
	.loc	12 31 12                        @ ../../../../ThirdParty/ml-embedded-evaluation-kit/source/profiler/include\Profiler.hpp:31:12
	add.w	r11, r12, #88
.Ltmp411:
	.loc	6 1976 7                        @ Keil_v5\ARM\ARMCLANG\Bin\..\include\libcxx\string:1976:7
	ldr.w	r3, [r12, #72]
	str.w	r3, [lr, #72]
	strd	r6, r0, [lr, #64]
.Ltmp412:
	@DEBUG_VALUE: __i <- 0
	@DEBUG_VALUE: __zero:__a <- [DW_OP_plus_uconst 128, DW_OP_constu 64, DW_OP_minus, DW_OP_stack_value] $r12
	@DEBUG_VALUE: __zero:this <- [DW_OP_plus_uconst 128, DW_OP_constu 64, DW_OP_minus, DW_OP_stack_value] $r12
	.loc	6 1976 7 is_stmt 0              @ Keil_v5\ARM\ARMCLANG\Bin\..\include\libcxx\string:1976:7
	ldrd	r0, r6, [r12, #76]
	ldr.w	r3, [r12, #84]
.Ltmp413:
	.loc	6 1564 26 is_stmt 1             @ Keil_v5\ARM\ARMCLANG\Bin\..\include\libcxx\string:1564:26
	strd	r8, r8, [r12, #64]
	str.w	r8, [r12, #72]
.Ltmp414:
	@DEBUG_VALUE: basic_string:__str <- [DW_OP_plus_uconst 128, DW_OP_constu 52, DW_OP_minus, DW_OP_stack_value] $r12
	@DEBUG_VALUE: basic_string:this <- [DW_OP_constu 52, DW_OP_minus, DW_OP_stack_value] undef
	@DEBUG_VALUE: __i <- [DW_OP_plus_uconst 1, DW_OP_stack_value] undef
	.loc	6 1976 7                        @ Keil_v5\ARM\ARMCLANG\Bin\..\include\libcxx\string:1976:7
	str.w	r3, [lr, #84]
	strd	r0, r6, [lr, #76]
.Ltmp415:
	@DEBUG_VALUE: __i <- 0
	@DEBUG_VALUE: __zero:__a <- [DW_OP_plus_uconst 128, DW_OP_constu 52, DW_OP_minus, DW_OP_stack_value] $r12
	@DEBUG_VALUE: __zero:this <- [DW_OP_plus_uconst 128, DW_OP_constu 52, DW_OP_minus, DW_OP_stack_value] $r12
	.loc	12 31 12                        @ ../../../../ThirdParty/ml-embedded-evaluation-kit/source/profiler/include\Profiler.hpp:31:12
	ldrd	r1, r10, [r12, #104]
	ldm.w	r11, {r0, r3, r6, r11}
.Ltmp416:
	.loc	6 1564 26                       @ Keil_v5\ARM\ARMCLANG\Bin\..\include\libcxx\string:1564:26
	strd	r8, r8, [r12, #76]
	str.w	r8, [r12, #84]
.Ltmp417:
	@DEBUG_VALUE: __i <- [DW_OP_plus_uconst 1, DW_OP_stack_value] undef
	.loc	12 31 12                        @ ../../../../ThirdParty/ml-embedded-evaluation-kit/source/profiler/include\Profiler.hpp:31:12
	strd	r1, r10, [lr, #104]
	add.w	r1, lr, #88
	stm.w	r1, {r0, r3, r6, r11}
	ldrd	r0, r3, [r12, #112]
	ldr.w	r1, [r12, #120]
	str.w	r0, [lr, #112]
	@DEBUG_VALUE: Statistics: <- [DW_OP_plus_uconst 128, DW_OP_constu 64, DW_OP_minus, DW_OP_stack_value] $r12
	@DEBUG_VALUE: construct<arm::app::Statistics, arm::app::Statistics>:__args <- [DW_OP_plus_uconst 128, DW_OP_constu 64, DW_OP_minus, DW_OP_stack_value] $r12
	@DEBUG_VALUE: construct<arm::app::Statistics, arm::app::Statistics, void>:__args <- [DW_OP_plus_uconst 128, DW_OP_constu 64, DW_OP_minus, DW_OP_stack_value] $r12
.Ltmp418:
	@DEBUG_VALUE: __emplace_back_slow_path<arm::app::Statistics &>:__v <- [DW_OP_constu 64, DW_OP_minus, DW_OP_stack_value, DW_OP_LLVM_fragment 32 32] undef
	strd	r3, r1, [lr, #116]
.Ltmp419:
	.loc	4 1044 5                        @ Keil_v5\ARM\ARMCLANG\Bin\..\include\libcxx\memory:1044:5
	ldr	r1, [sp, #56]                   @ 4-byte Reload
	cmp	r1, r2
	beq.w	.LBB5_49
.Ltmp420:
@ %bb.45:                               @   in Loop: Header=BB5_44 Depth=2
	@DEBUG_VALUE: __zero:this <- [DW_OP_plus_uconst 128, DW_OP_constu 52, DW_OP_minus, DW_OP_stack_value] $r12
	@DEBUG_VALUE: __zero:__a <- [DW_OP_plus_uconst 128, DW_OP_constu 52, DW_OP_minus, DW_OP_stack_value] $r12
	@DEBUG_VALUE: basic_string:__str <- [DW_OP_plus_uconst 128, DW_OP_constu 52, DW_OP_minus, DW_OP_stack_value] $r12
	@DEBUG_VALUE: __zero:this <- [DW_OP_plus_uconst 128, DW_OP_constu 64, DW_OP_minus, DW_OP_stack_value] $r12
	@DEBUG_VALUE: __zero:__a <- [DW_OP_plus_uconst 128, DW_OP_constu 64, DW_OP_minus, DW_OP_stack_value] $r12
	@DEBUG_VALUE: basic_string:__str <- [DW_OP_plus_uconst 128, DW_OP_constu 64, DW_OP_minus, DW_OP_stack_value] $r12
	@DEBUG_VALUE: Statistics: <- [DW_OP_plus_uconst 128, DW_OP_constu 64, DW_OP_minus, DW_OP_stack_value] $r12
	@DEBUG_VALUE: construct<arm::app::Statistics, arm::app::Statistics>:__args <- [DW_OP_plus_uconst 128, DW_OP_constu 64, DW_OP_minus, DW_OP_stack_value] $r12
	@DEBUG_VALUE: construct<arm::app::Statistics, arm::app::Statistics, void>:__args <- [DW_OP_plus_uconst 128, DW_OP_constu 64, DW_OP_minus, DW_OP_stack_value] $r12
	@DEBUG_VALUE: __construct_backward_with_exception_guarantees<std::allocator<arm::app::Statistics>, arm::app::Statistics *>:__end1 <- [DW_OP_plus_uconst 128, DW_OP_constu 64, DW_OP_minus, DW_OP_stack_value] $r12
	@DEBUG_VALUE: __emplace_back_slow_path<arm::app::Statistics &>:__args <- $r5
	@DEBUG_VALUE: emplace_back<arm::app::Statistics &>:__args <- $r5
	@DEBUG_VALUE: stat <- $r5
	@DEBUG_VALUE: __begin2 <- $r5
	@DEBUG_VALUE: __swap_out_circular_buffer:this <- [DW_OP_plus_uconst 12] [$sp+0]
	@DEBUG_VALUE: __emplace_back_slow_path<arm::app::Statistics &>:__v <- [DW_OP_plus_uconst 12, DW_OP_deref_size 4, DW_OP_plus_uconst 8, DW_OP_stack_value, DW_OP_LLVM_fragment 128 32] $sp
	@DEBUG_VALUE: __emplace_back_slow_path<arm::app::Statistics &>:__a <- [DW_OP_plus_uconst 12, DW_OP_deref_size 4, DW_OP_plus_uconst 8, DW_OP_stack_value] $sp
	@DEBUG_VALUE: __emplace_back_slow_path<arm::app::Statistics &>:this <- [DW_OP_plus_uconst 12] [$sp+0]
	@DEBUG_VALUE: emplace_back<arm::app::Statistics &>:this <- [DW_OP_plus_uconst 12] [$sp+0]
	@DEBUG_VALUE: UpdateRunningStats:name <- [DW_OP_plus_uconst 648] [$sp+0]
	@DEBUG_VALUE: __emplace_back_slow_path<arm::app::Statistics &>:__v <- [DW_OP_constu 64, DW_OP_minus, DW_OP_stack_value, DW_OP_LLVM_fragment 32 32] undef
	@DEBUG_VALUE: __construct_backward_with_exception_guarantees<std::allocator<arm::app::Statistics>, arm::app::Statistics *>:__end1 <- [DW_OP_plus_uconst 128, DW_OP_constu 128, DW_OP_minus, DW_OP_stack_value] $r12
	@DEBUG_VALUE: construct<arm::app::Statistics, arm::app::Statistics, void>:__a <- undef
	@DEBUG_VALUE: construct<arm::app::Statistics, arm::app::Statistics, void>:__p <- [DW_OP_constu 128, DW_OP_minus, DW_OP_stack_value] undef
	@DEBUG_VALUE: construct<arm::app::Statistics, arm::app::Statistics, void>:__args <- [DW_OP_plus_uconst 128, DW_OP_constu 128, DW_OP_minus, DW_OP_stack_value] $r12
	@DEBUG_VALUE: construct<arm::app::Statistics, arm::app::Statistics>:this <- undef
	@DEBUG_VALUE: construct<arm::app::Statistics, arm::app::Statistics>:__p <- [DW_OP_constu 128, DW_OP_minus, DW_OP_stack_value] undef
	@DEBUG_VALUE: construct<arm::app::Statistics, arm::app::Statistics>:__args <- [DW_OP_plus_uconst 128, DW_OP_constu 128, DW_OP_minus, DW_OP_stack_value] $r12
	@DEBUG_VALUE: Statistics:this <- [DW_OP_constu 128, DW_OP_minus, DW_OP_stack_value] undef
	@DEBUG_VALUE: Statistics: <- [DW_OP_plus_uconst 128, DW_OP_constu 128, DW_OP_minus, DW_OP_stack_value] $r12
	@DEBUG_VALUE: basic_string:this <- [DW_OP_constu 128, DW_OP_minus, DW_OP_stack_value] undef
	@DEBUG_VALUE: basic_string:__str <- [DW_OP_plus_uconst 128, DW_OP_constu 128, DW_OP_minus, DW_OP_stack_value] $r12
	.loc	6 1976 7                        @ Keil_v5\ARM\ARMCLANG\Bin\..\include\libcxx\string:1976:7
	ldrd	r0, r3, [r12]
.Ltmp421:
	.loc	12 31 12                        @ ../../../../ThirdParty/ml-embedded-evaluation-kit/source/profiler/include\Profiler.hpp:31:12
	add.w	r6, r12, #24
.Ltmp422:
	.loc	6 1976 7                        @ Keil_v5\ARM\ARMCLANG\Bin\..\include\libcxx\string:1976:7
	ldr.w	r1, [r12, #8]
	str.w	r1, [lr, #8]
	strd	r0, r3, [lr]
.Ltmp423:
	@DEBUG_VALUE: __i <- 0
	@DEBUG_VALUE: __zero:__a <- [DW_OP_plus_uconst 128, DW_OP_constu 128, DW_OP_minus, DW_OP_stack_value] $r12
	@DEBUG_VALUE: __zero:this <- [DW_OP_plus_uconst 128, DW_OP_constu 128, DW_OP_minus, DW_OP_stack_value] $r12
	.loc	6 1976 7 is_stmt 0              @ Keil_v5\ARM\ARMCLANG\Bin\..\include\libcxx\string:1976:7
	ldrd	r0, r3, [r12, #12]
	ldr.w	r1, [r12, #20]
.Ltmp424:
	.loc	6 1564 26 is_stmt 1             @ Keil_v5\ARM\ARMCLANG\Bin\..\include\libcxx\string:1564:26
	strd	r8, r8, [r12]
	str.w	r8, [r12, #8]
.Ltmp425:
	@DEBUG_VALUE: basic_string:__str <- [DW_OP_plus_uconst 128, DW_OP_constu 116, DW_OP_minus, DW_OP_stack_value] $r12
	@DEBUG_VALUE: basic_string:this <- [DW_OP_constu 116, DW_OP_minus, DW_OP_stack_value] undef
	@DEBUG_VALUE: __i <- [DW_OP_plus_uconst 1, DW_OP_stack_value] undef
	.loc	6 1976 7                        @ Keil_v5\ARM\ARMCLANG\Bin\..\include\libcxx\string:1976:7
	str.w	r1, [lr, #20]
	strd	r0, r3, [lr, #12]
.Ltmp426:
	@DEBUG_VALUE: __i <- 0
	@DEBUG_VALUE: __zero:__a <- [DW_OP_plus_uconst 128, DW_OP_constu 116, DW_OP_minus, DW_OP_stack_value] $r12
	@DEBUG_VALUE: __zero:this <- [DW_OP_plus_uconst 128, DW_OP_constu 116, DW_OP_minus, DW_OP_stack_value] $r12
	.loc	12 31 12                        @ ../../../../ThirdParty/ml-embedded-evaluation-kit/source/profiler/include\Profiler.hpp:31:12
	ldrd	r4, r7, [r12, #40]
	ldm	r6, {r0, r1, r3, r6}
.Ltmp427:
	.loc	6 1564 26                       @ Keil_v5\ARM\ARMCLANG\Bin\..\include\libcxx\string:1564:26
	strd	r8, r8, [r12, #12]
	str.w	r8, [r12, #20]
.Ltmp428:
	@DEBUG_VALUE: __i <- [DW_OP_plus_uconst 1, DW_OP_stack_value] undef
	.loc	12 31 12                        @ ../../../../ThirdParty/ml-embedded-evaluation-kit/source/profiler/include\Profiler.hpp:31:12
	strd	r4, r7, [lr, #40]
	add.w	r4, lr, #24
	stm	r4!, {r0, r1, r3, r6}
	ldrd	r0, r3, [r12, #48]
	ldr.w	r1, [r12, #56]
	str.w	r0, [lr, #48]
	@DEBUG_VALUE: Statistics: <- [DW_OP_plus_uconst 128, DW_OP_constu 128, DW_OP_minus, DW_OP_stack_value] $r12
	@DEBUG_VALUE: construct<arm::app::Statistics, arm::app::Statistics>:__args <- [DW_OP_plus_uconst 128, DW_OP_constu 128, DW_OP_minus, DW_OP_stack_value] $r12
	@DEBUG_VALUE: construct<arm::app::Statistics, arm::app::Statistics, void>:__args <- [DW_OP_plus_uconst 128, DW_OP_constu 128, DW_OP_minus, DW_OP_stack_value] $r12
.Ltmp429:
	@DEBUG_VALUE: __emplace_back_slow_path<arm::app::Statistics &>:__v <- [DW_OP_constu 128, DW_OP_minus, DW_OP_stack_value, DW_OP_LLVM_fragment 32 32] undef
	strd	r3, r1, [lr, #52]
.Ltmp430:
	.loc	4 1044 5                        @ Keil_v5\ARM\ARMCLANG\Bin\..\include\libcxx\memory:1044:5
	ldr	r1, [sp, #52]                   @ 4-byte Reload
	cmp	r1, r2
	beq	.LBB5_50
.Ltmp431:
@ %bb.46:                               @   in Loop: Header=BB5_44 Depth=2
	@DEBUG_VALUE: __zero:this <- [DW_OP_plus_uconst 128, DW_OP_constu 116, DW_OP_minus, DW_OP_stack_value] $r12
	@DEBUG_VALUE: __zero:__a <- [DW_OP_plus_uconst 128, DW_OP_constu 116, DW_OP_minus, DW_OP_stack_value] $r12
	@DEBUG_VALUE: basic_string:__str <- [DW_OP_plus_uconst 128, DW_OP_constu 116, DW_OP_minus, DW_OP_stack_value] $r12
	@DEBUG_VALUE: __zero:this <- [DW_OP_plus_uconst 128, DW_OP_constu 128, DW_OP_minus, DW_OP_stack_value] $r12
	@DEBUG_VALUE: __zero:__a <- [DW_OP_plus_uconst 128, DW_OP_constu 128, DW_OP_minus, DW_OP_stack_value] $r12
	@DEBUG_VALUE: basic_string:__str <- [DW_OP_plus_uconst 128, DW_OP_constu 128, DW_OP_minus, DW_OP_stack_value] $r12
	@DEBUG_VALUE: Statistics: <- [DW_OP_plus_uconst 128, DW_OP_constu 128, DW_OP_minus, DW_OP_stack_value] $r12
	@DEBUG_VALUE: construct<arm::app::Statistics, arm::app::Statistics>:__args <- [DW_OP_plus_uconst 128, DW_OP_constu 128, DW_OP_minus, DW_OP_stack_value] $r12
	@DEBUG_VALUE: construct<arm::app::Statistics, arm::app::Statistics, void>:__args <- [DW_OP_plus_uconst 128, DW_OP_constu 128, DW_OP_minus, DW_OP_stack_value] $r12
	@DEBUG_VALUE: __construct_backward_with_exception_guarantees<std::allocator<arm::app::Statistics>, arm::app::Statistics *>:__end1 <- [DW_OP_plus_uconst 128, DW_OP_constu 128, DW_OP_minus, DW_OP_stack_value] $r12
	@DEBUG_VALUE: __emplace_back_slow_path<arm::app::Statistics &>:__args <- $r5
	@DEBUG_VALUE: emplace_back<arm::app::Statistics &>:__args <- $r5
	@DEBUG_VALUE: stat <- $r5
	@DEBUG_VALUE: __begin2 <- $r5
	@DEBUG_VALUE: __swap_out_circular_buffer:this <- [DW_OP_plus_uconst 12] [$sp+0]
	@DEBUG_VALUE: __emplace_back_slow_path<arm::app::Statistics &>:__v <- [DW_OP_plus_uconst 12, DW_OP_deref_size 4, DW_OP_plus_uconst 8, DW_OP_stack_value, DW_OP_LLVM_fragment 128 32] $sp
	@DEBUG_VALUE: __emplace_back_slow_path<arm::app::Statistics &>:__a <- [DW_OP_plus_uconst 12, DW_OP_deref_size 4, DW_OP_plus_uconst 8, DW_OP_stack_value] $sp
	@DEBUG_VALUE: __emplace_back_slow_path<arm::app::Statistics &>:this <- [DW_OP_plus_uconst 12] [$sp+0]
	@DEBUG_VALUE: emplace_back<arm::app::Statistics &>:this <- [DW_OP_plus_uconst 12] [$sp+0]
	@DEBUG_VALUE: UpdateRunningStats:name <- [DW_OP_plus_uconst 648] [$sp+0]
	@DEBUG_VALUE: __emplace_back_slow_path<arm::app::Statistics &>:__v <- [DW_OP_constu 128, DW_OP_minus, DW_OP_stack_value, DW_OP_LLVM_fragment 32 32] undef
	@DEBUG_VALUE: __construct_backward_with_exception_guarantees<std::allocator<arm::app::Statistics>, arm::app::Statistics *>:__end1 <- [DW_OP_plus_uconst 128, DW_OP_constu 192, DW_OP_minus, DW_OP_stack_value] $r12
	@DEBUG_VALUE: construct<arm::app::Statistics, arm::app::Statistics, void>:__a <- undef
	@DEBUG_VALUE: construct<arm::app::Statistics, arm::app::Statistics, void>:__p <- [DW_OP_constu 192, DW_OP_minus, DW_OP_stack_value] undef
	@DEBUG_VALUE: construct<arm::app::Statistics, arm::app::Statistics, void>:__args <- [DW_OP_plus_uconst 128, DW_OP_constu 192, DW_OP_minus, DW_OP_stack_value] $r12
	@DEBUG_VALUE: construct<arm::app::Statistics, arm::app::Statistics>:this <- undef
	@DEBUG_VALUE: construct<arm::app::Statistics, arm::app::Statistics>:__p <- [DW_OP_constu 192, DW_OP_minus, DW_OP_stack_value] undef
	@DEBUG_VALUE: construct<arm::app::Statistics, arm::app::Statistics>:__args <- [DW_OP_plus_uconst 128, DW_OP_constu 192, DW_OP_minus, DW_OP_stack_value] $r12
	@DEBUG_VALUE: Statistics:this <- [DW_OP_constu 192, DW_OP_minus, DW_OP_stack_value] undef
	@DEBUG_VALUE: Statistics: <- [DW_OP_plus_uconst 128, DW_OP_constu 192, DW_OP_minus, DW_OP_stack_value] $r12
	@DEBUG_VALUE: basic_string:this <- [DW_OP_constu 192, DW_OP_minus, DW_OP_stack_value] undef
	@DEBUG_VALUE: basic_string:__str <- [DW_OP_plus_uconst 128, DW_OP_constu 192, DW_OP_minus, DW_OP_stack_value] $r12
	.loc	6 1976 7                        @ Keil_v5\ARM\ARMCLANG\Bin\..\include\libcxx\string:1976:7
	ldrd	r0, r3, [r12, #-64]
.Ltmp432:
	.loc	12 31 12                        @ ../../../../ThirdParty/ml-embedded-evaluation-kit/source/profiler/include\Profiler.hpp:31:12
	sub.w	r7, r12, #40
.Ltmp433:
	.loc	6 1976 7                        @ Keil_v5\ARM\ARMCLANG\Bin\..\include\libcxx\string:1976:7
	ldr	r1, [r12, #-56]
	str	r1, [lr, #-56]
	strd	r0, r3, [lr, #-64]
.Ltmp434:
	@DEBUG_VALUE: __i <- 0
	@DEBUG_VALUE: __zero:__a <- [DW_OP_plus_uconst 128, DW_OP_constu 192, DW_OP_minus, DW_OP_stack_value] $r12
	@DEBUG_VALUE: __zero:this <- [DW_OP_plus_uconst 128, DW_OP_constu 192, DW_OP_minus, DW_OP_stack_value] $r12
	.loc	6 1976 7 is_stmt 0              @ Keil_v5\ARM\ARMCLANG\Bin\..\include\libcxx\string:1976:7
	ldrd	r0, r3, [r12, #-52]
	ldr	r1, [r12, #-44]
.Ltmp435:
	.loc	6 1564 26 is_stmt 1             @ Keil_v5\ARM\ARMCLANG\Bin\..\include\libcxx\string:1564:26
	strd	r8, r8, [r12, #-64]
	str	r8, [r12, #-56]
.Ltmp436:
	@DEBUG_VALUE: basic_string:__str <- [DW_OP_plus_uconst 128, DW_OP_constu 180, DW_OP_minus, DW_OP_stack_value] $r12
	@DEBUG_VALUE: basic_string:this <- [DW_OP_constu 180, DW_OP_minus, DW_OP_stack_value] undef
	@DEBUG_VALUE: __i <- [DW_OP_plus_uconst 1, DW_OP_stack_value] undef
	.loc	6 1976 7                        @ Keil_v5\ARM\ARMCLANG\Bin\..\include\libcxx\string:1976:7
	str	r1, [lr, #-44]
	strd	r0, r3, [lr, #-52]
.Ltmp437:
	@DEBUG_VALUE: __i <- 0
	@DEBUG_VALUE: __zero:__a <- [DW_OP_plus_uconst 128, DW_OP_constu 180, DW_OP_minus, DW_OP_stack_value] $r12
	@DEBUG_VALUE: __zero:this <- [DW_OP_plus_uconst 128, DW_OP_constu 180, DW_OP_minus, DW_OP_stack_value] $r12
	.loc	12 31 12                        @ ../../../../ThirdParty/ml-embedded-evaluation-kit/source/profiler/include\Profiler.hpp:31:12
	ldr	r6, [r12, #-20]
	ldm	r7, {r0, r1, r3, r4, r7}
.Ltmp438:
	.loc	6 1564 26                       @ Keil_v5\ARM\ARMCLANG\Bin\..\include\libcxx\string:1564:26
	strd	r8, r8, [r12, #-52]
	str	r8, [r12, #-44]
.Ltmp439:
	@DEBUG_VALUE: __i <- [DW_OP_plus_uconst 1, DW_OP_stack_value] undef
	.loc	12 31 12                        @ ../../../../ThirdParty/ml-embedded-evaluation-kit/source/profiler/include\Profiler.hpp:31:12
	str	r6, [lr, #-20]
	sub.w	r6, lr, #40
	stm	r6!, {r0, r1, r3, r4, r7}
	ldrd	r0, r3, [r12, #-16]
	ldr	r1, [r12, #-8]
	str	r0, [lr, #-16]
	@DEBUG_VALUE: Statistics: <- [DW_OP_plus_uconst 128, DW_OP_constu 192, DW_OP_minus, DW_OP_stack_value] $r12
	@DEBUG_VALUE: construct<arm::app::Statistics, arm::app::Statistics>:__args <- [DW_OP_plus_uconst 128, DW_OP_constu 192, DW_OP_minus, DW_OP_stack_value] $r12
	@DEBUG_VALUE: construct<arm::app::Statistics, arm::app::Statistics, void>:__args <- [DW_OP_plus_uconst 128, DW_OP_constu 192, DW_OP_minus, DW_OP_stack_value] $r12
.Ltmp440:
	@DEBUG_VALUE: __emplace_back_slow_path<arm::app::Statistics &>:__v <- [DW_OP_constu 192, DW_OP_minus, DW_OP_stack_value, DW_OP_LLVM_fragment 32 32] undef
	strd	r3, r1, [lr, #-12]
.Ltmp441:
	.loc	4 1044 5                        @ Keil_v5\ARM\ARMCLANG\Bin\..\include\libcxx\memory:1044:5
	ldr	r1, [sp, #48]                   @ 4-byte Reload
	cmp	r1, r2
	beq	.LBB5_51
.Ltmp442:
@ %bb.47:                               @   in Loop: Header=BB5_44 Depth=2
	@DEBUG_VALUE: __zero:this <- [DW_OP_plus_uconst 128, DW_OP_constu 180, DW_OP_minus, DW_OP_stack_value] $r12
	@DEBUG_VALUE: __zero:__a <- [DW_OP_plus_uconst 128, DW_OP_constu 180, DW_OP_minus, DW_OP_stack_value] $r12
	@DEBUG_VALUE: basic_string:__str <- [DW_OP_plus_uconst 128, DW_OP_constu 180, DW_OP_minus, DW_OP_stack_value] $r12
	@DEBUG_VALUE: __zero:this <- [DW_OP_plus_uconst 128, DW_OP_constu 192, DW_OP_minus, DW_OP_stack_value] $r12
	@DEBUG_VALUE: __zero:__a <- [DW_OP_plus_uconst 128, DW_OP_constu 192, DW_OP_minus, DW_OP_stack_value] $r12
	@DEBUG_VALUE: basic_string:__str <- [DW_OP_plus_uconst 128, DW_OP_constu 192, DW_OP_minus, DW_OP_stack_value] $r12
	@DEBUG_VALUE: Statistics: <- [DW_OP_plus_uconst 128, DW_OP_constu 192, DW_OP_minus, DW_OP_stack_value] $r12
	@DEBUG_VALUE: construct<arm::app::Statistics, arm::app::Statistics>:__args <- [DW_OP_plus_uconst 128, DW_OP_constu 192, DW_OP_minus, DW_OP_stack_value] $r12
	@DEBUG_VALUE: construct<arm::app::Statistics, arm::app::Statistics, void>:__args <- [DW_OP_plus_uconst 128, DW_OP_constu 192, DW_OP_minus, DW_OP_stack_value] $r12
	@DEBUG_VALUE: __construct_backward_with_exception_guarantees<std::allocator<arm::app::Statistics>, arm::app::Statistics *>:__end1 <- [DW_OP_plus_uconst 128, DW_OP_constu 192, DW_OP_minus, DW_OP_stack_value] $r12
	@DEBUG_VALUE: __emplace_back_slow_path<arm::app::Statistics &>:__args <- $r5
	@DEBUG_VALUE: emplace_back<arm::app::Statistics &>:__args <- $r5
	@DEBUG_VALUE: stat <- $r5
	@DEBUG_VALUE: __begin2 <- $r5
	@DEBUG_VALUE: __swap_out_circular_buffer:this <- [DW_OP_plus_uconst 12] [$sp+0]
	@DEBUG_VALUE: __emplace_back_slow_path<arm::app::Statistics &>:__v <- [DW_OP_plus_uconst 12, DW_OP_deref_size 4, DW_OP_plus_uconst 8, DW_OP_stack_value, DW_OP_LLVM_fragment 128 32] $sp
	@DEBUG_VALUE: __emplace_back_slow_path<arm::app::Statistics &>:__a <- [DW_OP_plus_uconst 12, DW_OP_deref_size 4, DW_OP_plus_uconst 8, DW_OP_stack_value] $sp
	@DEBUG_VALUE: __emplace_back_slow_path<arm::app::Statistics &>:this <- [DW_OP_plus_uconst 12] [$sp+0]
	@DEBUG_VALUE: emplace_back<arm::app::Statistics &>:this <- [DW_OP_plus_uconst 12] [$sp+0]
	@DEBUG_VALUE: UpdateRunningStats:name <- [DW_OP_plus_uconst 648] [$sp+0]
	@DEBUG_VALUE: __emplace_back_slow_path<arm::app::Statistics &>:__v <- [DW_OP_constu 192, DW_OP_minus, DW_OP_stack_value, DW_OP_LLVM_fragment 32 32] undef
	@DEBUG_VALUE: __construct_backward_with_exception_guarantees<std::allocator<arm::app::Statistics>, arm::app::Statistics *>:__end1 <- [DW_OP_constu 128, DW_OP_minus, DW_OP_stack_value] $r12
	@DEBUG_VALUE: construct<arm::app::Statistics, arm::app::Statistics, void>:__a <- undef
	@DEBUG_VALUE: construct<arm::app::Statistics, arm::app::Statistics, void>:__p <- [DW_OP_constu 256, DW_OP_minus, DW_OP_stack_value] undef
	@DEBUG_VALUE: construct<arm::app::Statistics, arm::app::Statistics, void>:__args <- [DW_OP_constu 128, DW_OP_minus, DW_OP_stack_value] $r12
	@DEBUG_VALUE: construct<arm::app::Statistics, arm::app::Statistics>:this <- undef
	@DEBUG_VALUE: construct<arm::app::Statistics, arm::app::Statistics>:__p <- [DW_OP_constu 256, DW_OP_minus, DW_OP_stack_value] undef
	@DEBUG_VALUE: construct<arm::app::Statistics, arm::app::Statistics>:__args <- [DW_OP_constu 128, DW_OP_minus, DW_OP_stack_value] $r12
	@DEBUG_VALUE: Statistics:this <- [DW_OP_constu 256, DW_OP_minus, DW_OP_stack_value] undef
	@DEBUG_VALUE: Statistics: <- [DW_OP_constu 128, DW_OP_minus, DW_OP_stack_value] $r12
	@DEBUG_VALUE: basic_string:this <- [DW_OP_constu 256, DW_OP_minus, DW_OP_stack_value] undef
	@DEBUG_VALUE: basic_string:__str <- [DW_OP_constu 128, DW_OP_minus, DW_OP_stack_value] $r12
	.loc	6 1976 7                        @ Keil_v5\ARM\ARMCLANG\Bin\..\include\libcxx\string:1976:7
	ldrd	r0, r3, [r12, #-128]
.Ltmp443:
	.loc	12 31 12                        @ ../../../../ThirdParty/ml-embedded-evaluation-kit/source/profiler/include\Profiler.hpp:31:12
	sub.w	r7, r12, #104
.Ltmp444:
	.loc	6 1976 7                        @ Keil_v5\ARM\ARMCLANG\Bin\..\include\libcxx\string:1976:7
	ldr	r1, [r12, #-120]
.Ltmp445:
	.loc	4 1044 19                       @ Keil_v5\ARM\ARMCLANG\Bin\..\include\libcxx\memory:1044:19
	sub.w	r2, r2, #256
.Ltmp446:
	.loc	6 1976 7                        @ Keil_v5\ARM\ARMCLANG\Bin\..\include\libcxx\string:1976:7
	str	r1, [lr, #-120]
	strd	r0, r3, [lr, #-128]
.Ltmp447:
	@DEBUG_VALUE: __i <- 0
	@DEBUG_VALUE: __zero:__a <- [DW_OP_constu 128, DW_OP_minus, DW_OP_stack_value] $r12
	@DEBUG_VALUE: __zero:this <- [DW_OP_constu 128, DW_OP_minus, DW_OP_stack_value] $r12
	.loc	6 1976 7 is_stmt 0              @ Keil_v5\ARM\ARMCLANG\Bin\..\include\libcxx\string:1976:7
	ldrd	r0, r3, [r12, #-116]
	ldr	r1, [r12, #-108]
.Ltmp448:
	.loc	6 1564 26 is_stmt 1             @ Keil_v5\ARM\ARMCLANG\Bin\..\include\libcxx\string:1564:26
	strd	r8, r8, [r12, #-128]
	str	r8, [r12, #-120]
.Ltmp449:
	@DEBUG_VALUE: basic_string:__str <- [DW_OP_plus_uconst 128, DW_OP_constu 244, DW_OP_minus, DW_OP_stack_value] $r12
	@DEBUG_VALUE: basic_string:this <- [DW_OP_constu 244, DW_OP_minus, DW_OP_stack_value] undef
	@DEBUG_VALUE: __i <- [DW_OP_plus_uconst 1, DW_OP_stack_value] undef
	.loc	6 1976 7                        @ Keil_v5\ARM\ARMCLANG\Bin\..\include\libcxx\string:1976:7
	str	r1, [lr, #-108]
	strd	r0, r3, [lr, #-116]
.Ltmp450:
	@DEBUG_VALUE: __i <- 0
	@DEBUG_VALUE: __zero:__a <- [DW_OP_plus_uconst 128, DW_OP_constu 244, DW_OP_minus, DW_OP_stack_value] $r12
	@DEBUG_VALUE: __zero:this <- [DW_OP_plus_uconst 128, DW_OP_constu 244, DW_OP_minus, DW_OP_stack_value] $r12
	.loc	12 31 12                        @ ../../../../ThirdParty/ml-embedded-evaluation-kit/source/profiler/include\Profiler.hpp:31:12
	ldr	r6, [r12, #-84]
	ldm	r7, {r0, r1, r3, r4, r7}
.Ltmp451:
	.loc	6 1564 26                       @ Keil_v5\ARM\ARMCLANG\Bin\..\include\libcxx\string:1564:26
	strd	r8, r8, [r12, #-116]
	str	r8, [r12, #-108]
.Ltmp452:
	@DEBUG_VALUE: __i <- [DW_OP_plus_uconst 1, DW_OP_stack_value] undef
	.loc	12 31 12                        @ ../../../../ThirdParty/ml-embedded-evaluation-kit/source/profiler/include\Profiler.hpp:31:12
	str	r6, [lr, #-84]
	sub.w	r6, lr, #104
	stm	r6!, {r0, r1, r3, r4, r7}
	ldrd	r0, r3, [r12, #-80]
	ldr	r1, [r12, #-72]
.Ltmp453:
	.loc	4 1044 19                       @ Keil_v5\ARM\ARMCLANG\Bin\..\include\libcxx\memory:1044:19
	sub.w	r12, r12, #256
.Ltmp454:
	.loc	12 31 12                        @ ../../../../ThirdParty/ml-embedded-evaluation-kit/source/profiler/include\Profiler.hpp:31:12
	str	r1, [lr, #-72]
	strd	r0, r3, [lr, #-80]
.Ltmp455:
	@DEBUG_VALUE: __emplace_back_slow_path<arm::app::Statistics &>:__v <- [DW_OP_constu 256, DW_OP_minus, DW_OP_stack_value, DW_OP_LLVM_fragment 32 32] undef
	.loc	4 1044 5                        @ Keil_v5\ARM\ARMCLANG\Bin\..\include\libcxx\memory:1044:5
	ldr	r0, [sp, #44]                   @ 4-byte Reload
	.loc	4 1044 19 is_stmt 0             @ Keil_v5\ARM\ARMCLANG\Bin\..\include\libcxx\memory:1044:19
	sub.w	lr, lr, #256
	.loc	4 1044 5                        @ Keil_v5\ARM\ARMCLANG\Bin\..\include\libcxx\memory:1044:5
	cmp	r0, r2
	bne.w	.LBB5_44
.Ltmp456:
@ %bb.48:                               @   in Loop: Header=BB5_23 Depth=1
	@DEBUG_VALUE: __emplace_back_slow_path<arm::app::Statistics &>:__args <- $r5
	@DEBUG_VALUE: emplace_back<arm::app::Statistics &>:__args <- $r5
	@DEBUG_VALUE: stat <- $r5
	@DEBUG_VALUE: __begin2 <- $r5
	@DEBUG_VALUE: __swap_out_circular_buffer:this <- [DW_OP_plus_uconst 12] [$sp+0]
	@DEBUG_VALUE: __emplace_back_slow_path<arm::app::Statistics &>:__v <- [DW_OP_plus_uconst 12, DW_OP_deref_size 4, DW_OP_plus_uconst 8, DW_OP_stack_value, DW_OP_LLVM_fragment 128 32] $sp
	@DEBUG_VALUE: __emplace_back_slow_path<arm::app::Statistics &>:__a <- [DW_OP_plus_uconst 12, DW_OP_deref_size 4, DW_OP_plus_uconst 8, DW_OP_stack_value] $sp
	@DEBUG_VALUE: __emplace_back_slow_path<arm::app::Statistics &>:this <- [DW_OP_plus_uconst 12] [$sp+0]
	@DEBUG_VALUE: emplace_back<arm::app::Statistics &>:this <- [DW_OP_plus_uconst 12] [$sp+0]
	@DEBUG_VALUE: UpdateRunningStats:name <- [DW_OP_plus_uconst 648] [$sp+0]
	add.w	r0, r9, r2
	b	.LBB5_52
.Ltmp457:
.LBB5_49:                               @   in Loop: Header=BB5_23 Depth=1
	@DEBUG_VALUE: __construct_backward_with_exception_guarantees<std::allocator<arm::app::Statistics>, arm::app::Statistics *>:__end1 <- [DW_OP_plus_uconst 128, DW_OP_constu 64, DW_OP_minus, DW_OP_stack_value] $r12
	@DEBUG_VALUE: __emplace_back_slow_path<arm::app::Statistics &>:__args <- $r5
	@DEBUG_VALUE: emplace_back<arm::app::Statistics &>:__args <- $r5
	@DEBUG_VALUE: stat <- $r5
	@DEBUG_VALUE: __begin2 <- $r5
	@DEBUG_VALUE: __swap_out_circular_buffer:this <- [DW_OP_plus_uconst 12] [$sp+0]
	@DEBUG_VALUE: __emplace_back_slow_path<arm::app::Statistics &>:__v <- [DW_OP_plus_uconst 12, DW_OP_deref_size 4, DW_OP_plus_uconst 8, DW_OP_stack_value, DW_OP_LLVM_fragment 128 32] $sp
	@DEBUG_VALUE: __emplace_back_slow_path<arm::app::Statistics &>:__a <- [DW_OP_plus_uconst 12, DW_OP_deref_size 4, DW_OP_plus_uconst 8, DW_OP_stack_value] $sp
	@DEBUG_VALUE: __emplace_back_slow_path<arm::app::Statistics &>:this <- [DW_OP_plus_uconst 12] [$sp+0]
	@DEBUG_VALUE: emplace_back<arm::app::Statistics &>:this <- [DW_OP_plus_uconst 12] [$sp+0]
	@DEBUG_VALUE: UpdateRunningStats:name <- [DW_OP_plus_uconst 648] [$sp+0]
	.loc	4 0 5                           @ Keil_v5\ARM\ARMCLANG\Bin\..\include\libcxx\memory:0:5
	ldr	r1, [sp, #20]                   @ 4-byte Reload
	.loc	4 1044 5                        @ Keil_v5\ARM\ARMCLANG\Bin\..\include\libcxx\memory:1044:5
	movs	r0, #1
	ldr	r3, [sp, #24]                   @ 4-byte Reload
	cmp	r1, #1
	csel	r0, r1, r0, lt
	ldr	r1, [sp, #40]                   @ 4-byte Reload
	cmp	r3, r1
	csel	r1, r3, r1, gt
	lsrs	r1, r1, #6
	muls	r0, r1, r0
	ldr	r1, [sp, #28]                   @ 4-byte Reload
	add.w	r0, r1, r0, lsl #6
	add	r0, r2
	subs	r0, #64
	b	.LBB5_52
.Ltmp458:
.LBB5_50:                               @   in Loop: Header=BB5_23 Depth=1
	@DEBUG_VALUE: __emplace_back_slow_path<arm::app::Statistics &>:__args <- $r5
	@DEBUG_VALUE: emplace_back<arm::app::Statistics &>:__args <- $r5
	@DEBUG_VALUE: stat <- $r5
	@DEBUG_VALUE: __begin2 <- $r5
	@DEBUG_VALUE: __swap_out_circular_buffer:this <- [DW_OP_plus_uconst 12] [$sp+0]
	@DEBUG_VALUE: __emplace_back_slow_path<arm::app::Statistics &>:__v <- [DW_OP_plus_uconst 12, DW_OP_deref_size 4, DW_OP_plus_uconst 8, DW_OP_stack_value, DW_OP_LLVM_fragment 128 32] $sp
	@DEBUG_VALUE: __emplace_back_slow_path<arm::app::Statistics &>:__a <- [DW_OP_plus_uconst 12, DW_OP_deref_size 4, DW_OP_plus_uconst 8, DW_OP_stack_value] $sp
	@DEBUG_VALUE: __emplace_back_slow_path<arm::app::Statistics &>:this <- [DW_OP_plus_uconst 12] [$sp+0]
	@DEBUG_VALUE: emplace_back<arm::app::Statistics &>:this <- [DW_OP_plus_uconst 12] [$sp+0]
	@DEBUG_VALUE: UpdateRunningStats:name <- [DW_OP_plus_uconst 648] [$sp+0]
	.loc	4 0 5                           @ Keil_v5\ARM\ARMCLANG\Bin\..\include\libcxx\memory:0:5
	ldr	r1, [sp, #20]                   @ 4-byte Reload
.Ltmp459:
	.loc	9 3951 13 is_stmt 1             @ Keil_v5\ARM\ARMCLANG\Bin\..\include\libcxx\type_traits:3951:13
	movs	r0, #1
	ldr	r3, [sp, #24]                   @ 4-byte Reload
	cmp	r1, #1
	csel	r0, r1, r0, lt
	ldr	r1, [sp, #40]                   @ 4-byte Reload
	cmp	r3, r1
	csel	r1, r3, r1, gt
	lsrs	r1, r1, #6
	muls	r0, r1, r0
	ldr	r1, [sp, #28]                   @ 4-byte Reload
	add.w	r0, r1, r0, lsl #6
	add	r0, r2
	subs	r0, #128
	b	.LBB5_52
.Ltmp460:
.LBB5_51:                               @   in Loop: Header=BB5_23 Depth=1
	@DEBUG_VALUE: __construct_backward_with_exception_guarantees<std::allocator<arm::app::Statistics>, arm::app::Statistics *>:__end1 <- [DW_OP_plus_uconst 128, DW_OP_constu 192, DW_OP_minus, DW_OP_stack_value] $r12
	@DEBUG_VALUE: __emplace_back_slow_path<arm::app::Statistics &>:__args <- $r5
	@DEBUG_VALUE: emplace_back<arm::app::Statistics &>:__args <- $r5
	@DEBUG_VALUE: stat <- $r5
	@DEBUG_VALUE: __begin2 <- $r5
	@DEBUG_VALUE: __swap_out_circular_buffer:this <- [DW_OP_plus_uconst 12] [$sp+0]
	@DEBUG_VALUE: __emplace_back_slow_path<arm::app::Statistics &>:__v <- [DW_OP_plus_uconst 12, DW_OP_deref_size 4, DW_OP_plus_uconst 8, DW_OP_stack_value, DW_OP_LLVM_fragment 128 32] $sp
	@DEBUG_VALUE: __emplace_back_slow_path<arm::app::Statistics &>:__a <- [DW_OP_plus_uconst 12, DW_OP_deref_size 4, DW_OP_plus_uconst 8, DW_OP_stack_value] $sp
	@DEBUG_VALUE: __emplace_back_slow_path<arm::app::Statistics &>:this <- [DW_OP_plus_uconst 12] [$sp+0]
	@DEBUG_VALUE: emplace_back<arm::app::Statistics &>:this <- [DW_OP_plus_uconst 12] [$sp+0]
	@DEBUG_VALUE: UpdateRunningStats:name <- [DW_OP_plus_uconst 648] [$sp+0]
	.loc	9 0 13 is_stmt 0                @ Keil_v5\ARM\ARMCLANG\Bin\..\include\libcxx\type_traits:0:13
	ldr	r1, [sp, #20]                   @ 4-byte Reload
.Ltmp461:
	.loc	4 1044 5 is_stmt 1              @ Keil_v5\ARM\ARMCLANG\Bin\..\include\libcxx\memory:1044:5
	movs	r0, #1
	ldr	r3, [sp, #24]                   @ 4-byte Reload
	cmp	r1, #1
	csel	r0, r1, r0, lt
	ldr	r1, [sp, #40]                   @ 4-byte Reload
	cmp	r3, r1
	csel	r1, r3, r1, gt
	lsrs	r1, r1, #6
	muls	r0, r1, r0
	ldr	r1, [sp, #28]                   @ 4-byte Reload
	add.w	r0, r1, r0, lsl #6
	add	r0, r2
	subs	r0, #192
.Ltmp462:
.LBB5_52:                               @   in Loop: Header=BB5_23 Depth=1
	@DEBUG_VALUE: __emplace_back_slow_path<arm::app::Statistics &>:__args <- $r5
	@DEBUG_VALUE: emplace_back<arm::app::Statistics &>:__args <- $r5
	@DEBUG_VALUE: stat <- $r5
	@DEBUG_VALUE: __begin2 <- $r5
	@DEBUG_VALUE: __swap_out_circular_buffer:this <- [DW_OP_plus_uconst 12] [$sp+0]
	@DEBUG_VALUE: __emplace_back_slow_path<arm::app::Statistics &>:__v <- [DW_OP_plus_uconst 12, DW_OP_deref_size 4, DW_OP_plus_uconst 8, DW_OP_stack_value, DW_OP_LLVM_fragment 128 32] $sp
	@DEBUG_VALUE: __emplace_back_slow_path<arm::app::Statistics &>:__a <- [DW_OP_plus_uconst 12, DW_OP_deref_size 4, DW_OP_plus_uconst 8, DW_OP_stack_value] $sp
	@DEBUG_VALUE: __emplace_back_slow_path<arm::app::Statistics &>:this <- [DW_OP_plus_uconst 12] [$sp+0]
	@DEBUG_VALUE: emplace_back<arm::app::Statistics &>:this <- [DW_OP_plus_uconst 12] [$sp+0]
	@DEBUG_VALUE: UpdateRunningStats:name <- [DW_OP_plus_uconst 648] [$sp+0]
	@DEBUG_VALUE: swap<arm::app::Statistics *>:__t <- $r4
	@DEBUG_VALUE: deallocate:__p <- $r4
	@DEBUG_VALUE: deallocate:__p <- $r4
	@DEBUG_VALUE: __emplace_back_slow_path<arm::app::Statistics &>:__v <- [DW_OP_LLVM_fragment 32 32] $r4
	@DEBUG_VALUE: __emplace_back_slow_path<arm::app::Statistics &>:__v <- [DW_OP_LLVM_fragment 0 32] $r4
	.loc	9 3951 13                       @ Keil_v5\ARM\ARMCLANG\Bin\..\include\libcxx\type_traits:3951:13
	ldrd	r4, r6, [sp, #76]
.Ltmp463:
	@DEBUG_VALUE: swap<arm::app::Statistics *>:__t <- $r6
	@DEBUG_VALUE: swap<arm::app::Statistics *>:__y <- undef
	@DEBUG_VALUE: swap<arm::app::Statistics *>:__x <- [DW_OP_plus_uconst 12] [$sp+0]
	@DEBUG_VALUE: __emplace_back_slow_path<arm::app::Statistics &>:__v <- [DW_OP_LLVM_fragment 64 32] $r6
	.loc	9 3952 9                        @ Keil_v5\ARM\ARMCLANG\Bin\..\include\libcxx\type_traits:3952:9
	str	r0, [sp, #76]
.Ltmp464:
	@DEBUG_VALUE: swap<arm::app::Statistics *>:__t <- $r4
	@DEBUG_VALUE: swap<arm::app::Statistics *>:__y <- undef
	@DEBUG_VALUE: swap<arm::app::Statistics *>:__x <- [DW_OP_plus_uconst 20, DW_OP_stack_value] undef
	.loc	9 3952 9 is_stmt 0              @ Keil_v5\ARM\ARMCLANG\Bin\..\include\libcxx\type_traits:3952:9
	ldr	r0, [sp, #32]                   @ 4-byte Reload
	ldr.w	r9, [sp, #16]                   @ 4-byte Reload
.Ltmp465:
	@DEBUG_VALUE: __destruct_at_end:__new_last <- $r4
	@DEBUG_VALUE: __destruct_at_end:__new_last <- $r4
	str	r0, [sp, #80]
.Ltmp466:
	@DEBUG_VALUE: swap<arm::app::Statistics *>:__t <- $r6
	@DEBUG_VALUE: __destruct_at_end:__new_last <- $r4
	@DEBUG_VALUE: __destruct_at_end:__new_last <- $r4
	@DEBUG_VALUE: swap<arm::app::Statistics *>:__t <- undef
	@DEBUG_VALUE: swap<arm::app::Statistics *>:__y <- undef
	.loc	9 3952 9                        @ Keil_v5\ARM\ARMCLANG\Bin\..\include\libcxx\type_traits:3952:9
	ldr	r0, [sp, #36]                   @ 4-byte Reload
.Ltmp467:
	@DEBUG_VALUE: swap<arm::app::Statistics *>:__x <- [DW_OP_plus_uconst 60, DW_OP_plus_uconst 24, DW_OP_stack_value] $sp
	.loc	17 298 5 is_stmt 1              @ Keil_v5\ARM\ARMCLANG\Bin\..\include\libcxx\__split_buffer:298:5
	cmp	r6, r4
.Ltmp468:
	.loc	9 3952 9                        @ Keil_v5\ARM\ARMCLANG\Bin\..\include\libcxx\type_traits:3952:9
	str	r0, [sp, #84]
.Ltmp469:
	@DEBUG_VALUE: __destruct_at_end:this <- undef
	@DEBUG_VALUE: __destruct_at_end:this <- undef
	@DEBUG_VALUE: clear:this <- undef
	@DEBUG_VALUE: ~__split_buffer:this <- undef
	@DEBUG_VALUE: __emplace_back_slow_path<arm::app::Statistics &>:__v <- [DW_OP_LLVM_fragment 96 32] undef
	.loc	17 298 5                        @ Keil_v5\ARM\ARMCLANG\Bin\..\include\libcxx\__split_buffer:298:5
	bne	.LBB5_54
	b	.LBB5_21
.Ltmp470:
	.p2align	2
.LBB5_53:                               @   in Loop: Header=BB5_54 Depth=2
	@DEBUG_VALUE: __emplace_back_slow_path<arm::app::Statistics &>:__args <- $r5
	@DEBUG_VALUE: emplace_back<arm::app::Statistics &>:__args <- $r5
	@DEBUG_VALUE: stat <- $r5
	@DEBUG_VALUE: __begin2 <- $r5
	@DEBUG_VALUE: __destruct_at_end:__new_last <- $r4
	@DEBUG_VALUE: __destruct_at_end:__new_last <- $r4
	@DEBUG_VALUE: __emplace_back_slow_path<arm::app::Statistics &>:__v <- [DW_OP_plus_uconst 12, DW_OP_deref_size 4, DW_OP_plus_uconst 8, DW_OP_stack_value, DW_OP_LLVM_fragment 128 32] $sp
	@DEBUG_VALUE: __emplace_back_slow_path<arm::app::Statistics &>:__a <- [DW_OP_plus_uconst 12, DW_OP_deref_size 4, DW_OP_plus_uconst 8, DW_OP_stack_value] $sp
	@DEBUG_VALUE: __emplace_back_slow_path<arm::app::Statistics &>:this <- [DW_OP_plus_uconst 12] [$sp+0]
	@DEBUG_VALUE: emplace_back<arm::app::Statistics &>:this <- [DW_OP_plus_uconst 12] [$sp+0]
	@DEBUG_VALUE: UpdateRunningStats:name <- [DW_OP_plus_uconst 648] [$sp+0]
	.loc	17 0 0 is_stmt 0                @ Keil_v5\ARM\ARMCLANG\Bin\..\include\libcxx\__split_buffer:0:0
	subs	r6, #64
	@DEBUG_VALUE: __is_long:this <- $r6
	@DEBUG_VALUE: ~basic_string:this <- $r6
	@DEBUG_VALUE: ~Statistics:this <- $r6
	@DEBUG_VALUE: destroy:__p <- $r6
	@DEBUG_VALUE: destroy<arm::app::Statistics, void>:__p <- $r6
.Ltmp471:
	@DEBUG_VALUE: __emplace_back_slow_path<arm::app::Statistics &>:__v <- [DW_OP_LLVM_fragment 64 32] $r6
	.loc	17 298 5                        @ Keil_v5\ARM\ARMCLANG\Bin\..\include\libcxx\__split_buffer:298:5
	cmp	r4, r6
	beq.w	.LBB5_21
.Ltmp472:
.LBB5_54:                               @   Parent Loop BB5_23 Depth=1
                                        @ =>  This Inner Loop Header: Depth=2
	@DEBUG_VALUE: __emplace_back_slow_path<arm::app::Statistics &>:__v <- [DW_OP_LLVM_fragment 64 32] $r6
	@DEBUG_VALUE: __emplace_back_slow_path<arm::app::Statistics &>:__args <- $r5
	@DEBUG_VALUE: emplace_back<arm::app::Statistics &>:__args <- $r5
	@DEBUG_VALUE: stat <- $r5
	@DEBUG_VALUE: __begin2 <- $r5
	@DEBUG_VALUE: __destruct_at_end:__new_last <- $r4
	@DEBUG_VALUE: __destruct_at_end:__new_last <- $r4
	@DEBUG_VALUE: __emplace_back_slow_path<arm::app::Statistics &>:__v <- [DW_OP_plus_uconst 12, DW_OP_deref_size 4, DW_OP_plus_uconst 8, DW_OP_stack_value, DW_OP_LLVM_fragment 128 32] $sp
	@DEBUG_VALUE: __emplace_back_slow_path<arm::app::Statistics &>:__a <- [DW_OP_plus_uconst 12, DW_OP_deref_size 4, DW_OP_plus_uconst 8, DW_OP_stack_value] $sp
	@DEBUG_VALUE: __emplace_back_slow_path<arm::app::Statistics &>:this <- [DW_OP_plus_uconst 12] [$sp+0]
	@DEBUG_VALUE: emplace_back<arm::app::Statistics &>:this <- [DW_OP_plus_uconst 12] [$sp+0]
	@DEBUG_VALUE: UpdateRunningStats:name <- [DW_OP_plus_uconst 648] [$sp+0]
	@DEBUG_VALUE: __emplace_back_slow_path<arm::app::Statistics &>:__v <- [DW_OP_LLVM_fragment 64 32] undef
	@DEBUG_VALUE: destroy<arm::app::Statistics, void>:__a <- undef
	@DEBUG_VALUE: destroy<arm::app::Statistics, void>:__p <- undef
	@DEBUG_VALUE: destroy:this <- undef
	@DEBUG_VALUE: destroy:__p <- undef
	@DEBUG_VALUE: ~Statistics:this <- undef
	@DEBUG_VALUE: ~basic_string:this <- [DW_OP_constu 52, DW_OP_minus, DW_OP_stack_value] $r6
	@DEBUG_VALUE: __is_long:this <- [DW_OP_constu 52, DW_OP_minus, DW_OP_stack_value] $r6
	.loc	6 1463 39 is_stmt 1             @ Keil_v5\ARM\ARMCLANG\Bin\..\include\libcxx\string:1463:39
	ldrsb	r0, [r6, #-41]
.Ltmp473:
	.loc	6 2237 9                        @ Keil_v5\ARM\ARMCLANG\Bin\..\include\libcxx\string:2237:9
	cmp.w	r0, #-1
	bgt	.LBB5_56
.Ltmp474:
@ %bb.55:                               @   in Loop: Header=BB5_54 Depth=2
	@DEBUG_VALUE: ~basic_string:this <- [DW_OP_constu 52, DW_OP_minus, DW_OP_stack_value] $r6
	@DEBUG_VALUE: __emplace_back_slow_path<arm::app::Statistics &>:__args <- $r5
	@DEBUG_VALUE: emplace_back<arm::app::Statistics &>:__args <- $r5
	@DEBUG_VALUE: stat <- $r5
	@DEBUG_VALUE: __begin2 <- $r5
	@DEBUG_VALUE: __destruct_at_end:__new_last <- $r4
	@DEBUG_VALUE: __destruct_at_end:__new_last <- $r4
	@DEBUG_VALUE: __emplace_back_slow_path<arm::app::Statistics &>:__v <- [DW_OP_plus_uconst 12, DW_OP_deref_size 4, DW_OP_plus_uconst 8, DW_OP_stack_value, DW_OP_LLVM_fragment 128 32] $sp
	@DEBUG_VALUE: __emplace_back_slow_path<arm::app::Statistics &>:__a <- [DW_OP_plus_uconst 12, DW_OP_deref_size 4, DW_OP_plus_uconst 8, DW_OP_stack_value] $sp
	@DEBUG_VALUE: __emplace_back_slow_path<arm::app::Statistics &>:this <- [DW_OP_plus_uconst 12] [$sp+0]
	@DEBUG_VALUE: emplace_back<arm::app::Statistics &>:this <- [DW_OP_plus_uconst 12] [$sp+0]
	@DEBUG_VALUE: UpdateRunningStats:name <- [DW_OP_plus_uconst 648] [$sp+0]
	@DEBUG_VALUE: __get_long_pointer:this <- [DW_OP_constu 52, DW_OP_minus, DW_OP_stack_value] $r6
	.loc	6 1542 34                       @ Keil_v5\ARM\ARMCLANG\Bin\..\include\libcxx\string:1542:34
	ldr	r0, [r6, #-52]
.Ltmp475:
	@DEBUG_VALUE: __do_deallocate_handle_size<>:__size <- undef
	@DEBUG_VALUE: __libcpp_deallocate:__align <- 1
	@DEBUG_VALUE: __libcpp_deallocate:__size <- undef
	@DEBUG_VALUE: deallocate:__n <- undef
	@DEBUG_VALUE: deallocate:this <- undef
	@DEBUG_VALUE: deallocate:__n <- undef
	@DEBUG_VALUE: deallocate:__a <- undef
	@DEBUG_VALUE: __libcpp_operator_delete<void *>:__args <- $r0
	@DEBUG_VALUE: __do_deallocate_handle_size<>:__ptr <- $r0
	@DEBUG_VALUE: __libcpp_deallocate:__ptr <- $r0
	@DEBUG_VALUE: deallocate:__p <- $r0
	@DEBUG_VALUE: deallocate:__p <- $r0
	.loc	43 251 3                        @ Keil_v5\ARM\ARMCLANG\Bin\..\include\libcxx\new:251:3
	bl	_ZdlPv
.Ltmp476:
.LBB5_56:                               @   in Loop: Header=BB5_54 Depth=2
	@DEBUG_VALUE: __emplace_back_slow_path<arm::app::Statistics &>:__args <- $r5
	@DEBUG_VALUE: emplace_back<arm::app::Statistics &>:__args <- $r5
	@DEBUG_VALUE: stat <- $r5
	@DEBUG_VALUE: __begin2 <- $r5
	@DEBUG_VALUE: __destruct_at_end:__new_last <- $r4
	@DEBUG_VALUE: __destruct_at_end:__new_last <- $r4
	@DEBUG_VALUE: __emplace_back_slow_path<arm::app::Statistics &>:__v <- [DW_OP_plus_uconst 12, DW_OP_deref_size 4, DW_OP_plus_uconst 8, DW_OP_stack_value, DW_OP_LLVM_fragment 128 32] $sp
	@DEBUG_VALUE: __emplace_back_slow_path<arm::app::Statistics &>:__a <- [DW_OP_plus_uconst 12, DW_OP_deref_size 4, DW_OP_plus_uconst 8, DW_OP_stack_value] $sp
	@DEBUG_VALUE: __emplace_back_slow_path<arm::app::Statistics &>:this <- [DW_OP_plus_uconst 12] [$sp+0]
	@DEBUG_VALUE: emplace_back<arm::app::Statistics &>:this <- [DW_OP_plus_uconst 12] [$sp+0]
	@DEBUG_VALUE: UpdateRunningStats:name <- [DW_OP_plus_uconst 648] [$sp+0]
	@DEBUG_VALUE: __emplace_back_slow_path<arm::app::Statistics &>:__v <- [DW_OP_LLVM_fragment 64 32] undef
	@DEBUG_VALUE: destroy<arm::app::Statistics, void>:__p <- undef
	@DEBUG_VALUE: destroy:__p <- undef
	@DEBUG_VALUE: ~Statistics:this <- undef
	@DEBUG_VALUE: ~basic_string:this <- $r6
	@DEBUG_VALUE: __is_long:this <- $r6
	.loc	6 1463 39                       @ Keil_v5\ARM\ARMCLANG\Bin\..\include\libcxx\string:1463:39
	ldrsb	r0, [r6, #-53]
.Ltmp477:
	.loc	6 2237 9                        @ Keil_v5\ARM\ARMCLANG\Bin\..\include\libcxx\string:2237:9
	cmp.w	r0, #-1
	bgt	.LBB5_53
.Ltmp478:
@ %bb.57:                               @   in Loop: Header=BB5_54 Depth=2
	@DEBUG_VALUE: ~basic_string:this <- $r6
	@DEBUG_VALUE: __emplace_back_slow_path<arm::app::Statistics &>:__args <- $r5
	@DEBUG_VALUE: emplace_back<arm::app::Statistics &>:__args <- $r5
	@DEBUG_VALUE: stat <- $r5
	@DEBUG_VALUE: __begin2 <- $r5
	@DEBUG_VALUE: __destruct_at_end:__new_last <- $r4
	@DEBUG_VALUE: __destruct_at_end:__new_last <- $r4
	@DEBUG_VALUE: __emplace_back_slow_path<arm::app::Statistics &>:__v <- [DW_OP_plus_uconst 12, DW_OP_deref_size 4, DW_OP_plus_uconst 8, DW_OP_stack_value, DW_OP_LLVM_fragment 128 32] $sp
	@DEBUG_VALUE: __emplace_back_slow_path<arm::app::Statistics &>:__a <- [DW_OP_plus_uconst 12, DW_OP_deref_size 4, DW_OP_plus_uconst 8, DW_OP_stack_value] $sp
	@DEBUG_VALUE: __emplace_back_slow_path<arm::app::Statistics &>:this <- [DW_OP_plus_uconst 12] [$sp+0]
	@DEBUG_VALUE: emplace_back<arm::app::Statistics &>:this <- [DW_OP_plus_uconst 12] [$sp+0]
	@DEBUG_VALUE: UpdateRunningStats:name <- [DW_OP_plus_uconst 648] [$sp+0]
	@DEBUG_VALUE: ~basic_string:this <- $r6
	@DEBUG_VALUE: __get_long_pointer:this <- $r6
	.loc	6 1542 34                       @ Keil_v5\ARM\ARMCLANG\Bin\..\include\libcxx\string:1542:34
	ldr	r0, [r6, #-64]
.Ltmp479:
	@DEBUG_VALUE: __do_deallocate_handle_size<>:__size <- undef
	@DEBUG_VALUE: __libcpp_deallocate:__align <- 1
	@DEBUG_VALUE: __libcpp_deallocate:__size <- undef
	@DEBUG_VALUE: deallocate:__n <- undef
	@DEBUG_VALUE: deallocate:this <- undef
	@DEBUG_VALUE: deallocate:__n <- undef
	@DEBUG_VALUE: deallocate:__a <- undef
	@DEBUG_VALUE: __libcpp_operator_delete<void *>:__args <- $r0
	@DEBUG_VALUE: __do_deallocate_handle_size<>:__ptr <- $r0
	@DEBUG_VALUE: __libcpp_deallocate:__ptr <- $r0
	@DEBUG_VALUE: deallocate:__p <- $r0
	@DEBUG_VALUE: deallocate:__p <- $r0
	.loc	43 251 3                        @ Keil_v5\ARM\ARMCLANG\Bin\..\include\libcxx\new:251:3
	bl	_ZdlPv
.Ltmp480:
	.loc	43 0 3 is_stmt 0                @ Keil_v5\ARM\ARMCLANG\Bin\..\include\libcxx\new:0:3
	b	.LBB5_53
.Ltmp481:
.LBB5_58:
	@DEBUG_VALUE: UpdateRunningStats:name <- [DW_OP_plus_uconst 648] [$sp+0]
	@DEBUG_VALUE: ~ProfileResult:this <- [DW_OP_plus_uconst 60, DW_OP_stack_value] $sp
	@DEBUG_VALUE: ~vector:this <- undef
	@DEBUG_VALUE: ~__vector_base:this <- undef
	.loc	14 463 9 is_stmt 1              @ Keil_v5\ARM\ARMCLANG\Bin\..\include\libcxx\vector:463:9
	ldr	r4, [sp, #76]
.Ltmp482:
	.loc	14 463 9 is_stmt 0              @ Keil_v5\ARM\ARMCLANG\Bin\..\include\libcxx\vector:463:9
	cbz	r4, .LBB5_69
.Ltmp483:
@ %bb.59:
	@DEBUG_VALUE: ~ProfileResult:this <- [DW_OP_plus_uconst 60, DW_OP_stack_value] $sp
	@DEBUG_VALUE: UpdateRunningStats:name <- [DW_OP_plus_uconst 648] [$sp+0]
	@DEBUG_VALUE: clear:this <- undef
	@DEBUG_VALUE: __destruct_at_end:this <- undef
	@DEBUG_VALUE: __destruct_at_end:__new_last <- $r4
	.loc	14 426 32 is_stmt 1             @ Keil_v5\ARM\ARMCLANG\Bin\..\include\libcxx\vector:426:32
	ldr	r0, [sp, #80]
.Ltmp484:
	@DEBUG_VALUE: __destruct_at_end:__soon_to_be_end <- $r0
	.loc	14 427 5                        @ Keil_v5\ARM\ARMCLANG\Bin\..\include\libcxx\vector:427:5
	cmp	r0, r4
	beq	.LBB5_67
.Ltmp485:
@ %bb.60:
	@DEBUG_VALUE: __destruct_at_end:__new_last <- $r4
	@DEBUG_VALUE: __destruct_at_end:__soon_to_be_end <- $r0
	@DEBUG_VALUE: ~ProfileResult:this <- [DW_OP_plus_uconst 60, DW_OP_stack_value] $sp
	@DEBUG_VALUE: UpdateRunningStats:name <- [DW_OP_plus_uconst 648] [$sp+0]
	sub.w	r5, r0, #64
	subs	r6, r4, r0
	b	.LBB5_62
.Ltmp486:
	.p2align	2
.LBB5_61:                               @   in Loop: Header=BB5_62 Depth=1
	@DEBUG_VALUE: __destruct_at_end:__soon_to_be_end <- $r5
	@DEBUG_VALUE: __destruct_at_end:__new_last <- $r4
	@DEBUG_VALUE: ~ProfileResult:this <- [DW_OP_plus_uconst 60, DW_OP_stack_value] $sp
	@DEBUG_VALUE: UpdateRunningStats:name <- [DW_OP_plus_uconst 648] [$sp+0]
	@DEBUG_VALUE: __destruct_at_end:__soon_to_be_end <- $r5
	.loc	14 427 23 is_stmt 0             @ Keil_v5\ARM\ARMCLANG\Bin\..\include\libcxx\vector:427:23
	adds	r6, #64
	sub.w	r5, r5, #64
.Ltmp487:
	.loc	14 427 5                        @ Keil_v5\ARM\ARMCLANG\Bin\..\include\libcxx\vector:427:5
	beq	.LBB5_66
.Ltmp488:
.LBB5_62:                               @ =>This Inner Loop Header: Depth=1
	@DEBUG_VALUE: __destruct_at_end:__new_last <- $r4
	@DEBUG_VALUE: ~ProfileResult:this <- [DW_OP_plus_uconst 60, DW_OP_stack_value] $sp
	@DEBUG_VALUE: UpdateRunningStats:name <- [DW_OP_plus_uconst 648] [$sp+0]
	@DEBUG_VALUE: __destruct_at_end:__soon_to_be_end <- $r5
	@DEBUG_VALUE: destroy<arm::app::Statistics, void>:__a <- [DW_OP_plus_uconst 8, DW_OP_stack_value] undef
	@DEBUG_VALUE: destroy<arm::app::Statistics, void>:__p <- $r5
	@DEBUG_VALUE: destroy:this <- [DW_OP_plus_uconst 8, DW_OP_stack_value] undef
	@DEBUG_VALUE: destroy:__p <- $r5
	@DEBUG_VALUE: ~Statistics:this <- $r5
	@DEBUG_VALUE: ~basic_string:this <- [DW_OP_plus_uconst 64, DW_OP_constu 52, DW_OP_minus, DW_OP_stack_value] $r5
	@DEBUG_VALUE: __is_long:this <- [DW_OP_plus_uconst 64, DW_OP_constu 52, DW_OP_minus, DW_OP_stack_value] $r5
	.loc	6 1463 39 is_stmt 1             @ Keil_v5\ARM\ARMCLANG\Bin\..\include\libcxx\string:1463:39
	ldrsb.w	r0, [r5, #23]
.Ltmp489:
	.loc	6 2237 9                        @ Keil_v5\ARM\ARMCLANG\Bin\..\include\libcxx\string:2237:9
	cmp.w	r0, #-1
	bgt	.LBB5_64
.Ltmp490:
@ %bb.63:                               @   in Loop: Header=BB5_62 Depth=1
	@DEBUG_VALUE: ~basic_string:this <- [DW_OP_plus_uconst 64, DW_OP_constu 52, DW_OP_minus, DW_OP_stack_value] $r5
	@DEBUG_VALUE: ~Statistics:this <- $r5
	@DEBUG_VALUE: destroy:__p <- $r5
	@DEBUG_VALUE: destroy<arm::app::Statistics, void>:__p <- $r5
	@DEBUG_VALUE: __destruct_at_end:__soon_to_be_end <- $r5
	@DEBUG_VALUE: __destruct_at_end:__new_last <- $r4
	@DEBUG_VALUE: ~ProfileResult:this <- [DW_OP_plus_uconst 60, DW_OP_stack_value] $sp
	@DEBUG_VALUE: UpdateRunningStats:name <- [DW_OP_plus_uconst 648] [$sp+0]
	@DEBUG_VALUE: __get_long_pointer:this <- [DW_OP_plus_uconst 64, DW_OP_constu 52, DW_OP_minus, DW_OP_stack_value] $r5
	.loc	6 1542 34                       @ Keil_v5\ARM\ARMCLANG\Bin\..\include\libcxx\string:1542:34
	ldr	r0, [r5, #12]
.Ltmp491:
	@DEBUG_VALUE: __do_deallocate_handle_size<>:__size <- undef
	@DEBUG_VALUE: __libcpp_deallocate:__align <- 1
	@DEBUG_VALUE: __libcpp_deallocate:__size <- undef
	@DEBUG_VALUE: deallocate:__n <- undef
	@DEBUG_VALUE: deallocate:this <- undef
	@DEBUG_VALUE: deallocate:__n <- undef
	@DEBUG_VALUE: deallocate:__a <- undef
	@DEBUG_VALUE: __libcpp_operator_delete<void *>:__args <- $r0
	@DEBUG_VALUE: __do_deallocate_handle_size<>:__ptr <- $r0
	@DEBUG_VALUE: __libcpp_deallocate:__ptr <- $r0
	@DEBUG_VALUE: deallocate:__p <- $r0
	@DEBUG_VALUE: deallocate:__p <- $r0
	.loc	43 251 3                        @ Keil_v5\ARM\ARMCLANG\Bin\..\include\libcxx\new:251:3
	bl	_ZdlPv
.Ltmp492:
.LBB5_64:                               @   in Loop: Header=BB5_62 Depth=1
	@DEBUG_VALUE: ~Statistics:this <- $r5
	@DEBUG_VALUE: destroy:__p <- $r5
	@DEBUG_VALUE: destroy<arm::app::Statistics, void>:__p <- $r5
	@DEBUG_VALUE: __destruct_at_end:__soon_to_be_end <- $r5
	@DEBUG_VALUE: __destruct_at_end:__new_last <- $r4
	@DEBUG_VALUE: ~ProfileResult:this <- [DW_OP_plus_uconst 60, DW_OP_stack_value] $sp
	@DEBUG_VALUE: UpdateRunningStats:name <- [DW_OP_plus_uconst 648] [$sp+0]
	@DEBUG_VALUE: ~basic_string:this <- $r5
	@DEBUG_VALUE: __is_long:this <- $r5
	.loc	6 1463 39                       @ Keil_v5\ARM\ARMCLANG\Bin\..\include\libcxx\string:1463:39
	ldrsb.w	r0, [r5, #11]
.Ltmp493:
	.loc	6 2237 9                        @ Keil_v5\ARM\ARMCLANG\Bin\..\include\libcxx\string:2237:9
	cmp.w	r0, #-1
	bgt	.LBB5_61
.Ltmp494:
@ %bb.65:                               @   in Loop: Header=BB5_62 Depth=1
	@DEBUG_VALUE: ~basic_string:this <- $r5
	@DEBUG_VALUE: ~Statistics:this <- $r5
	@DEBUG_VALUE: destroy:__p <- $r5
	@DEBUG_VALUE: destroy<arm::app::Statistics, void>:__p <- $r5
	@DEBUG_VALUE: __destruct_at_end:__soon_to_be_end <- $r5
	@DEBUG_VALUE: __destruct_at_end:__new_last <- $r4
	@DEBUG_VALUE: ~ProfileResult:this <- [DW_OP_plus_uconst 60, DW_OP_stack_value] $sp
	@DEBUG_VALUE: UpdateRunningStats:name <- [DW_OP_plus_uconst 648] [$sp+0]
	@DEBUG_VALUE: ~basic_string:this <- $r5
	@DEBUG_VALUE: __get_long_pointer:this <- $r5
	.loc	6 1542 34                       @ Keil_v5\ARM\ARMCLANG\Bin\..\include\libcxx\string:1542:34
	ldr	r0, [r5]
.Ltmp495:
	@DEBUG_VALUE: __do_deallocate_handle_size<>:__size <- undef
	@DEBUG_VALUE: __libcpp_deallocate:__align <- 1
	@DEBUG_VALUE: __libcpp_deallocate:__size <- undef
	@DEBUG_VALUE: deallocate:__n <- undef
	@DEBUG_VALUE: deallocate:this <- undef
	@DEBUG_VALUE: deallocate:__n <- undef
	@DEBUG_VALUE: deallocate:__a <- undef
	@DEBUG_VALUE: __libcpp_operator_delete<void *>:__args <- $r0
	@DEBUG_VALUE: __do_deallocate_handle_size<>:__ptr <- $r0
	@DEBUG_VALUE: __libcpp_deallocate:__ptr <- $r0
	@DEBUG_VALUE: deallocate:__p <- $r0
	@DEBUG_VALUE: deallocate:__p <- $r0
	.loc	43 251 3                        @ Keil_v5\ARM\ARMCLANG\Bin\..\include\libcxx\new:251:3
	bl	_ZdlPv
.Ltmp496:
	.loc	43 0 3 is_stmt 0                @ Keil_v5\ARM\ARMCLANG\Bin\..\include\libcxx\new:0:3
	b	.LBB5_61
.Ltmp497:
.LBB5_66:
	@DEBUG_VALUE: ~ProfileResult:this <- [DW_OP_plus_uconst 60, DW_OP_stack_value] $sp
	@DEBUG_VALUE: UpdateRunningStats:name <- [DW_OP_plus_uconst 648] [$sp+0]
	.loc	14 466 47 is_stmt 1             @ Keil_v5\ARM\ARMCLANG\Bin\..\include\libcxx\vector:466:47
	ldr	r0, [sp, #76]
	b	.LBB5_68
.Ltmp498:
.LBB5_67:
	@DEBUG_VALUE: ~ProfileResult:this <- [DW_OP_plus_uconst 60, DW_OP_stack_value] $sp
	@DEBUG_VALUE: UpdateRunningStats:name <- [DW_OP_plus_uconst 648] [$sp+0]
	mov	r0, r4
.Ltmp499:
.LBB5_68:
	@DEBUG_VALUE: ~ProfileResult:this <- [DW_OP_plus_uconst 60, DW_OP_stack_value] $sp
	@DEBUG_VALUE: UpdateRunningStats:name <- [DW_OP_plus_uconst 648] [$sp+0]
	.loc	14 429 12                       @ Keil_v5\ARM\ARMCLANG\Bin\..\include\libcxx\vector:429:12
	str	r4, [sp, #80]
.Ltmp500:
	@DEBUG_VALUE: __libcpp_operator_delete<void *>:__args <- $r0
	@DEBUG_VALUE: __do_deallocate_handle_size<>:__size <- [DW_OP_constu 6, DW_OP_shra, DW_OP_constu 6, DW_OP_shl, DW_OP_stack_value] undef
	@DEBUG_VALUE: __do_deallocate_handle_size<>:__ptr <- $r0
	@DEBUG_VALUE: __libcpp_deallocate:__align <- 8
	@DEBUG_VALUE: __libcpp_deallocate:__size <- [DW_OP_constu 6, DW_OP_shra, DW_OP_constu 6, DW_OP_shl, DW_OP_stack_value] undef
	@DEBUG_VALUE: __libcpp_deallocate:__ptr <- $r0
	@DEBUG_VALUE: deallocate:__n <- [DW_OP_constu 6, DW_OP_shra, DW_OP_stack_value] undef
	@DEBUG_VALUE: deallocate:__p <- undef
	@DEBUG_VALUE: deallocate:this <- [DW_OP_plus_uconst 8, DW_OP_stack_value] undef
	@DEBUG_VALUE: deallocate:__n <- [DW_OP_constu 6, DW_OP_shra, DW_OP_stack_value] undef
	@DEBUG_VALUE: deallocate:__p <- undef
	@DEBUG_VALUE: deallocate:__a <- [DW_OP_plus_uconst 8, DW_OP_stack_value] undef
	.loc	43 251 3                        @ Keil_v5\ARM\ARMCLANG\Bin\..\include\libcxx\new:251:3
	bl	_ZdlPv
.Ltmp501:
.LBB5_69:
	@DEBUG_VALUE: ~ProfileResult:this <- [DW_OP_plus_uconst 60, DW_OP_stack_value] $sp
	@DEBUG_VALUE: UpdateRunningStats:name <- [DW_OP_plus_uconst 648] [$sp+0]
	@DEBUG_VALUE: ~basic_string:this <- [DW_OP_plus_uconst 60, DW_OP_stack_value] $sp
	@DEBUG_VALUE: __is_long:this <- [DW_OP_plus_uconst 60, DW_OP_stack_value] $sp
	.loc	6 1463 39                       @ Keil_v5\ARM\ARMCLANG\Bin\..\include\libcxx\string:1463:39
	ldrsb.w	r0, [sp, #71]
.Ltmp502:
	.loc	6 2237 9                        @ Keil_v5\ARM\ARMCLANG\Bin\..\include\libcxx\string:2237:9
	cmp.w	r0, #-1
	bgt.w	.LBB5_10
.Ltmp503:
@ %bb.70:
	@DEBUG_VALUE: ~basic_string:this <- [DW_OP_plus_uconst 60, DW_OP_stack_value] $sp
	@DEBUG_VALUE: ~ProfileResult:this <- [DW_OP_plus_uconst 60, DW_OP_stack_value] $sp
	@DEBUG_VALUE: UpdateRunningStats:name <- [DW_OP_plus_uconst 648] [$sp+0]
	@DEBUG_VALUE: ~basic_string:this <- [DW_OP_plus_uconst 60, DW_OP_stack_value] $sp
	@DEBUG_VALUE: __get_long_pointer:this <- [DW_OP_plus_uconst 60, DW_OP_stack_value] $sp
	.loc	6 1542 34                       @ Keil_v5\ARM\ARMCLANG\Bin\..\include\libcxx\string:1542:34
	ldr	r0, [sp, #60]
.Ltmp504:
	@DEBUG_VALUE: __do_deallocate_handle_size<>:__size <- undef
	@DEBUG_VALUE: __libcpp_deallocate:__align <- 1
	@DEBUG_VALUE: __libcpp_deallocate:__size <- undef
	@DEBUG_VALUE: deallocate:__n <- undef
	@DEBUG_VALUE: deallocate:this <- undef
	@DEBUG_VALUE: deallocate:__n <- undef
	@DEBUG_VALUE: deallocate:__a <- undef
	@DEBUG_VALUE: __libcpp_operator_delete<void *>:__args <- $r0
	@DEBUG_VALUE: __do_deallocate_handle_size<>:__ptr <- $r0
	@DEBUG_VALUE: __libcpp_deallocate:__ptr <- $r0
	@DEBUG_VALUE: deallocate:__p <- $r0
	@DEBUG_VALUE: deallocate:__p <- $r0
	.loc	43 251 3                        @ Keil_v5\ARM\ARMCLANG\Bin\..\include\libcxx\new:251:3
	bl	_ZdlPv
.Ltmp505:
	.loc	43 0 3 is_stmt 0                @ Keil_v5\ARM\ARMCLANG\Bin\..\include\libcxx\new:0:3
	b	.LBB5_10
.Ltmp506:
.LBB5_71:
	@DEBUG_VALUE: __emplace_back_slow_path<arm::app::Statistics &>:__args <- $r5
	@DEBUG_VALUE: emplace_back<arm::app::Statistics &>:__args <- $r5
	@DEBUG_VALUE: stat <- $r5
	@DEBUG_VALUE: __begin2 <- $r5
	@DEBUG_VALUE: __recommend:__new_size <- $r4
	@DEBUG_VALUE: __recommend:this <- [DW_OP_plus_uconst 12] [$sp+0]
	@DEBUG_VALUE: __emplace_back_slow_path<arm::app::Statistics &>:__a <- [DW_OP_plus_uconst 12, DW_OP_deref_size 4, DW_OP_plus_uconst 8, DW_OP_stack_value] $sp
	@DEBUG_VALUE: __emplace_back_slow_path<arm::app::Statistics &>:this <- [DW_OP_plus_uconst 12] [$sp+0]
	@DEBUG_VALUE: emplace_back<arm::app::Statistics &>:this <- [DW_OP_plus_uconst 12] [$sp+0]
	@DEBUG_VALUE: UpdateRunningStats:name <- [DW_OP_plus_uconst 648] [$sp+0]
	@DEBUG_VALUE: __recommend:__ms <- 67108863
	.loc	14 1026 15 is_stmt 1            @ Keil_v5\ARM\ARMCLANG\Bin\..\include\libcxx\vector:1026:15
	ldr	r0, [sp, #12]                   @ 4-byte Reload
	bl	_ZNKSt3__220__vector_base_commonILb1EE20__throw_length_errorEv
.Ltmp507:
.LBB5_72:
	@DEBUG_VALUE: __emplace_back_slow_path<arm::app::Statistics &>:__args <- $r5
	@DEBUG_VALUE: emplace_back<arm::app::Statistics &>:__args <- $r5
	@DEBUG_VALUE: stat <- $r5
	@DEBUG_VALUE: __begin2 <- $r5
	@DEBUG_VALUE: allocate:__n <- $r4
	@DEBUG_VALUE: allocate:__n <- $r4
	@DEBUG_VALUE: __split_buffer:__cap <- $r4
	@DEBUG_VALUE: __split_buffer:__a <- [DW_OP_plus_uconst 12, DW_OP_deref_size 4, DW_OP_plus_uconst 8, DW_OP_stack_value] $sp
	@DEBUG_VALUE: __emplace_back_slow_path<arm::app::Statistics &>:__v <- [DW_OP_plus_uconst 12, DW_OP_deref_size 4, DW_OP_plus_uconst 8, DW_OP_stack_value, DW_OP_LLVM_fragment 128 32] $sp
	@DEBUG_VALUE: __emplace_back_slow_path<arm::app::Statistics &>:__a <- [DW_OP_plus_uconst 12, DW_OP_deref_size 4, DW_OP_plus_uconst 8, DW_OP_stack_value] $sp
	@DEBUG_VALUE: __emplace_back_slow_path<arm::app::Statistics &>:this <- [DW_OP_plus_uconst 12] [$sp+0]
	@DEBUG_VALUE: emplace_back<arm::app::Statistics &>:this <- [DW_OP_plus_uconst 12] [$sp+0]
	@DEBUG_VALUE: UpdateRunningStats:name <- [DW_OP_plus_uconst 648] [$sp+0]
	@DEBUG_VALUE: __emplace_back_slow_path<arm::app::Statistics &>:__v <- [DW_OP_LLVM_fragment 96 32] 0
	.file	46 "C:\\" "Keil_v5\\ARM\\ARMCLANG\\Bin\\..\\include\\libcxx\\stdexcept"
	.loc	46 259 5                        @ Keil_v5\ARM\ARMCLANG\Bin\..\include\libcxx\stdexcept:259:5
	bl	abort
.Ltmp508:
	.p2align	2
@ %bb.73:
	.loc	46 0 5 is_stmt 0                @ Keil_v5\ARM\ARMCLANG\Bin\..\include\libcxx\stdexcept:0:5
.LCPI5_0:
.L.str.12:
	.asciz	"WARN - "
.LCPI5_1:
.L.str.13:
	.asciz	"Overflow detected for %s\n\000\000"
.LCPI5_2:
.Lstr:
	.asciz	"Invalid start or end counters\000\000"
.Lfunc_end5:
	.size	_ZN3arm3app8Profiler18UpdateRunningStatsE13_pmu_countersS2_RKNSt3__212basic_stringIcNS3_11char_traitsIcEENS3_9allocatorIcEEEE, .Lfunc_end5-_ZN3arm3app8Profiler18UpdateRunningStatsE13_pmu_countersS2_RKNSt3__212basic_stringIcNS3_11char_traitsIcEENS3_9allocatorIcEEEE
	.cfi_endproc
	.cantunwind
	.fnend
                                        @ -- End function
	.section	.text._ZN3arm3app8Profiler21StopProfilingAndResetEv,"ax",%progbits
	.hidden	_ZN3arm3app8Profiler21StopProfilingAndResetEv @ -- Begin function _ZN3arm3app8Profiler21StopProfilingAndResetEv
	.globl	_ZN3arm3app8Profiler21StopProfilingAndResetEv
	.p2align	2
	.type	_ZN3arm3app8Profiler21StopProfilingAndResetEv,%function
	.code	16                              @ @_ZN3arm3app8Profiler21StopProfilingAndResetEv
	.thumb_func
_ZN3arm3app8Profiler21StopProfilingAndResetEv:
.Lfunc_begin6:
	.loc	41 77 0 is_stmt 1               @ ../../../../ThirdParty/ml-embedded-evaluation-kit/source/profiler/Profiler.cc:77:0
	.fnstart
	.cfi_startproc
@ %bb.0:
	@DEBUG_VALUE: StopProfilingAndReset:this <- $r0
	@DEBUG_VALUE: StopProfiling:this <- $r0
	.save	{r4, r5, r6, r7, lr}
	push	{r4, r5, r6, r7, lr}
	.cfi_def_cfa_offset 20
	.cfi_offset lr, -4
	.cfi_offset r7, -8
	.cfi_offset r6, -12
	.cfi_offset r5, -16
	.cfi_offset r4, -20
	.pad	#332
	sub	sp, #332
	.cfi_def_cfa_offset 352
	mov	r4, r0
.Ltmp509:
	@DEBUG_VALUE: StopProfiling:this <- $r4
	@DEBUG_VALUE: StopProfilingAndReset:this <- $r4
	.loc	41 60 19 prologue_end           @ ../../../../ThirdParty/ml-embedded-evaluation-kit/source/profiler/Profiler.cc:60:19
	ldrb.w	r0, [r0, #352]
.Ltmp510:
	.loc	41 60 13 is_stmt 0              @ ../../../../ThirdParty/ml-embedded-evaluation-kit/source/profiler/Profiler.cc:60:13
	cbz	r0, .LBB6_7
.Ltmp511:
@ %bb.1:
	@DEBUG_VALUE: StopProfilingAndReset:this <- $r4
	@DEBUG_VALUE: StopProfiling:this <- $r4
	.loc	41 61 19 is_stmt 1              @ ../../../../ThirdParty/ml-embedded-evaluation-kit/source/profiler/Profiler.cc:61:19
	add.w	r5, r4, #184
	movs	r6, #0
	.loc	41 62 13                        @ ../../../../ThirdParty/ml-embedded-evaluation-kit/source/profiler/Profiler.cc:62:13
	mov	r0, r5
	.loc	41 61 43                        @ ../../../../ThirdParty/ml-embedded-evaluation-kit/source/profiler/Profiler.cc:61:43
	strb.w	r6, [r4, #348]
	.loc	41 62 13                        @ ../../../../ThirdParty/ml-embedded-evaluation-kit/source/profiler/Profiler.cc:62:13
	bl	pmu_get_counters
.Ltmp512:
	.loc	41 64 35                        @ ../../../../ThirdParty/ml-embedded-evaluation-kit/source/profiler/Profiler.cc:64:35
	ldrb.w	r0, [r4, #348]
.Ltmp513:
	.loc	41 63 29                        @ ../../../../ThirdParty/ml-embedded-evaluation-kit/source/profiler/Profiler.cc:63:29
	strb.w	r6, [r4, #352]
	.loc	41 64 17                        @ ../../../../ThirdParty/ml-embedded-evaluation-kit/source/profiler/Profiler.cc:64:17
	cbz	r0, .LBB6_7
.Ltmp514:
@ %bb.2:
	@DEBUG_VALUE: StopProfilingAndReset:this <- $r4
	@DEBUG_VALUE: StopProfiling:this <- $r4
	.loc	41 68 27                        @ ../../../../ThirdParty/ml-embedded-evaluation-kit/source/profiler/Profiler.cc:68:27
	add.w	r1, r4, #356
	.loc	41 65 23                        @ ../../../../ThirdParty/ml-embedded-evaluation-kit/source/profiler/Profiler.cc:65:23
	mov	r0, sp
	str	r1, [sp, #328]
	add.w	r1, r4, #24
	movs	r2, #160
.Ltmp515:
.LBB6_3:                                @ =>This Inner Loop Header: Depth=1
	@DEBUG_VALUE: StopProfilingAndReset:this <- $r4
	@DEBUG_VALUE: StopProfiling:this <- $r4
	ldr	r3, [r1], #4
	subs	r2, #4
	str	r3, [r0], #4
	bne	.LBB6_3
.Ltmp516:
@ %bb.4:
	@DEBUG_VALUE: StopProfilingAndReset:this <- $r4
	@DEBUG_VALUE: StopProfiling:this <- $r4
	add	r0, sp, #160
	movs	r1, #168
.Ltmp517:
.LBB6_5:                                @ =>This Inner Loop Header: Depth=1
	@DEBUG_VALUE: StopProfilingAndReset:this <- $r4
	@DEBUG_VALUE: StopProfiling:this <- $r4
	ldr	r2, [r5], #4
	subs	r1, #4
	str	r2, [r0], #4
	bne	.LBB6_5
.Ltmp518:
@ %bb.6:
	@DEBUG_VALUE: StopProfilingAndReset:this <- $r4
	@DEBUG_VALUE: StopProfiling:this <- $r4
	mov	r5, r4
	ldr	r3, [r4, #20]
	ldr	r2, [r5, #16]!
	mov	r0, r4
	bl	_ZN3arm3app8Profiler18UpdateRunningStatsE13_pmu_countersS2_RKNSt3__212basic_stringIcNS3_11char_traitsIcEENS3_9allocatorIcEEEE
.Ltmp519:
	.loc	20 1079 59                      @ Keil_v5\ARM\ARMCLANG\Bin\..\include\libcxx\__tree:1079:59
	mov	r6, r4
	movs	r7, #0
.Ltmp520:
	@DEBUG_VALUE: Reset:this <- $r4
	ldr	r1, [r6, #4]!
.Ltmp521:
	.loc	20 1838 5                       @ Keil_v5\ARM\ARMCLANG\Bin\..\include\libcxx\__tree:1838:5
	mov	r0, r4
.Ltmp522:
	.loc	41 88 25                        @ ../../../../ThirdParty/ml-embedded-evaluation-kit/source/profiler/Profiler.cc:88:25
	strb.w	r7, [r4, #352]
.Ltmp523:
	@DEBUG_VALUE: __get:this <- [DW_OP_plus_uconst 4, DW_OP_stack_value] $r4
	@DEBUG_VALUE: first:this <- [DW_OP_plus_uconst 4, DW_OP_stack_value] $r4
	@DEBUG_VALUE: __end_node:this <- $r4
	@DEBUG_VALUE: __root:this <- $r4
	@DEBUG_VALUE: clear:this <- $r4
	@DEBUG_VALUE: clear:this <- $r4
	.loc	20 1838 5                       @ Keil_v5\ARM\ARMCLANG\Bin\..\include\libcxx\__tree:1838:5
	bl	_ZNSt3__26__treeINS_12__value_typeINS_12basic_stringIcNS_11char_traitsIcEENS_9allocatorIcEEEENS_6vectorIN3arm3app10StatisticsENS5_ISB_EEEEEENS_19__map_value_compareIS7_SE_NS_4lessIS7_EELb1EEENS5_ISE_EEE7destroyEPNS_11__tree_nodeISE_PvEE
.Ltmp524:
	@DEBUG_VALUE: __get:this <- [DW_OP_plus_uconst 8, DW_OP_stack_value] $r4
	@DEBUG_VALUE: first:this <- [DW_OP_plus_uconst 8, DW_OP_stack_value] $r4
	@DEBUG_VALUE: size:this <- $r4
